
captaster.elf:     file format elf32-avr

Sections:
Idx Name          Size      VMA       LMA       File off  Algn
  0 .text         00000f0e  00000000  00000000  000000b4  2**1
                  CONTENTS, ALLOC, LOAD, READONLY, CODE
  1 .data         00000008  00800060  00000f0e  00000fc2  2**0
                  CONTENTS, ALLOC, LOAD, DATA
  2 .bss          00000008  00800068  00800068  00000fca  2**0
                  ALLOC
  3 .eeprom       000000e7  00810000  00810000  00000fca  2**0
                  CONTENTS, ALLOC, LOAD, DATA
  4 .stab         000006cc  00000000  00000000  000010b4  2**2
                  CONTENTS, READONLY, DEBUGGING
  5 .stabstr      00000054  00000000  00000000  00001780  2**0
                  CONTENTS, READONLY, DEBUGGING

Disassembly of section .text:

00000000 <__vectors>:
   0:	be c6       	rjmp	.+3452   	; 0xd7e <__ctors_end>
   2:	e3 c6       	rjmp	.+3526   	; 0xdca <__vector_1>
   4:	d8 c6       	rjmp	.+3504   	; 0xdb6 <__vector_2>
   6:	d6 c6       	rjmp	.+3500   	; 0xdb4 <__bad_interrupt>
   8:	d5 c6       	rjmp	.+3498   	; 0xdb4 <__bad_interrupt>
   a:	e9 c6       	rjmp	.+3538   	; 0xdde <__vector_5>
   c:	d3 c6       	rjmp	.+3494   	; 0xdb4 <__bad_interrupt>
   e:	d2 c6       	rjmp	.+3492   	; 0xdb4 <__bad_interrupt>
  10:	04 c7       	rjmp	.+3592   	; 0xe1a <__vector_8>
  12:	d0 c6       	rjmp	.+3488   	; 0xdb4 <__bad_interrupt>
  14:	cf c6       	rjmp	.+3486   	; 0xdb4 <__bad_interrupt>
  16:	ce c6       	rjmp	.+3484   	; 0xdb4 <__bad_interrupt>
  18:	cd c6       	rjmp	.+3482   	; 0xdb4 <__bad_interrupt>
  1a:	cc c6       	rjmp	.+3480   	; 0xdb4 <__bad_interrupt>
  1c:	cb c6       	rjmp	.+3478   	; 0xdb4 <__bad_interrupt>

0000001e <lied>:
  1e:	01 00 f0 f8 f2 fa f4 f5 76 77 88 86 88 80 6f 80     ........vw....o.
  2e:	48 40 48 90 8f 8b 88 8f 94 48 46 40 46 83 8b c8     H@H......HF@F...
  3e:	c8 c0 52 8f 8d 8b c8 ab 48 40 48 8d 88 86 c8 af     ..R.....H@H.....
  4e:	48 40 48 90 8f 8b 88 8f 94 48 46 40 46 83 8b c8     H@H......HF@F...
  5e:	c8 02 41 03 03 43 83 41 41 41 41 04 04 44 84 43     ..A..C.AAAA..D.C
  6e:	43 43 41 03 03 43 83 41 41 41 41 04 04 44 84 43     CCA..C.AAAA..D.C
  7e:	42 41 4d ec 48 46 e8 04 8d 08 0a 48 06 05 48 08     BAM.HF.....H..H.
  8e:	0a 4f 0d 0c 4a 0c cd 04 0d 12 0d 14 0d 10 12 0d     .O..J...........
  9e:	15 0d 17 0d 14 15 0d 14 0d 12 0d 14 0d 10 12 0d     ................
  ae:	03 6f 00 6f 00 6f 00 4b 00 12 6f 00 4b 00 12 af     .o.o.o.K..o.K...
  be:	40 76 00 76 00 76 00 57 00 12 6e 02 0d 0c 4d 08     @v.v.v.W..n...M.
  ce:	00 08 00 04 00 04 00 01 00 01 00 0d 0c 4d 09 00     .............M..
  de:	09 00 06 00 46 01 00 01 00 0d 0c 4d 08 00 08 00     ....F......M....
  ee:	04 00 04 00 01 00 01 00 08 06 04 03 01 03 04 01     ................
  fe:	04 06 48 40 4f 0d 0f 0b 0f 0a 0f 08 0f 0f 00 0f     ..H@O...........
 10e:	00 0f 00 4f 0d 0f 0b 0f 0a 0f 08 0f 0f 00 0f 00     ...O............
 11e:	0f 00 08 06 04 03 01 03 04 01 04 06 81 03 49 42     ..............IB
 12e:	00 4e 0b 49 42 00 49 07 06 07 08 09 42 44 86 80     .N.IB.I.....BD..
 13e:	49 42 00 4e 0b 49 42 00 49 07 06 07 08 09 42 44     IB.N.IB.I.....BD
 14e:	82 03 08 08 48 4a 45 00 68 4a 45 00 68 4a 48 07     ....HJE.hJE.hJH.
 15e:	86 03 0f 00 12 00 0f 00 10 00 0d 00 50 40 15 00     ............P@..
 16e:	10 00 55 40 14 00 10 00 54 03 48 4d 51 4d 4f 40     ..U@....T.HMQMO@
 17e:	12 11 0f 0d 4c 4f 48 4c 8d 51 40 48 4d 51 4d 4f     ....LOHL.Q@HMQMO
 18e:	40 12 11 0f 0d 4c 4f 48 4c 8d 03 45 47 48 4a 48     @....LOHL..EGHJH
 19e:	47 45 44 44 45 47 05 04 03 4c 4a 4c 4a 4c 4a 4c     GEDDEG...LJLJLJL
 1ae:	0a 6d 4c 4d 4c 4d 4c 4d 0f 71 4f 51 4f 51 4f 51     .mLMLMLM.qOQOQOQ
 1be:	0f 6c 4a 4c 4a 4c 03 4d 4d 4a 4c 0a 4c 48 40 4d     .lJLJL.MMJL.LH@M
 1ce:	4d 4a 0c 0a 00 68 40 45 45 48 46 05 46 0d 01 03     MJ...h@EEHF.F...
 1de:	45 05 05 00 05 48 03 0f 08 08 0f 08 08 0f 08 10     E....H..........
 1ee:	08 0f 08 08 0f 08 08 0f 08 10 08 0e 07 07 0e 07     ................
 1fe:	0f 07 0e 07 07 0e 07 07 0e 07 0f 07 02 0f 10 0f     ................
 20e:	10 0f 10 0f 10 0f 0f 10 11 12 13 14 54 80 54 80     ............T.T.
 21e:	57 40 4d 40 54 80 54 80 52 40 53 40 54 80 54 80     W@M@T.T.R@S@T.T.
 22e:	57 40 4d 40 54 80 54 80 52 40 53 40 57 54 cf cf     W@M@T.T.R@S@WT..
 23e:	00 57 54 ce ce 00 57 54 cd cd 40 4b 4d 05 08 0d     .WT...WT..@KM...
 24e:	10 0f 0d 10 0d 0f 0d 09 0b 88 08 0d 10 0f 0d 10     ................
 25e:	0d 0f 0d 08 07 86 06 03 4a 4a 51 11 cc 4d 4c 4d     ........JJQ..MLM
 26e:	4f 4d 4c 4a 4a 4a 51 11 cc 4d 4c 4d 4f 4d 4c 04     OMLJJJQ..MLMOML.
 27e:	91 8f 0d 08 08 08 08 08 0f 0d 0c 08 08 08 08 00     ................
 28e:	0f 0d 0c 08 08 08 08 08 0a 0c 0d 0c 0d 11 14 02     ................
 29e:	05 00 06 05 05 00 05 05 06 05 05 05 04 05 05 05     ................
 2ae:	05 00 06 05 05 00 06 05 06 05 05 05 04 05 05 05     ................
 2be:	03 00 05 03 03 00 05 03 05 03 03 03 01 03 03 03     ................
 2ce:	03 00 05 03 03 00 05 03 05 03 03 03 01 03 03 03     ................
 2de:	02 ad 28 64 88 e1 80 ad 28 64 88 e1 80 ab 2a 68     ..(d....(d....*h
 2ee:	8a e3 80 ad 28 64 88 e1 02 18 00 19 00 1b 18 14     ....(d..........
 2fe:	11 18 14 11 0d 14 11 0d 0a 80 19 00 1b 00 1d 19     ................
 30e:	16 12 19 16 12 0f 16 12 0f 0c c0 1f 1d 19 16 12     ................
 31e:	0f 0c 19 16 12 0f 0c 12 0f 0c 12 91 04 08 08 0a     ................
 32e:	0a 05 05 48 08 08 0a 0a 05 05 48 08 08 0a 0a 0d     ...H......H.....
 33e:	0d 4c 4c 4a 48 46 06 06 08 08 03 03 46 06 06 08     .LLJHF......F...
 34e:	08 03 03 46 06 06 08 08 0a 0c 4d 4a 48 45 41 03     ...F......MJHEA.
 35e:	4f 0f 0d 4c 8d 8a 4a 4f 4f 0d 6c 4f 0f 0d 4c 8d     O..L..JOO.lO..L.
 36e:	8a 4c 48 8a 40 4c 4d 4f 91 71 72 4f b1 4f 0f 0d     .LH.@LMO.qrO.O..
 37e:	4c 8d 8a 4a 4f 4f 0d 6c 4f 0f 0d 4c 8d 8a 4c 48     L..JOO.lO..L..LH
 38e:	6a 03 4f 11 6d 51 4f 0d 6a 03 4a 40 4a 40 4a 0d     j.O.mQO.j.J@J@J.
 39e:	71 40 51 0f 0d 51 0f 0d 51 0f 0d 11 11 0f 0d 02     q@Q..Q..Q.......
 3ae:	8d 12 12 12 00 4f 4d aa 4d 12 12 12 00 51 4f b1     .....OM.M....QO.
 3be:	51 51 4d 4f 4d 51 4d 4f 4a 4d 48 4b 4a 46 02 44     QQMOMQMOJMHKJF.D
 3ce:	45 c0 47 48 c0 44 45 00 47 48 00 4d 4c 00 44 45     E.GH.DE.GH.ML.DE
 3de:	00 4c cb c0 0a 08 05 03 c5 c0 44 45 80 47 48 80     .L........DE.GH.
 3ee:	44 45 00 47 48 00 4d 4c 00 44 45 00 51 d0 03 8d     DE.GH.ML.DE.Q...
 3fe:	a8 40 08 0a 0c 8d a8 40 08 0a 0c 8d 6f 11 92 71     .@.....@....o..q
 40e:	0f d4 02 08 0a 0b 01 03 04 06 08 0a 0b 0d 0f 10     ................
 41e:	00 12 14 16 d7 00 15 17 15 00 13 00 15 00 13 00     ................
 42e:	15 00 13 00 12 00 10 00 4f 4e 00 10 00 11 00 52     ........ON.....R
 43e:	00 0f 00 0b 09 00 0b 89 00 47 06 00 c6 c6 02 0a     .........G......
 44e:	0f 0a 0f ca 86 88 c3 80 0a 0f 0a 0f ca 86 88 cd     ................
 45e:	80 0a 0f 0a 0f ca 86 45 43 c1 80 0a 0f 0a 0f ca     .......EC.......
 46e:	88 e3 01 4e cf cf c0 c0 4e ef c0 c0 31 2f 2e cf     ...N....N...1/..
 47e:	cf c0 c0 4e cf cf c0 c0 4c ed c0 c0 2f 2d 2c cd     ...N....L.../-,.
 48e:	cd c0 c0 4b ec c0 c0 0d 0c 0a 2c ea c0 c0 0a 08     ...K......,.....
 49e:	07 2a e8 e8 03 81 c6 a8 09 0b c9 a1 41 a6 48 49     .*..........A.HI
 4ae:	41 29 21 0d eb 03 08 08 08 08 48 4a 48 45 40 01     A)!.......HJHE@.
 4be:	03 01 43 43 41 85 03 51 96 71 13 95 4e 4e 93 71     ..CCA..Q.q..NN.q
 4ce:	0f 91 6a 0a 8c 6c 0e 8f 4f 51 93 75 16 b8 02 0f     ..j..l..OQ.u....
 4de:	0e 0f 11 12 11 12 13 14 13 14 16 17 16 14 17 16     ................
 4ee:	0a 0e 11 16 14 12 11 12 11 0f 0e 0f 0a 0c 0e 0f     ................
 4fe:	0e 0f 11 12 11 12 13 14 13 14 16 17 16 14 17 16     ................
 50e:	0a 0e 11 16 14 12 11 0f 02 0a 08 ca ca 08 06 03     ................
 51e:	05 c2 00 a3 c0 0a 08 ca ca 65 66 62 c3 02 45 00     .........efb..E.
 52e:	06 08 00 ad 00 43 00 05 c6 40 48 00 0a 0c 00 b2     .....C...@H.....
 53e:	40 4a 00 0c 8d 8f 91 03 43 48 c8 4c 0a 08 cc 8a     @J......CH.L....
 54e:	c8 85 c3 43 45 c8 4c 0a 08 cc 4a 4c cf cf 03 0d     ...CE.L...JL....
 55e:	52 16 52 0d 4c 94 12 51 14 51 0d 4a 92 0d 52 16     R.R.L..Q.Q.J..R.
 56e:	52 0d 4c 94 12 51 0d 4f 11 d2 01 0c 0f 0c 0f 0c     R.L..Q.O........
 57e:	0f 0c 0f 0f 12 0f 12 0f 12 0f 12 12 16 12 16 12     ................
 58e:	16 12 16 03 48 48 08 0c 4f 4f 4f 0f 0d 4c 4d 4d     ....HH..OOO..LMM
 59e:	0d 0c 4a 03 4c 08 4a 04 0c 11 15 16 15 11 0c 0a     ..J.L.J.........
 5ae:	09 0a 6c 02 8d 40 28 00 e8 40 25 00 86 00 2a 00     ..l..@(..@%...*.
 5be:	88 00 21 00 e1 01 0a 0c 0a 0c 0a 0c 0a 80 0a 0c     ..!.............
 5ce:	0a 0c 0a 0c 0a 0c 0a 02 4d 4b 4d 48 44 48 81 4d     ........MKMHDH.M
 5de:	4b 4d 48 44 48 81 4d 4f 50 0d 50 0d 50 4f 0b 4f     KMHDH.MOP.P.PO.O
 5ee:	0b 4f 4d 4b 48 4b 8d 02 29 2f 30 29 6e ac c9 c9     .OMKHK..)/0)n...
 5fe:	29 2f 30 29 6e ac c9 c9 03 0b 07 0b 10 4c 00 0b     )/0)n........L..
 60e:	09 06 09 0e 4b 09 07 40 07 04 49 04 40 09 07 4b     ....K..@..I.@..K
 61e:	09 07 03 0f 00 0d 00 0a 0a 0d 0d 0f 0f 0d 0a 40     ...............@
 62e:	0f 00 11 11 0f 00 0c 0c 0f 00 11 00 0f 0c 04 48     ...............H
 63e:	4a 4c 0d 0c 0c 0a 0a 08 08 01 43 aa 02 0c 0a 8c     JL........C.....
 64e:	85 40 0d 0c 4d 4c 8a 40 0d 0c 8d 85 40 0a 08 4a     .@..ML.@....@..J
 65e:	48 47 4a a8 03 47 4a 6c 47 4a 0d 8c 47 4a 6c 4a     HGJ..GJlGJ..GJlJ
 66e:	a7 02 66 0b b0 4f 2b 28 2d d2 d2 03 8f 4c 0d 8f     ..f..O+(-....L..
 67e:	00 4c 0d af 51 4f 4d 4c 4d 6c 00 48 0a 8c 00 4a     .L..QOMLMl.H...J
 68e:	4c a7 40 88 6a 02 45 46 48 0d 48 0d 08 0d 48 8f     L.@.j.EFH.H...H.
 69e:	48 68 8d 80 46 48 4a 0d 4a 0d 0a 0d 4a 8f 48 68     Hh..FHJ.J...J.Hh
 6ae:	8d 02 4f 51 d3 d3 13 14 13 11 0f 13 51 00 f6 f6     ..OQ........Q...
 6be:	00 54 53 cf cf 00 cc 00 ca ca 00 4f 51 d3 d3 13     .TS........OQ...
 6ce:	14 13 11 0f 13 51 00 d6 d6 00 93 00 d8 d8 00 96     .....Q..........
 6de:	00 d1 d1 03 68 05 81 85 88 cd 71 0f 8d 85 87 c8     ....h.....q.....
 6ee:	03 52 51 4d 0a cf 40 4d 0f 51 4d ca 04 05 11 05     .RQM..@M.QM.....
 6fe:	11 05 12 05 14 05 11 05 11 05 12 05 0f 05 11 05     ................
 70e:	11 05 12 05 14 05 11 05 11 05 12 05 0f 05 11 0d     ................
 71e:	05 0f 05 0c 05 0d 05 0a 05 0c 05 09 ca 05 25 05     ..............%.
 72e:	05 25 06 08 0a 48 00 08 0a 0a 08 4d 48 06 65 00     .%...H.....MH.e.
 73e:	05 06 08 03 43 03 05 06 41 04 4c 0d 05 0a 0d 0f     ....C...A.L.....
 74e:	08 0c 4d 0a 0d 11 52 11 0f 0d 05 0a 0d 0c 03 08     ..M...R.........
 75e:	8a 03 8d 4d 0c 0d 0f 0d 0c 0a 4d 0d 0a 8d 4d 0c     ...M......M...M.
 76e:	0d 0a 08 05 06 c8 08 06 05 03 05 06 08 0a 88 88     ................
 77e:	08 0a 0c 0a 08 06 05 03 05 03 41 41 01 03 45 46     ..........AA..EF
 78e:	83 c8 04 41 41 03 06 05 03 48 48 08 0a 05 06 43     ...AA....HH....C
 79e:	43 03 06 05 03 01 0c 0a 08 06 05 03 81 06 11 16     C...............
 7ae:	18 79 11 59 11 72 00 11 12 1b 19 78 00 0f 58 16     .y.Y.r.....x..X.
 7be:	94 05 13 13 13 13 54 13 51 11 16 53 4f 80 03 05     ......T.Q..SO...
 7ce:	6a 05 71 0a 4e 0c 0e 4a 45 4a 53 51 0e 0f b1 00     j.q.N..JEJSQ....
 7de:	05 4a 53 51 0e 0f 51 0c 0e 4a 45 4a 0e 0f 6c 0a     .JSQ..Q..JEJ..l.
 7ee:	8a 04 64 03 01 03 04 08 6b 0a 08 0a 0b 0f b2 40     ..d.....k......@
 7fe:	66 05 03 05 06 0a 6d 0c 0a 0c 0d 11 b4 80 02 86     f.....m.........
 80e:	66 08 6a 08 66 01 83 86 c1 86 88 8a 68 06 88 68     f.j.f.......h..h
 81e:	0a c8 81 61 01 86 61 01 83 63 03 c8 85 65 05 85     ...a..a..c...e..
 82e:	65 03 81 63 05 c6 05 0a 0f 0e 0f 11 12 11 12 14     e..c............
 83e:	96 05 06 06 0a 0b 0d 0b 0a 06 06 0a 0b 0d 0a 03     ................
 84e:	03 06 08 0a 08 06 03 03 0a 08 00 46 05 28 23 0b     ...........F.(#.
 85e:	0a 0d 0a 06 28 23 0b 0a 0d 0a 06 2b 26 04 96 56     ....(#.....+&..V
 86e:	18 d9 40 19 19 59 18 7b 59 58 56 91 51 12 d4 40     ..@..Y.{YXV.Q..@
 87e:	14 14 54 13 76 54 52 51 8f 4f 11 d2 40 12 12 52     ..T.vTRQ.O..@..R
 88e:	11 74 52 51 4f d1 40 4f 51 52 54 40 99 98 57 40     .tRQO.@OQRT@..W@
 89e:	96 56 18 d9 40 19 19 59 18 7b 59 58 56 91 51 12     .V..@..Y.{YXV.Q.
 8ae:	d4 40 14 14 54 13 76 54 52 51 8f 4f 11 d2 40 12     .@..T.vTRQ.O..@.
 8be:	12 52 11 74 52 51 4f cd 40 8f 4c ca 03 48 4d 4f     .R.tRQO.@.L..HMO
 8ce:	51 aa 40 0a 0c 4d 0f 4d 4a 00 4c 0d 4c 0a 48 4d     Q.@..M.MJ.L.L.HM
 8de:	4f 51 b2 91 ef 02 49 00 49 00 4c 00 90 00 ce 00     OQ....I.I.L.....
 8ee:	e9 00 49 00 49 00 47 00 8c 00 c9 c9 80 49 00 49     ..I.I.G......I.I
 8fe:	00 4c 00 90 00 ce 00 f5 40 53 00 53 00 50 00 8c     .L......@S.S.P..
 90e:	00 f5 f5 03 08 0d 00 0d 0f 00 0f 14 00 14 11 40     ...............@
 91e:	54 00 54 00 12 4f 03 45 4d 4c 4a 05 05 0d 0d 0c     T.T..O.EMLJ.....
 92e:	0c 0a 00 46 4d 4c 4a 06 06 0d 0d 0c 0c 0a 02 af     ...FMLJ.........
 93e:	11 00 72 00 6f 00 12 00 12 00 11 00 0f 00 71 00     ..r.o.........q.
 94e:	6a 00 b1 12 00 74 00 71 00 14 00 14 00 12 00 11     j....t.q........
 95e:	00 8f 02 48 45 48 ad b1 6f 11 52 8a 40 4a 4d 56     ...HEH..o.R.@JMV
 96e:	94 40 4f 51 52 91 40 4d 4f 51 af ad 8c 03 46 06     .@OQR.@MOQ....F.
 97e:	06 46 06 06 06 06 06 06 06 0a 01 01 46 06 06 46     .F..........F..F
 98e:	06 06 06 06 06 06 03 01 40 46 06 06 46 06 06 06     ........@F..F...
 99e:	06 06 06 06 0a 40 ad 4a 0d 0a 06 40 80 03 54 52     .....@.J...@..TR
 9ae:	51 0a 6a 4c 0d 4f 00 52 51 4f 08 68 4a 0c 4d 00     Q.jL.O.RQO.hJ.M.
 9be:	51 4f 4d 46 46 08 4a 00 4c 4c 0d 6f c8 02 47 40     QOMFF.J.LL.o..G@
 9ce:	4a 40 8c 80 47 40 4a 40 8c 80 47 40 4a 40 4c 40     J@..G@J@..G@J@L@
 9de:	4f 4f 4e 4e 4a 40 ec 80 07 48 40 4a 40 4c 40 48     OONNJ@...H@J@L@H
 9ee:	40 a7 85 80 07 48 40 4a 40 2c 2c 48 40 a7 85 80     @....H@J@,,H@...
 9fe:	07 48 40 4a 40 4c 40 48 40 47 40 45 40 43 40 42     .H@J@L@H@G@E@C@B
 a0e:	40 c3 c3 03 52 11 4f 0e 4d 0c 4b 0a 08 0a 0b 4a     @...R.O.M.K....J
 a1e:	08 8d 00 0d 0a 00 0a 0a 09 0a 12 00 0d 0d 00 0a     ................
 a2e:	0b 00 0b 0b 00 0d 8f 00 0b 08 00 08 08 07 08 11     ................
 a3e:	00 0f 0f 00 0b 0a 00 0a 0a 00 0b 8d 03 14 12 14     ................
 a4e:	12 51 4d 40 11 12 14 12 14 12 11 12 14 16 17 16     .QM@............
 a5e:	17 16 54 40 55 54 53 52 10 0f 0d 0f 50 40 10 0f     ..T@UTSR....P@..
 a6e:	0d 0f 50 4d 54 02 0e 00 10 00 91 11 00 13 00 51     ..PMT..........Q
 a7e:	10 00 0e 00 0c 00 8c 0e 00 10 00 90 0e 00 10 00     ................
 a8e:	71 00 73 00 51 10 00 0e 00 0c 00 8e 0e 00 0c 00     q.s.Q...........
 a9e:	8c 0e 00 10 00 91 11 00 13 00 51 10 00 0e 00 0c     ..........Q.....
 aae:	00 8c 0e 00 10 00 90 0e 00 10 00 71 00 73 00 51     ...........q.s.Q
 abe:	10 00 0e 00 0c 00 8e 0e 00 0c 00 8c 02 08 4a 08     ..............J.
 ace:	45 4d 4a a8 08 0a 08 0a 48 4d ac 40 06 48 06 43     EMJ.....HM.@.H.C
 ade:	4c 4a a8 08 0a 08 0a 48 4a a5 02 01 01 41 01 01     LJ.....HJ....A..
 aee:	41 01 01 06 48 4a 00 01 01 41 01 01 41 0a 0a 08     A...HJ...A..A...
 afe:	45 41 00 01 01 41 01 01 41 01 01 06 48 4a 00 06     EA...A..A...HJ..
 b0e:	0a 4d 0d 0d 0d 0b 0a 08 06 6a 06 02 d8 91 93 95     .M.......j......
 b1e:	96 d8 91 80 d1 da 96 98 9a 9c 1d 1c 1b 1a 19 18     ................
 b2e:	17 16 15 14 13 12 11 10 0f 0e 0d 0c 0b 0a 0b 0a     ................
 b3e:	0b 0a 0b 0a 0b 0a 0b 0a 0b 0a 0b 0a 03 51 11 11     .............Q..
 b4e:	11 11 11 51 4a 4d 51 4f 0f 0f 0f 0f 0f 0f 08 00     ...QJMQO........
 b5e:	4c 4f 51 11 11 11 11 11 11 13 14 16 00 54 51 0f     LOQ..........TQ.
 b6e:	0c 00 4a 00 4a 04 6d 51 53 16 74 51 4d 0a 07 07     ..J.J.mQS.tQM...
 b7e:	07 88 00 00 07 07 07 08 6b 0d 0d 0d 4d 02 08 00     ........k...M...
 b8e:	0d 00 0c 00 0d 00 0f 00 11 00 12 00 74 00 54 52     ............t.TR
 b9e:	74 00 54 52 74 00 54 52 54 56 52 54 d1 d1 40 08     t.TRt.TRTVRT..@.
 bae:	00 0d 00 0c 00 0d 00 0f 00 11 00 12 00 74 00 54     .............t.T
 bbe:	52 74 00 54 52 74 00 54 52 51 52 4f 51 cd 02 48     Rt.TRt.TRQROQ..H
 bce:	48 48 8d 4d d4 40 54 76 14 52 d4 d4 05 06 08 08     HH.M.@Tv.R......
 bde:	06 48 00 08 06 08 0a 08 06 05 06 06 05 46 00 06     .H...........F..
 bee:	05 06 08 06 45 00 03 05 05 03 45 00 03 05 06 05     ....E.....E.....
 bfe:	03 00 8b 02 48 8d 40 4c 8a 40 4d 4f 51 4f 4d 8c     ....H.@L.@MOQOM.
 c0e:	40 08 08 4a 4d 48 08 08 4a 4d 48 52 91 40 4f 8d     @..JMH..JMHR.@O.
 c1e:	03 41 03 05 03 05 07 08 07 08 0a 08 05 0a 0c 8d     .A..............
 c2e:	8c 04 07 07 07 03 00 0c 00 05 00 05 00 05 09 09     ................
 c3e:	0a 0c 0a 0a 0a 05 00 03 00 07 00 07 00 07 05 05     ................
 c4e:	07 05 02 51 05 00 05 00 05 00 05 00 05 00 4c 05     ...Q..........L.
 c5e:	00 05 00 05 00 05 00 05 00 4d 05 00 05 00 05 00     .........M......
 c6e:	05 00 05 00 4a 05 00 05 00 05 00 05 00 05 00 4c     ....J..........L
 c7e:	05 00 05 00 05 00 48 05 00 05 00 05 00 4a 05 00     ......H......J..
 c8e:	05 00 05 00 05 00 05 00 47 05 00 05 00 05 00 05     ........G.......
 c9e:	00 05 00 48 05 00 05 00 05 00 05 00 05 00 4a 05     ...H..........J.
 cae:	00 05 00 05 00 05 00 05 00 47 05 00 05 00 05 00     .........G......
 cbe:	48 05 00 05 00 05 00 45 03 0e 0b 80 0b 09 07 09     H......E........
 cce:	0b 4e 0b 4e 10 0b 80 0b 09 07 09 0b 4e 0b 4e 10     .N.N........N.N.
 cde:	0c 80 0c 0b 09 0b 0c 50 13 50 72 70 6e 6c 4b 49     .......P.PrpnlKI
 cee:	02 84 84 68 04 6b 08 84 84 68 04 6b 08 86 61 0c     ...h.k...h.k..a.
 cfe:	81 66 04 63 04 61 03 6b 01 63 0b 84 84 68 04 6b     .f.c.a.k.c...h.k
 d0e:	08 84 84 68 04 6b 08 86 86 86 68 06 84 88 c4 05     ...h.k....h.....
 d1e:	16 0d 11 16 18 11 0d 18 19 11 0d 19 13 0f 16 13     ................
 d2e:	11 0d 16 4d 11 0d 0a 08 08 0a 4a 02 48 8b 4d 6f     ...M......J.H.Mo
 d3e:	10 4f 8d 4a 66 08 4a 8b 48 68 06 48 8a 46 83 48     .O.Jf.J.Hh.H.F.H
 d4e:	8b 4d 6f 11 4f 8d 4a 66 08 4a 6b 0a 48 67 05 47     .Mo.O.Jf.Jk.Hg.G
 d5e:	88 04 74 11 11 4f 74 11 51 11 0f 74 51 51 0f 54     ..t..Ot.Q..tQQ.T
 d6e:	14 11 51 11 0f 52 4f 4f 0f 0d 51 4d 4d 0d 4b 8d     ..Q..ROO..QMM.K.

00000d7e <__ctors_end>:
 d7e:	11 24       	eor	r1, r1
 d80:	1f be       	out	0x3f, r1	; 63
 d82:	cf e5       	ldi	r28, 0x5F	; 95
 d84:	d2 e0       	ldi	r29, 0x02	; 2
 d86:	de bf       	out	0x3e, r29	; 62
 d88:	cd bf       	out	0x3d, r28	; 61

00000d8a <__do_copy_data>:
 d8a:	10 e0       	ldi	r17, 0x00	; 0
 d8c:	a0 e6       	ldi	r26, 0x60	; 96
 d8e:	b0 e0       	ldi	r27, 0x00	; 0
 d90:	ee e0       	ldi	r30, 0x0E	; 14
 d92:	ff e0       	ldi	r31, 0x0F	; 15
 d94:	02 c0       	rjmp	.+4      	; 0xd9a <.do_copy_data_start>

00000d96 <.do_copy_data_loop>:
 d96:	05 90       	lpm	r0, Z+
 d98:	0d 92       	st	X+, r0

00000d9a <.do_copy_data_start>:
 d9a:	a8 36       	cpi	r26, 0x68	; 104
 d9c:	b1 07       	cpc	r27, r17
 d9e:	d9 f7       	brne	.-10     	; 0xd96 <.do_copy_data_loop>

00000da0 <__do_clear_bss>:
 da0:	10 e0       	ldi	r17, 0x00	; 0
 da2:	a8 e6       	ldi	r26, 0x68	; 104
 da4:	b0 e0       	ldi	r27, 0x00	; 0
 da6:	01 c0       	rjmp	.+2      	; 0xdaa <.do_clear_bss_start>

00000da8 <.do_clear_bss_loop>:
 da8:	1d 92       	st	X+, r1

00000daa <.do_clear_bss_start>:
 daa:	a0 37       	cpi	r26, 0x70	; 112
 dac:	b1 07       	cpc	r27, r17
 dae:	e1 f7       	brne	.-8      	; 0xda8 <.do_clear_bss_loop>
 db0:	6c d0       	rcall	.+216    	; 0xe8a <main>
 db2:	ab c0       	rjmp	.+342    	; 0xf0a <_exit>

00000db4 <__bad_interrupt>:
 db4:	25 c9       	rjmp	.-3510   	; 0x0 <__vectors>

00000db6 <__vector_2>:
 db6:	1f 92       	push	r1
 db8:	0f 92       	push	r0
 dba:	0f b6       	in	r0, 0x3f	; 63
 dbc:	0f 92       	push	r0
 dbe:	11 24       	eor	r1, r1
 dc0:	0f 90       	pop	r0
 dc2:	0f be       	out	0x3f, r0	; 63
 dc4:	0f 90       	pop	r0
 dc6:	1f 90       	pop	r1
 dc8:	18 95       	reti

00000dca <__vector_1>:
 dca:	1f 92       	push	r1
 dcc:	0f 92       	push	r0
 dce:	0f b6       	in	r0, 0x3f	; 63
 dd0:	0f 92       	push	r0
 dd2:	11 24       	eor	r1, r1
 dd4:	0f 90       	pop	r0
 dd6:	0f be       	out	0x3f, r0	; 63
 dd8:	0f 90       	pop	r0
 dda:	1f 90       	pop	r1
 ddc:	18 95       	reti

00000dde <__vector_5>:
 dde:	1f 92       	push	r1
 de0:	0f 92       	push	r0
 de2:	0f b6       	in	r0, 0x3f	; 63
 de4:	0f 92       	push	r0
 de6:	11 24       	eor	r1, r1
 de8:	8f 93       	push	r24
 dea:	9f 93       	push	r25
 dec:	80 91 6f 00 	lds	r24, 0x006F
 df0:	90 e0       	ldi	r25, 0x00	; 0
 df2:	88 23       	and	r24, r24
 df4:	09 f4       	brne	.+2      	; 0xdf8 <__vector_5+0x1a>
 df6:	91 e0       	ldi	r25, 0x01	; 1
 df8:	90 93 6f 00 	sts	0x006F, r25
 dfc:	80 e8       	ldi	r24, 0x80	; 128
 dfe:	8e bd       	out	0x2e, r24	; 46
 e00:	8f ef       	ldi	r24, 0xFF	; 255
 e02:	80 93 6b 00 	sts	0x006B, r24
 e06:	84 e1       	ldi	r24, 0x14	; 20
 e08:	80 93 6e 00 	sts	0x006E, r24
 e0c:	9f 91       	pop	r25
 e0e:	8f 91       	pop	r24
 e10:	0f 90       	pop	r0
 e12:	0f be       	out	0x3f, r0	; 63
 e14:	0f 90       	pop	r0
 e16:	1f 90       	pop	r1
 e18:	18 95       	reti

00000e1a <__vector_8>:
 e1a:	1f 92       	push	r1
 e1c:	0f 92       	push	r0
 e1e:	0f b6       	in	r0, 0x3f	; 63
 e20:	0f 92       	push	r0
 e22:	11 24       	eor	r1, r1
 e24:	8f 93       	push	r24
 e26:	9f 93       	push	r25
 e28:	86 b1       	in	r24, 0x06	; 6
 e2a:	8f 6a       	ori	r24, 0xAF	; 175
 e2c:	86 b9       	out	0x06, r24	; 6
 e2e:	80 91 6d 00 	lds	r24, 0x006D
 e32:	81 50       	subi	r24, 0x01	; 1
 e34:	80 93 6d 00 	sts	0x006D, r24
 e38:	88 23       	and	r24, r24
 e3a:	c9 f4       	brne	.+50     	; 0xe6e <__vector_8+0x54>
 e3c:	8a e0       	ldi	r24, 0x0A	; 10
 e3e:	80 93 6d 00 	sts	0x006D, r24
 e42:	80 91 6b 00 	lds	r24, 0x006B
 e46:	88 23       	and	r24, r24
 e48:	19 f0       	breq	.+6      	; 0xe50 <__vector_8+0x36>
 e4a:	81 50       	subi	r24, 0x01	; 1
 e4c:	80 93 6b 00 	sts	0x006B, r24
 e50:	80 91 6e 00 	lds	r24, 0x006E
 e54:	88 23       	and	r24, r24
 e56:	11 f4       	brne	.+4      	; 0xe5c <__vector_8+0x42>
 e58:	1e bc       	out	0x2e, r1	; 46
 e5a:	09 c0       	rjmp	.+18     	; 0xe6e <__vector_8+0x54>
 e5c:	81 50       	subi	r24, 0x01	; 1
 e5e:	80 93 6e 00 	sts	0x006E, r24
 e62:	80 91 6b 00 	lds	r24, 0x006B
 e66:	90 e0       	ldi	r25, 0x00	; 0
 e68:	96 95       	lsr	r25
 e6a:	87 95       	ror	r24
 e6c:	8e bd       	out	0x2e, r24	; 46
 e6e:	9f 91       	pop	r25
 e70:	8f 91       	pop	r24
 e72:	0f 90       	pop	r0
 e74:	0f be       	out	0x3f, r0	; 63
 e76:	0f 90       	pop	r0
 e78:	1f 90       	pop	r1
 e7a:	18 95       	reti

00000e7c <tiefschlaf>:
 e7c:	80 e3       	ldi	r24, 0x30	; 48
 e7e:	85 bf       	out	0x35, r24	; 53
 e80:	80 e4       	ldi	r24, 0x40	; 64
 e82:	8a bf       	out	0x3a, r24	; 58
 e84:	8b bf       	out	0x3b, r24	; 59
 e86:	10 be       	out	0x30, r1	; 48
 e88:	08 95       	ret

00000e8a <main>:
 e8a:	a8 95       	wdr
 e8c:	8a e0       	ldi	r24, 0x0A	; 10
 e8e:	80 93 6d 00 	sts	0x006D, r24
 e92:	81 e2       	ldi	r24, 0x21	; 33
 e94:	87 b9       	out	0x07, r24	; 7
 e96:	82 e0       	ldi	r24, 0x02	; 2
 e98:	89 bf       	out	0x39, r24	; 57
 e9a:	8f ef       	ldi	r24, 0xFF	; 255
 e9c:	8b bd       	out	0x2b, r24	; 43
 e9e:	84 e0       	ldi	r24, 0x04	; 4
 ea0:	88 bb       	out	0x18, r24	; 24
 ea2:	87 b3       	in	r24, 0x17	; 23
 ea4:	83 60       	ori	r24, 0x03	; 3
 ea6:	87 bb       	out	0x17, r24	; 23
 ea8:	80 e4       	ldi	r24, 0x40	; 64
 eaa:	8b bf       	out	0x3b, r24	; 59
 eac:	80 91 6f 00 	lds	r24, 0x006F
 eb0:	90 e0       	ldi	r25, 0x00	; 0
 eb2:	88 23       	and	r24, r24
 eb4:	09 f4       	brne	.+2      	; 0xeb8 <main+0x2e>
 eb6:	91 e0       	ldi	r25, 0x01	; 1
 eb8:	90 93 6f 00 	sts	0x006F, r25
 ebc:	10 92 69 00 	sts	0x0069, r1
 ec0:	80 91 68 00 	lds	r24, 0x0068
 ec4:	80 68       	ori	r24, 0x80	; 128
 ec6:	80 93 68 00 	sts	0x0068, r24
 eca:	80 e2       	ldi	r24, 0x20	; 32
 ecc:	85 bf       	out	0x35, r24	; 53
 ece:	1b be       	out	0x3b, r1	; 59
 ed0:	80 e8       	ldi	r24, 0x80	; 128
 ed2:	8e bd       	out	0x2e, r24	; 46
 ed4:	81 e6       	ldi	r24, 0x61	; 97
 ed6:	80 bf       	out	0x30, r24	; 48
 ed8:	81 e0       	ldi	r24, 0x01	; 1
 eda:	83 bf       	out	0x33, r24	; 51
 edc:	8e e1       	ldi	r24, 0x1E	; 30
 ede:	80 93 6e 00 	sts	0x006E, r24
 ee2:	84 e0       	ldi	r24, 0x04	; 4
 ee4:	80 93 6a 00 	sts	0x006A, r24
 ee8:	8f ef       	ldi	r24, 0xFF	; 255
 eea:	80 93 6b 00 	sts	0x006B, r24
 eee:	47 9a       	sbi	0x08, 7	; 8
 ef0:	86 b1       	in	r24, 0x06	; 6
 ef2:	8f 6a       	ori	r24, 0xAF	; 175
 ef4:	86 b9       	out	0x06, r24	; 6
 ef6:	78 94       	sei
 ef8:	36 9a       	sbi	0x06, 6	; 6
 efa:	80 91 6f 00 	lds	r24, 0x006F
 efe:	88 23       	and	r24, r24
 f00:	11 f0       	breq	.+4      	; 0xf06 <main+0x7c>
 f02:	c0 9a       	sbi	0x18, 0	; 24
 f04:	fa cf       	rjmp	.-12     	; 0xefa <main+0x70>
 f06:	c0 98       	cbi	0x18, 0	; 24
 f08:	f8 cf       	rjmp	.-16     	; 0xefa <main+0x70>

00000f0a <_exit>:
 f0a:	f8 94       	cli

00000f0c <__stop_program>:
 f0c:	ff cf       	rjmp	.-2      	; 0xf0c <__stop_program>
