
bma020-tiny2313.elf:     file format elf32-avr

Sections:
Idx Name          Size      VMA       LMA       File off  Algn
  0 .text         000006fe  00000000  00000000  00000094  2**1
                  CONTENTS, ALLOC, LOAD, READONLY, CODE
  1 .data         00000006  00800060  000006fe  00000792  2**0
                  CONTENTS, ALLOC, LOAD, DATA
  2 .bss          0000000e  00800066  00800066  00000798  2**0
                  ALLOC
  3 .stab         000006b4  00000000  00000000  00000798  2**2
                  CONTENTS, READONLY, DEBUGGING
  4 .stabstr      00000054  00000000  00000000  00000e4c  2**0
                  CONTENTS, READONLY, DEBUGGING

Disassembly of section .text:

00000000 <__vectors>:
   0:	12 c0       	rjmp	.+36     	; 0x26 <__ctors_end>
   2:	2a c0       	rjmp	.+84     	; 0x58 <__bad_interrupt>
   4:	29 c0       	rjmp	.+82     	; 0x58 <__bad_interrupt>
   6:	28 c0       	rjmp	.+80     	; 0x58 <__bad_interrupt>
   8:	27 c0       	rjmp	.+78     	; 0x58 <__bad_interrupt>
   a:	26 c0       	rjmp	.+76     	; 0x58 <__bad_interrupt>
   c:	25 c0       	rjmp	.+74     	; 0x58 <__bad_interrupt>
   e:	24 c0       	rjmp	.+72     	; 0x58 <__bad_interrupt>
  10:	23 c0       	rjmp	.+70     	; 0x58 <__bad_interrupt>
  12:	22 c0       	rjmp	.+68     	; 0x58 <__bad_interrupt>
  14:	21 c0       	rjmp	.+66     	; 0x58 <__bad_interrupt>
  16:	20 c0       	rjmp	.+64     	; 0x58 <__bad_interrupt>
  18:	1f c0       	rjmp	.+62     	; 0x58 <__bad_interrupt>
  1a:	1e c0       	rjmp	.+60     	; 0x58 <__bad_interrupt>
  1c:	1d c0       	rjmp	.+58     	; 0x58 <__bad_interrupt>
  1e:	1c c0       	rjmp	.+56     	; 0x58 <__bad_interrupt>
  20:	1b c0       	rjmp	.+54     	; 0x58 <__bad_interrupt>
  22:	1a c0       	rjmp	.+52     	; 0x58 <__bad_interrupt>
  24:	61 c0       	rjmp	.+194    	; 0xe8 <__vector_18>

00000026 <__ctors_end>:
  26:	11 24       	eor	r1, r1
  28:	1f be       	out	0x3f, r1	; 63
  2a:	cf ed       	ldi	r28, 0xDF	; 223
  2c:	cd bf       	out	0x3d, r28	; 61

0000002e <__do_copy_data>:
  2e:	10 e0       	ldi	r17, 0x00	; 0
  30:	a0 e6       	ldi	r26, 0x60	; 96
  32:	b0 e0       	ldi	r27, 0x00	; 0
  34:	ee ef       	ldi	r30, 0xFE	; 254
  36:	f6 e0       	ldi	r31, 0x06	; 6
  38:	02 c0       	rjmp	.+4      	; 0x3e <.do_copy_data_start>

0000003a <.do_copy_data_loop>:
  3a:	05 90       	lpm	r0, Z+
  3c:	0d 92       	st	X+, r0

0000003e <.do_copy_data_start>:
  3e:	a6 36       	cpi	r26, 0x66	; 102
  40:	b1 07       	cpc	r27, r17
  42:	d9 f7       	brne	.-10     	; 0x3a <.do_copy_data_loop>

00000044 <__do_clear_bss>:
  44:	10 e0       	ldi	r17, 0x00	; 0
  46:	a6 e6       	ldi	r26, 0x66	; 102
  48:	b0 e0       	ldi	r27, 0x00	; 0
  4a:	01 c0       	rjmp	.+2      	; 0x4e <.do_clear_bss_start>

0000004c <.do_clear_bss_loop>:
  4c:	1d 92       	st	X+, r1

0000004e <.do_clear_bss_start>:
  4e:	a4 37       	cpi	r26, 0x74	; 116
  50:	b1 07       	cpc	r27, r17
  52:	e1 f7       	brne	.-8      	; 0x4c <.do_clear_bss_loop>
  54:	86 d1       	rcall	.+780    	; 0x362 <main>
  56:	51 c3       	rjmp	.+1698   	; 0x6fa <_exit>

00000058 <__bad_interrupt>:
  58:	d3 cf       	rjmp	.-90     	; 0x0 <__vectors>

0000005a <BMA_trans>:
  5a:	93 9a       	sbi	0x12, 3	; 18
  5c:	92 98       	cbi	0x12, 2	; 18
  5e:	93 98       	cbi	0x12, 3	; 18
  60:	40 e0       	ldi	r20, 0x00	; 0
  62:	50 e0       	ldi	r21, 0x00	; 0
  64:	30 e0       	ldi	r19, 0x00	; 0
  66:	61 e0       	ldi	r22, 0x01	; 1
  68:	97 ff       	sbrs	r25, 7
  6a:	02 c0       	rjmp	.+4      	; 0x70 <BMA_trans+0x16>
  6c:	94 9a       	sbi	0x12, 4	; 18
  6e:	01 c0       	rjmp	.+2      	; 0x72 <BMA_trans+0x18>
  70:	94 98       	cbi	0x12, 4	; 18
  72:	26 2f       	mov	r18, r22
  74:	2a 95       	dec	r18
  76:	f1 f7       	brne	.-4      	; 0x74 <BMA_trans+0x1a>
  78:	44 0f       	add	r20, r20
  7a:	55 1f       	adc	r21, r21
  7c:	85 99       	sbic	0x10, 5	; 16
  7e:	41 60       	ori	r20, 0x01	; 1
  80:	93 9a       	sbi	0x12, 3	; 18
  82:	26 2f       	mov	r18, r22
  84:	2a 95       	dec	r18
  86:	f1 f7       	brne	.-4      	; 0x84 <BMA_trans+0x2a>
  88:	93 98       	cbi	0x12, 3	; 18
  8a:	3f 5f       	subi	r19, 0xFF	; 255
  8c:	30 31       	cpi	r19, 0x10	; 16
  8e:	19 f0       	breq	.+6      	; 0x96 <BMA_trans+0x3c>
  90:	88 0f       	add	r24, r24
  92:	99 1f       	adc	r25, r25
  94:	e9 cf       	rjmp	.-46     	; 0x68 <BMA_trans+0xe>
  96:	81 e0       	ldi	r24, 0x01	; 1
  98:	8a 95       	dec	r24
  9a:	f1 f7       	brne	.-4      	; 0x98 <BMA_trans+0x3e>
  9c:	92 9a       	sbi	0x12, 2	; 18
  9e:	ca 01       	movw	r24, r20
  a0:	08 95       	ret

000000a2 <BMA_uninit>:
  a2:	89 2b       	or	r24, r25
  a4:	19 f0       	breq	.+6      	; 0xac <BMA_uninit+0xa>
  a6:	81 e0       	ldi	r24, 0x01	; 1
  a8:	9a e0       	ldi	r25, 0x0A	; 10
  aa:	d7 df       	rcall	.-82     	; 0x5a <BMA_trans>
  ac:	8d e3       	ldi	r24, 0x3D	; 61
  ae:	81 bb       	out	0x11, r24	; 17
  b0:	90 98       	cbi	0x12, 0	; 18
  b2:	94 9a       	sbi	0x12, 4	; 18
  b4:	93 9a       	sbi	0x12, 3	; 18
  b6:	92 9a       	sbi	0x12, 2	; 18
  b8:	95 9a       	sbi	0x12, 5	; 18
  ba:	08 95       	ret

000000bc <BMA_init>:
  bc:	8d e1       	ldi	r24, 0x1D	; 29
  be:	81 bb       	out	0x11, r24	; 17
  c0:	92 9a       	sbi	0x12, 2	; 18
  c2:	90 9a       	sbi	0x12, 0	; 18
  c4:	94 98       	cbi	0x12, 4	; 18
  c6:	93 98       	cbi	0x12, 3	; 18
  c8:	95 98       	cbi	0x12, 5	; 18
  ca:	80 e0       	ldi	r24, 0x00	; 0
  cc:	9a e0       	ldi	r25, 0x0A	; 10
  ce:	c5 df       	rcall	.-118    	; 0x5a <BMA_trans>
  d0:	08 95       	ret

000000d2 <BMA_init2>:
  d2:	80 e8       	ldi	r24, 0x80	; 128
  d4:	95 e1       	ldi	r25, 0x15	; 21
  d6:	c1 df       	rcall	.-126    	; 0x5a <BMA_trans>
  d8:	80 e0       	ldi	r24, 0x00	; 0
  da:	94 e9       	ldi	r25, 0x94	; 148
  dc:	be df       	rcall	.-132    	; 0x5a <BMA_trans>
  de:	80 7e       	andi	r24, 0xE0	; 224
  e0:	90 70       	andi	r25, 0x00	; 0
  e2:	94 61       	ori	r25, 0x14	; 20
  e4:	ba df       	rcall	.-140    	; 0x5a <BMA_trans>
  e6:	08 95       	ret

000000e8 <__vector_18>:
  e8:	1f 92       	push	r1
  ea:	0f 92       	push	r0
  ec:	0f b6       	in	r0, 0x3f	; 63
  ee:	0f 92       	push	r0
  f0:	11 24       	eor	r1, r1
  f2:	8f 93       	push	r24
  f4:	9f 93       	push	r25
  f6:	f8 94       	cli
  f8:	81 b5       	in	r24, 0x21	; 33
  fa:	80 64       	ori	r24, 0x40	; 64
  fc:	81 bd       	out	0x21, r24	; 33
  fe:	80 91 66 00 	lds	r24, 0x0066
 102:	90 91 67 00 	lds	r25, 0x0067
 106:	01 96       	adiw	r24, 0x01	; 1
 108:	90 93 67 00 	sts	0x0067, r25
 10c:	80 93 66 00 	sts	0x0066, r24
 110:	78 94       	sei
 112:	9f 91       	pop	r25
 114:	8f 91       	pop	r24
 116:	0f 90       	pop	r0
 118:	0f be       	out	0x3f, r0	; 63
 11a:	0f 90       	pop	r0
 11c:	1f 90       	pop	r1
 11e:	18 95       	reti

00000120 <send>:
 120:	cf 92       	push	r12
 122:	ef 92       	push	r14
 124:	0f 93       	push	r16
 126:	1f 93       	push	r17
 128:	df 93       	push	r29
 12a:	cf 93       	push	r28
 12c:	cd b7       	in	r28, 0x3d	; 61
 12e:	de b7       	in	r29, 0x3e	; 62
 130:	60 97       	sbiw	r28, 0x10	; 16
 132:	0f b6       	in	r0, 0x3f	; 63
 134:	f8 94       	cli
 136:	de bf       	out	0x3e, r29	; 62
 138:	0f be       	out	0x3f, r0	; 63
 13a:	cd bf       	out	0x3d, r28	; 61
 13c:	87 e6       	ldi	r24, 0x67	; 103
 13e:	89 83       	std	Y+1, r24	; 0x01
 140:	40 91 68 00 	lds	r20, 0x0068
 144:	50 91 69 00 	lds	r21, 0x0069
 148:	5b 83       	std	Y+3, r21	; 0x03
 14a:	4a 83       	std	Y+2, r20	; 0x02
 14c:	20 91 6c 00 	lds	r18, 0x006C
 150:	30 91 6d 00 	lds	r19, 0x006D
 154:	3d 83       	std	Y+5, r19	; 0x05
 156:	2c 83       	std	Y+4, r18	; 0x04
 158:	80 91 6a 00 	lds	r24, 0x006A
 15c:	90 91 6b 00 	lds	r25, 0x006B
 160:	9f 83       	std	Y+7, r25	; 0x07
 162:	8e 83       	std	Y+6, r24	; 0x06
 164:	18 86       	std	Y+8, r1	; 0x08
 166:	5a 87       	std	Y+10, r21	; 0x0a
 168:	49 87       	std	Y+9, r20	; 0x09
 16a:	3c 87       	std	Y+12, r19	; 0x0c
 16c:	2b 87       	std	Y+11, r18	; 0x0b
 16e:	9e 87       	std	Y+14, r25	; 0x0e
 170:	8d 87       	std	Y+13, r24	; 0x0d
 172:	1f 86       	std	Y+15, r1	; 0x0f
 174:	98 d1       	rcall	.+816    	; 0x4a6 <rf12_init>
 176:	8b e7       	ldi	r24, 0x7B	; 123
 178:	96 e0       	ldi	r25, 0x06	; 6
 17a:	64 e0       	ldi	r22, 0x04	; 4
 17c:	41 e0       	ldi	r20, 0x01	; 1
 17e:	24 e0       	ldi	r18, 0x04	; 4
 180:	0a e9       	ldi	r16, 0x9A	; 154
 182:	12 e0       	ldi	r17, 0x02	; 2
 184:	ee 24       	eor	r14, r14
 186:	36 e0       	ldi	r19, 0x06	; 6
 188:	c3 2e       	mov	r12, r19
 18a:	a3 d1       	rcall	.+838    	; 0x4d2 <rf12_setall>
 18c:	ce 01       	movw	r24, r28
 18e:	01 96       	adiw	r24, 0x01	; 1
 190:	6f e0       	ldi	r22, 0x0F	; 15
 192:	51 d2       	rcall	.+1186   	; 0x636 <rf12_txdata>
 194:	81 e0       	ldi	r24, 0x01	; 1
 196:	92 e8       	ldi	r25, 0x82	; 130
 198:	6a d1       	rcall	.+724    	; 0x46e <rf12_trans>
 19a:	80 e0       	ldi	r24, 0x00	; 0
 19c:	90 e0       	ldi	r25, 0x00	; 0
 19e:	67 d1       	rcall	.+718    	; 0x46e <rf12_trans>
 1a0:	60 96       	adiw	r28, 0x10	; 16
 1a2:	0f b6       	in	r0, 0x3f	; 63
 1a4:	f8 94       	cli
 1a6:	de bf       	out	0x3e, r29	; 62
 1a8:	0f be       	out	0x3f, r0	; 63
 1aa:	cd bf       	out	0x3d, r28	; 61
 1ac:	cf 91       	pop	r28
 1ae:	df 91       	pop	r29
 1b0:	1f 91       	pop	r17
 1b2:	0f 91       	pop	r16
 1b4:	ef 90       	pop	r14
 1b6:	cf 90       	pop	r12
 1b8:	08 95       	ret

000001ba <measure>:
 1ba:	2f 92       	push	r2
 1bc:	3f 92       	push	r3
 1be:	4f 92       	push	r4
 1c0:	5f 92       	push	r5
 1c2:	6f 92       	push	r6
 1c4:	7f 92       	push	r7
 1c6:	8f 92       	push	r8
 1c8:	9f 92       	push	r9
 1ca:	af 92       	push	r10
 1cc:	bf 92       	push	r11
 1ce:	cf 92       	push	r12
 1d0:	df 92       	push	r13
 1d2:	ef 92       	push	r14
 1d4:	ff 92       	push	r15
 1d6:	0f 93       	push	r16
 1d8:	1f 93       	push	r17
 1da:	df 93       	push	r29
 1dc:	cf 93       	push	r28
 1de:	00 d0       	rcall	.+0      	; 0x1e0 <measure+0x26>
 1e0:	00 d0       	rcall	.+0      	; 0x1e2 <measure+0x28>
 1e2:	cd b7       	in	r28, 0x3d	; 61
 1e4:	de b7       	in	r29, 0x3e	; 62
 1e6:	aa 24       	eor	r10, r10
 1e8:	bb 24       	eor	r11, r11
 1ea:	65 01       	movw	r12, r10
 1ec:	66 24       	eor	r6, r6
 1ee:	77 24       	eor	r7, r7
 1f0:	43 01       	movw	r8, r6
 1f2:	22 24       	eor	r2, r2
 1f4:	33 24       	eor	r3, r3
 1f6:	21 01       	movw	r4, r2
 1f8:	1a 82       	std	Y+2, r1	; 0x02
 1fa:	19 82       	std	Y+1, r1	; 0x01
 1fc:	80 e0       	ldi	r24, 0x00	; 0
 1fe:	92 e8       	ldi	r25, 0x82	; 130
 200:	2c df       	rcall	.-424    	; 0x5a <BMA_trans>
 202:	8c 01       	movw	r16, r24
 204:	80 e0       	ldi	r24, 0x00	; 0
 206:	93 e8       	ldi	r25, 0x83	; 131
 208:	28 df       	rcall	.-432    	; 0x5a <BMA_trans>
 20a:	e8 2e       	mov	r14, r24
 20c:	ff 24       	eor	r15, r15
 20e:	ee 0c       	add	r14, r14
 210:	ff 1c       	adc	r15, r15
 212:	ee 0c       	add	r14, r14
 214:	ff 1c       	adc	r15, r15
 216:	10 70       	andi	r17, 0x00	; 0
 218:	b6 e0       	ldi	r27, 0x06	; 6
 21a:	16 95       	lsr	r17
 21c:	07 95       	ror	r16
 21e:	ba 95       	dec	r27
 220:	e1 f7       	brne	.-8      	; 0x21a <measure+0x60>
 222:	e0 2a       	or	r14, r16
 224:	f1 2a       	or	r15, r17
 226:	80 e0       	ldi	r24, 0x00	; 0
 228:	94 e8       	ldi	r25, 0x84	; 132
 22a:	17 df       	rcall	.-466    	; 0x5a <BMA_trans>
 22c:	8c 01       	movw	r16, r24
 22e:	80 e0       	ldi	r24, 0x00	; 0
 230:	95 e8       	ldi	r25, 0x85	; 133
 232:	13 df       	rcall	.-474    	; 0x5a <BMA_trans>
 234:	28 2f       	mov	r18, r24
 236:	30 e0       	ldi	r19, 0x00	; 0
 238:	22 0f       	add	r18, r18
 23a:	33 1f       	adc	r19, r19
 23c:	22 0f       	add	r18, r18
 23e:	33 1f       	adc	r19, r19
 240:	10 70       	andi	r17, 0x00	; 0
 242:	f6 e0       	ldi	r31, 0x06	; 6
 244:	16 95       	lsr	r17
 246:	07 95       	ror	r16
 248:	fa 95       	dec	r31
 24a:	e1 f7       	brne	.-8      	; 0x244 <measure+0x8a>
 24c:	20 2b       	or	r18, r16
 24e:	31 2b       	or	r19, r17
 250:	3c 83       	std	Y+4, r19	; 0x04
 252:	2b 83       	std	Y+3, r18	; 0x03
 254:	80 e0       	ldi	r24, 0x00	; 0
 256:	96 e8       	ldi	r25, 0x86	; 134
 258:	00 df       	rcall	.-512    	; 0x5a <BMA_trans>
 25a:	8c 01       	movw	r16, r24
 25c:	80 e0       	ldi	r24, 0x00	; 0
 25e:	97 e8       	ldi	r25, 0x87	; 135
 260:	fc de       	rcall	.-520    	; 0x5a <BMA_trans>
 262:	28 2f       	mov	r18, r24
 264:	30 e0       	ldi	r19, 0x00	; 0
 266:	22 0f       	add	r18, r18
 268:	33 1f       	adc	r19, r19
 26a:	22 0f       	add	r18, r18
 26c:	33 1f       	adc	r19, r19
 26e:	10 70       	andi	r17, 0x00	; 0
 270:	76 e0       	ldi	r23, 0x06	; 6
 272:	16 95       	lsr	r17
 274:	07 95       	ror	r16
 276:	7a 95       	dec	r23
 278:	e1 f7       	brne	.-8      	; 0x272 <measure+0xb8>
 27a:	20 2b       	or	r18, r16
 27c:	31 2b       	or	r19, r17
 27e:	f1 fe       	sbrs	r15, 1
 280:	04 c0       	rjmp	.+8      	; 0x28a <measure+0xd0>
 282:	40 e0       	ldi	r20, 0x00	; 0
 284:	5e ef       	ldi	r21, 0xFE	; 254
 286:	e4 2a       	or	r14, r20
 288:	f5 2a       	or	r15, r21
 28a:	8b 81       	ldd	r24, Y+3	; 0x03
 28c:	9c 81       	ldd	r25, Y+4	; 0x04
 28e:	91 ff       	sbrs	r25, 1
 290:	03 c0       	rjmp	.+6      	; 0x298 <measure+0xde>
 292:	9e 6f       	ori	r25, 0xFE	; 254
 294:	9c 83       	std	Y+4, r25	; 0x04
 296:	8b 83       	std	Y+3, r24	; 0x03
 298:	31 fd       	sbrc	r19, 1
 29a:	3e 6f       	ori	r19, 0xFE	; 254
 29c:	c7 01       	movw	r24, r14
 29e:	aa 27       	eor	r26, r26
 2a0:	97 fd       	sbrc	r25, 7
 2a2:	a0 95       	com	r26
 2a4:	ba 2f       	mov	r27, r26
 2a6:	a8 0e       	add	r10, r24
 2a8:	b9 1e       	adc	r11, r25
 2aa:	ca 1e       	adc	r12, r26
 2ac:	db 1e       	adc	r13, r27
 2ae:	eb 81       	ldd	r30, Y+3	; 0x03
 2b0:	fc 81       	ldd	r31, Y+4	; 0x04
 2b2:	cf 01       	movw	r24, r30
 2b4:	aa 27       	eor	r26, r26
 2b6:	97 fd       	sbrc	r25, 7
 2b8:	a0 95       	com	r26
 2ba:	ba 2f       	mov	r27, r26
 2bc:	68 0e       	add	r6, r24
 2be:	79 1e       	adc	r7, r25
 2c0:	8a 1e       	adc	r8, r26
 2c2:	9b 1e       	adc	r9, r27
 2c4:	c9 01       	movw	r24, r18
 2c6:	aa 27       	eor	r26, r26
 2c8:	97 fd       	sbrc	r25, 7
 2ca:	a0 95       	com	r26
 2cc:	ba 2f       	mov	r27, r26
 2ce:	28 0e       	add	r2, r24
 2d0:	39 1e       	adc	r3, r25
 2d2:	4a 1e       	adc	r4, r26
 2d4:	5b 1e       	adc	r5, r27
 2d6:	29 81       	ldd	r18, Y+1	; 0x01
 2d8:	3a 81       	ldd	r19, Y+2	; 0x02
 2da:	2f 5f       	subi	r18, 0xFF	; 255
 2dc:	3f 4f       	sbci	r19, 0xFF	; 255
 2de:	3a 83       	std	Y+2, r19	; 0x02
 2e0:	29 83       	std	Y+1, r18	; 0x01
 2e2:	20 31       	cpi	r18, 0x10	; 16
 2e4:	31 05       	cpc	r19, r1
 2e6:	09 f0       	breq	.+2      	; 0x2ea <measure+0x130>
 2e8:	89 cf       	rjmp	.-238    	; 0x1fc <measure+0x42>
 2ea:	64 e0       	ldi	r22, 0x04	; 4
 2ec:	d5 94       	asr	r13
 2ee:	c7 94       	ror	r12
 2f0:	b7 94       	ror	r11
 2f2:	a7 94       	ror	r10
 2f4:	6a 95       	dec	r22
 2f6:	d1 f7       	brne	.-12     	; 0x2ec <measure+0x132>
 2f8:	c5 01       	movw	r24, r10
 2fa:	4e 97       	sbiw	r24, 0x1e	; 30
 2fc:	90 93 69 00 	sts	0x0069, r25
 300:	80 93 68 00 	sts	0x0068, r24
 304:	54 e0       	ldi	r21, 0x04	; 4
 306:	95 94       	asr	r9
 308:	87 94       	ror	r8
 30a:	77 94       	ror	r7
 30c:	67 94       	ror	r6
 30e:	5a 95       	dec	r21
 310:	d1 f7       	brne	.-12     	; 0x306 <measure+0x14c>
 312:	70 92 6d 00 	sts	0x006D, r7
 316:	60 92 6c 00 	sts	0x006C, r6
 31a:	44 e0       	ldi	r20, 0x04	; 4
 31c:	55 94       	asr	r5
 31e:	47 94       	ror	r4
 320:	37 94       	ror	r3
 322:	27 94       	ror	r2
 324:	4a 95       	dec	r20
 326:	d1 f7       	brne	.-12     	; 0x31c <measure+0x162>
 328:	c1 01       	movw	r24, r2
 32a:	06 96       	adiw	r24, 0x06	; 6
 32c:	90 93 6b 00 	sts	0x006B, r25
 330:	80 93 6a 00 	sts	0x006A, r24
 334:	0f 90       	pop	r0
 336:	0f 90       	pop	r0
 338:	0f 90       	pop	r0
 33a:	0f 90       	pop	r0
 33c:	cf 91       	pop	r28
 33e:	df 91       	pop	r29
 340:	1f 91       	pop	r17
 342:	0f 91       	pop	r16
 344:	ff 90       	pop	r15
 346:	ef 90       	pop	r14
 348:	df 90       	pop	r13
 34a:	cf 90       	pop	r12
 34c:	bf 90       	pop	r11
 34e:	af 90       	pop	r10
 350:	9f 90       	pop	r9
 352:	8f 90       	pop	r8
 354:	7f 90       	pop	r7
 356:	6f 90       	pop	r6
 358:	5f 90       	pop	r5
 35a:	4f 90       	pop	r4
 35c:	3f 90       	pop	r3
 35e:	2f 90       	pop	r2
 360:	08 95       	ret

00000362 <main>:
 362:	cf 92       	push	r12
 364:	df 92       	push	r13
 366:	ef 92       	push	r14
 368:	ff 92       	push	r15
 36a:	0f 93       	push	r16
 36c:	1f 93       	push	r17
 36e:	cf 93       	push	r28
 370:	df 93       	push	r29
 372:	80 e0       	ldi	r24, 0x00	; 0
 374:	90 e0       	ldi	r25, 0x00	; 0
 376:	95 de       	rcall	.-726    	; 0xa2 <BMA_uninit>
 378:	10 92 6f 00 	sts	0x006F, r1
 37c:	10 92 6e 00 	sts	0x006E, r1
 380:	80 e6       	ldi	r24, 0x60	; 96
 382:	90 e0       	ldi	r25, 0x00	; 0
 384:	6a d1       	rcall	.+724    	; 0x65a <rf12_preinit>
 386:	f8 94       	cli
 388:	a8 95       	wdr
 38a:	81 b5       	in	r24, 0x21	; 33
 38c:	80 64       	ori	r24, 0x40	; 64
 38e:	81 bd       	out	0x21, r24	; 33
 390:	78 94       	sei
 392:	c2 e0       	ldi	r28, 0x02	; 2
 394:	d0 e0       	ldi	r29, 0x00	; 0
 396:	25 e0       	ldi	r18, 0x05	; 5
 398:	c2 2e       	mov	r12, r18
 39a:	d1 2c       	mov	r13, r1
 39c:	94 e0       	ldi	r25, 0x04	; 4
 39e:	e9 2e       	mov	r14, r25
 3a0:	f1 2c       	mov	r15, r1
 3a2:	03 e0       	ldi	r16, 0x03	; 3
 3a4:	10 e0       	ldi	r17, 0x00	; 0
 3a6:	80 91 6e 00 	lds	r24, 0x006E
 3aa:	90 91 6f 00 	lds	r25, 0x006F
 3ae:	89 2b       	or	r24, r25
 3b0:	59 f4       	brne	.+22     	; 0x3c8 <main+0x66>
 3b2:	80 91 66 00 	lds	r24, 0x0066
 3b6:	90 91 67 00 	lds	r25, 0x0067
 3ba:	84 36       	cpi	r24, 0x64	; 100
 3bc:	91 05       	cpc	r25, r1
 3be:	20 f0       	brcs	.+8      	; 0x3c8 <main+0x66>
 3c0:	d0 93 6f 00 	sts	0x006F, r29
 3c4:	c0 93 6e 00 	sts	0x006E, r28
 3c8:	80 91 6e 00 	lds	r24, 0x006E
 3cc:	90 91 6f 00 	lds	r25, 0x006F
 3d0:	82 30       	cpi	r24, 0x02	; 2
 3d2:	91 05       	cpc	r25, r1
 3d4:	31 f4       	brne	.+12     	; 0x3e2 <main+0x80>
 3d6:	72 de       	rcall	.-796    	; 0xbc <BMA_init>
 3d8:	10 93 6f 00 	sts	0x006F, r17
 3dc:	00 93 6e 00 	sts	0x006E, r16
 3e0:	13 c0       	rjmp	.+38     	; 0x408 <main+0xa6>
 3e2:	83 30       	cpi	r24, 0x03	; 3
 3e4:	91 05       	cpc	r25, r1
 3e6:	31 f4       	brne	.+12     	; 0x3f4 <main+0x92>
 3e8:	74 de       	rcall	.-792    	; 0xd2 <BMA_init2>
 3ea:	f0 92 6f 00 	sts	0x006F, r15
 3ee:	e0 92 6e 00 	sts	0x006E, r14
 3f2:	0a c0       	rjmp	.+20     	; 0x408 <main+0xa6>
 3f4:	04 97       	sbiw	r24, 0x04	; 4
 3f6:	41 f4       	brne	.+16     	; 0x408 <main+0xa6>
 3f8:	e0 de       	rcall	.-576    	; 0x1ba <measure>
 3fa:	81 e0       	ldi	r24, 0x01	; 1
 3fc:	90 e0       	ldi	r25, 0x00	; 0
 3fe:	51 de       	rcall	.-862    	; 0xa2 <BMA_uninit>
 400:	d0 92 6f 00 	sts	0x006F, r13
 404:	c0 92 6e 00 	sts	0x006E, r12
 408:	80 91 6e 00 	lds	r24, 0x006E
 40c:	90 91 6f 00 	lds	r25, 0x006F
 410:	05 97       	sbiw	r24, 0x05	; 5
 412:	59 f4       	brne	.+22     	; 0x42a <main+0xc8>
 414:	85 de       	rcall	.-758    	; 0x120 <send>
 416:	81 e0       	ldi	r24, 0x01	; 1
 418:	90 e0       	ldi	r25, 0x00	; 0
 41a:	90 93 6f 00 	sts	0x006F, r25
 41e:	80 93 6e 00 	sts	0x006E, r24
 422:	10 92 67 00 	sts	0x0067, r1
 426:	10 92 66 00 	sts	0x0066, r1
 42a:	80 91 6e 00 	lds	r24, 0x006E
 42e:	90 91 6f 00 	lds	r25, 0x006F
 432:	01 97       	sbiw	r24, 0x01	; 1
 434:	79 f4       	brne	.+30     	; 0x454 <main+0xf2>
 436:	80 91 66 00 	lds	r24, 0x0066
 43a:	90 91 67 00 	lds	r25, 0x0067
 43e:	88 58       	subi	r24, 0x88	; 136
 440:	93 41       	sbci	r25, 0x13	; 19
 442:	40 f0       	brcs	.+16     	; 0x454 <main+0xf2>
 444:	d0 93 6f 00 	sts	0x006F, r29
 448:	c0 93 6e 00 	sts	0x006E, r28
 44c:	10 92 67 00 	sts	0x0067, r1
 450:	10 92 66 00 	sts	0x0066, r1
 454:	a8 95       	wdr
 456:	85 b7       	in	r24, 0x35	; 53
 458:	80 65       	ori	r24, 0x50	; 80
 45a:	85 bf       	out	0x35, r24	; 53
 45c:	85 b7       	in	r24, 0x35	; 53
 45e:	80 62       	ori	r24, 0x20	; 32
 460:	85 bf       	out	0x35, r24	; 53
 462:	88 95       	sleep
 464:	85 b7       	in	r24, 0x35	; 53
 466:	8f 7d       	andi	r24, 0xDF	; 223
 468:	85 bf       	out	0x35, r24	; 53
 46a:	a8 95       	wdr
 46c:	9c cf       	rjmp	.-200    	; 0x3a6 <main+0x44>

0000046e <rf12_trans>:
 46e:	c0 98       	cbi	0x18, 0	; 24
 470:	20 e0       	ldi	r18, 0x00	; 0
 472:	30 e0       	ldi	r19, 0x00	; 0
 474:	50 e0       	ldi	r21, 0x00	; 0
 476:	61 e0       	ldi	r22, 0x01	; 1
 478:	97 ff       	sbrs	r25, 7
 47a:	02 c0       	rjmp	.+4      	; 0x480 <rf12_trans+0x12>
 47c:	c2 9a       	sbi	0x18, 2	; 24
 47e:	01 c0       	rjmp	.+2      	; 0x482 <rf12_trans+0x14>
 480:	c2 98       	cbi	0x18, 2	; 24
 482:	22 0f       	add	r18, r18
 484:	33 1f       	adc	r19, r19
 486:	b3 99       	sbic	0x16, 3	; 22
 488:	21 60       	ori	r18, 0x01	; 1
 48a:	c1 9a       	sbi	0x18, 1	; 24
 48c:	46 2f       	mov	r20, r22
 48e:	4a 95       	dec	r20
 490:	f1 f7       	brne	.-4      	; 0x48e <rf12_trans+0x20>
 492:	c1 98       	cbi	0x18, 1	; 24
 494:	5f 5f       	subi	r21, 0xFF	; 255
 496:	50 31       	cpi	r21, 0x10	; 16
 498:	19 f0       	breq	.+6      	; 0x4a0 <rf12_trans+0x32>
 49a:	88 0f       	add	r24, r24
 49c:	99 1f       	adc	r25, r25
 49e:	ec cf       	rjmp	.-40     	; 0x478 <rf12_trans+0xa>
 4a0:	c0 9a       	sbi	0x18, 0	; 24
 4a2:	c9 01       	movw	r24, r18
 4a4:	08 95       	ret

000004a6 <rf12_init>:
 4a6:	80 ee       	ldi	r24, 0xE0	; 224
 4a8:	90 ec       	ldi	r25, 0xC0	; 192
 4aa:	e1 df       	rcall	.-62     	; 0x46e <rf12_trans>
 4ac:	87 ee       	ldi	r24, 0xE7	; 231
 4ae:	90 e8       	ldi	r25, 0x80	; 128
 4b0:	de df       	rcall	.-68     	; 0x46e <rf12_trans>
 4b2:	8b ea       	ldi	r24, 0xAB	; 171
 4b4:	92 ec       	ldi	r25, 0xC2	; 194
 4b6:	db df       	rcall	.-74     	; 0x46e <rf12_trans>
 4b8:	81 e8       	ldi	r24, 0x81	; 129
 4ba:	9a ec       	ldi	r25, 0xCA	; 202
 4bc:	d8 df       	rcall	.-80     	; 0x46e <rf12_trans>
 4be:	80 e0       	ldi	r24, 0x00	; 0
 4c0:	90 ee       	ldi	r25, 0xE0	; 224
 4c2:	d5 df       	rcall	.-86     	; 0x46e <rf12_trans>
 4c4:	80 e0       	ldi	r24, 0x00	; 0
 4c6:	98 ec       	ldi	r25, 0xC8	; 200
 4c8:	d2 df       	rcall	.-92     	; 0x46e <rf12_trans>
 4ca:	87 ef       	ldi	r24, 0xF7	; 247
 4cc:	94 ec       	ldi	r25, 0xC4	; 196
 4ce:	cf df       	rcall	.-98     	; 0x46e <rf12_trans>
 4d0:	08 95       	ret

000004d2 <rf12_setall>:
 4d2:	bf 92       	push	r11
 4d4:	cf 92       	push	r12
 4d6:	df 92       	push	r13
 4d8:	ef 92       	push	r14
 4da:	ff 92       	push	r15
 4dc:	0f 93       	push	r16
 4de:	1f 93       	push	r17
 4e0:	f6 2e       	mov	r15, r22
 4e2:	b4 2e       	mov	r11, r20
 4e4:	d2 2e       	mov	r13, r18
 4e6:	80 36       	cpi	r24, 0x60	; 96
 4e8:	91 05       	cpc	r25, r1
 4ea:	18 f4       	brcc	.+6      	; 0x4f2 <rf12_setall+0x20>
 4ec:	80 e6       	ldi	r24, 0x60	; 96
 4ee:	90 e0       	ldi	r25, 0x00	; 0
 4f0:	06 c0       	rjmp	.+12     	; 0x4fe <rf12_setall+0x2c>
 4f2:	2f e0       	ldi	r18, 0x0F	; 15
 4f4:	80 34       	cpi	r24, 0x40	; 64
 4f6:	92 07       	cpc	r25, r18
 4f8:	10 f0       	brcs	.+4      	; 0x4fe <rf12_setall+0x2c>
 4fa:	8f e3       	ldi	r24, 0x3F	; 63
 4fc:	9f e0       	ldi	r25, 0x0F	; 15
 4fe:	90 6a       	ori	r25, 0xA0	; 160
 500:	b6 df       	rcall	.-148    	; 0x46e <rf12_trans>
 502:	8f 2d       	mov	r24, r15
 504:	90 e0       	ldi	r25, 0x00	; 0
 506:	a5 e0       	ldi	r26, 0x05	; 5
 508:	88 0f       	add	r24, r24
 50a:	99 1f       	adc	r25, r25
 50c:	aa 95       	dec	r26
 50e:	e1 f7       	brne	.-8      	; 0x508 <rf12_setall+0x36>
 510:	90 70       	andi	r25, 0x00	; 0
 512:	2d 2d       	mov	r18, r13
 514:	30 e0       	ldi	r19, 0x00	; 0
 516:	27 70       	andi	r18, 0x07	; 7
 518:	30 70       	andi	r19, 0x00	; 0
 51a:	82 2b       	or	r24, r18
 51c:	93 2b       	or	r25, r19
 51e:	94 69       	ori	r25, 0x94	; 148
 520:	2b 2d       	mov	r18, r11
 522:	30 e0       	ldi	r19, 0x00	; 0
 524:	23 70       	andi	r18, 0x03	; 3
 526:	30 70       	andi	r19, 0x00	; 0
 528:	f3 e0       	ldi	r31, 0x03	; 3
 52a:	22 0f       	add	r18, r18
 52c:	33 1f       	adc	r19, r19
 52e:	fa 95       	dec	r31
 530:	e1 f7       	brne	.-8      	; 0x52a <rf12_setall+0x58>
 532:	82 2b       	or	r24, r18
 534:	93 2b       	or	r25, r19
 536:	9b df       	rcall	.-202    	; 0x46e <rf12_trans>
 538:	98 01       	movw	r18, r16
 53a:	40 e0       	ldi	r20, 0x00	; 0
 53c:	50 e0       	ldi	r21, 0x00	; 0
 53e:	60 e6       	ldi	r22, 0x60	; 96
 540:	78 ea       	ldi	r23, 0xA8	; 168
 542:	80 e0       	ldi	r24, 0x00	; 0
 544:	90 e0       	ldi	r25, 0x00	; 0
 546:	9c d0       	rcall	.+312    	; 0x680 <__divmodsi4>
 548:	da 01       	movw	r26, r20
 54a:	c9 01       	movw	r24, r18
 54c:	01 97       	sbiw	r24, 0x01	; 1
 54e:	80 68       	ori	r24, 0x80	; 128
 550:	96 6c       	ori	r25, 0xC6	; 198
 552:	8d df       	rcall	.-230    	; 0x46e <rf12_trans>
 554:	8e 2d       	mov	r24, r14
 556:	90 e0       	ldi	r25, 0x00	; 0
 558:	87 70       	andi	r24, 0x07	; 7
 55a:	90 70       	andi	r25, 0x00	; 0
 55c:	98 69       	ori	r25, 0x98	; 152
 55e:	2c 2d       	mov	r18, r12
 560:	30 e0       	ldi	r19, 0x00	; 0
 562:	e4 e0       	ldi	r30, 0x04	; 4
 564:	22 0f       	add	r18, r18
 566:	33 1f       	adc	r19, r19
 568:	ea 95       	dec	r30
 56a:	e1 f7       	brne	.-8      	; 0x564 <rf12_setall+0x92>
 56c:	30 70       	andi	r19, 0x00	; 0
 56e:	82 2b       	or	r24, r18
 570:	93 2b       	or	r25, r19
 572:	7d df       	rcall	.-262    	; 0x46e <rf12_trans>
 574:	1f 91       	pop	r17
 576:	0f 91       	pop	r16
 578:	ff 90       	pop	r15
 57a:	ef 90       	pop	r14
 57c:	df 90       	pop	r13
 57e:	cf 90       	pop	r12
 580:	bf 90       	pop	r11
 582:	08 95       	ret

00000584 <rf12_ready>:
 584:	c2 98       	cbi	0x18, 2	; 24
 586:	c0 98       	cbi	0x18, 0	; 24
 588:	00 00       	nop
 58a:	00 00       	nop
 58c:	24 e6       	ldi	r18, 0x64	; 100
 58e:	30 e0       	ldi	r19, 0x00	; 0
 590:	40 ed       	ldi	r20, 0xD0	; 208
 592:	57 e0       	ldi	r21, 0x07	; 7
 594:	05 c0       	rjmp	.+10     	; 0x5a0 <rf12_ready+0x1c>
 596:	21 50       	subi	r18, 0x01	; 1
 598:	30 40       	sbci	r19, 0x00	; 0
 59a:	ca 01       	movw	r24, r20
 59c:	01 97       	sbiw	r24, 0x01	; 1
 59e:	f1 f7       	brne	.-4      	; 0x59c <rf12_ready+0x18>
 5a0:	b3 99       	sbic	0x16, 3	; 22
 5a2:	03 c0       	rjmp	.+6      	; 0x5aa <rf12_ready+0x26>
 5a4:	21 15       	cp	r18, r1
 5a6:	31 05       	cpc	r19, r1
 5a8:	b1 f7       	brne	.-20     	; 0x596 <rf12_ready+0x12>
 5aa:	c0 9a       	sbi	0x18, 0	; 24
 5ac:	08 95       	ret

000005ae <rf12_readytrans>:
 5ae:	0f 93       	push	r16
 5b0:	1f 93       	push	r17
 5b2:	8c 01       	movw	r16, r24
 5b4:	e7 df       	rcall	.-50     	; 0x584 <rf12_ready>
 5b6:	c8 01       	movw	r24, r16
 5b8:	5a df       	rcall	.-332    	; 0x46e <rf12_trans>
 5ba:	1f 91       	pop	r17
 5bc:	0f 91       	pop	r16
 5be:	08 95       	ret

000005c0 <rf12_txdata_start>:
 5c0:	cf 93       	push	r28
 5c2:	df 93       	push	r29
 5c4:	80 e0       	ldi	r24, 0x00	; 0
 5c6:	90 e0       	ldi	r25, 0x00	; 0
 5c8:	52 df       	rcall	.-348    	; 0x46e <rf12_trans>
 5ca:	88 e3       	ldi	r24, 0x38	; 56
 5cc:	92 e8       	ldi	r25, 0x82	; 130
 5ce:	ef df       	rcall	.-34     	; 0x5ae <rf12_readytrans>
 5d0:	80 e0       	ldi	r24, 0x00	; 0
 5d2:	90 e0       	ldi	r25, 0x00	; 0
 5d4:	ec df       	rcall	.-40     	; 0x5ae <rf12_readytrans>
 5d6:	c0 e0       	ldi	r28, 0x00	; 0
 5d8:	d0 e0       	ldi	r29, 0x00	; 0
 5da:	8a ea       	ldi	r24, 0xAA	; 170
 5dc:	98 eb       	ldi	r25, 0xB8	; 184
 5de:	e7 df       	rcall	.-50     	; 0x5ae <rf12_readytrans>
 5e0:	21 96       	adiw	r28, 0x01	; 1
 5e2:	c5 30       	cpi	r28, 0x05	; 5
 5e4:	d1 05       	cpc	r29, r1
 5e6:	c9 f7       	brne	.-14     	; 0x5da <rf12_txdata_start+0x1a>
 5e8:	8d e2       	ldi	r24, 0x2D	; 45
 5ea:	98 eb       	ldi	r25, 0xB8	; 184
 5ec:	e0 df       	rcall	.-64     	; 0x5ae <rf12_readytrans>
 5ee:	84 ed       	ldi	r24, 0xD4	; 212
 5f0:	98 eb       	ldi	r25, 0xB8	; 184
 5f2:	dd df       	rcall	.-70     	; 0x5ae <rf12_readytrans>
 5f4:	80 e0       	ldi	r24, 0x00	; 0
 5f6:	90 e0       	ldi	r25, 0x00	; 0
 5f8:	da df       	rcall	.-76     	; 0x5ae <rf12_readytrans>
 5fa:	df 91       	pop	r29
 5fc:	cf 91       	pop	r28
 5fe:	08 95       	ret

00000600 <rf12_txdata_send>:
 600:	0f 93       	push	r16
 602:	1f 93       	push	r17
 604:	cf 93       	push	r28
 606:	df 93       	push	r29
 608:	18 2f       	mov	r17, r24
 60a:	06 2f       	mov	r16, r22
 60c:	28 2f       	mov	r18, r24
 60e:	39 2f       	mov	r19, r25
 610:	e9 01       	movw	r28, r18
 612:	04 c0       	rjmp	.+8      	; 0x61c <rf12_txdata_send+0x1c>
 614:	89 91       	ld	r24, Y+
 616:	90 e0       	ldi	r25, 0x00	; 0
 618:	98 6b       	ori	r25, 0xB8	; 184
 61a:	c9 df       	rcall	.-110    	; 0x5ae <rf12_readytrans>
 61c:	9e 01       	movw	r18, r28
 61e:	21 1b       	sub	r18, r17
 620:	20 17       	cp	r18, r16
 622:	c0 f3       	brcs	.-16     	; 0x614 <rf12_txdata_send+0x14>
 624:	df 91       	pop	r29
 626:	cf 91       	pop	r28
 628:	1f 91       	pop	r17
 62a:	0f 91       	pop	r16
 62c:	08 95       	ret

0000062e <rf12_txdata_end>:
 62e:	88 e0       	ldi	r24, 0x08	; 8
 630:	92 e8       	ldi	r25, 0x82	; 130
 632:	bd df       	rcall	.-134    	; 0x5ae <rf12_readytrans>
 634:	08 95       	ret

00000636 <rf12_txdata>:
 636:	ff 92       	push	r15
 638:	0f 93       	push	r16
 63a:	1f 93       	push	r17
 63c:	8c 01       	movw	r16, r24
 63e:	f6 2e       	mov	r15, r22
 640:	bf df       	rcall	.-130    	; 0x5c0 <rf12_txdata_start>
 642:	80 e7       	ldi	r24, 0x70	; 112
 644:	90 e0       	ldi	r25, 0x00	; 0
 646:	64 e0       	ldi	r22, 0x04	; 4
 648:	db df       	rcall	.-74     	; 0x600 <rf12_txdata_send>
 64a:	c8 01       	movw	r24, r16
 64c:	6f 2d       	mov	r22, r15
 64e:	d8 df       	rcall	.-80     	; 0x600 <rf12_txdata_send>
 650:	ee df       	rcall	.-36     	; 0x62e <rf12_txdata_end>
 652:	1f 91       	pop	r17
 654:	0f 91       	pop	r16
 656:	ff 90       	pop	r15
 658:	08 95       	ret

0000065a <rf12_preinit>:
 65a:	fc 01       	movw	r30, r24
 65c:	80 81       	ld	r24, Z
 65e:	91 81       	ldd	r25, Z+1	; 0x01
 660:	a2 81       	ldd	r26, Z+2	; 0x02
 662:	b3 81       	ldd	r27, Z+3	; 0x03
 664:	80 93 70 00 	sts	0x0070, r24
 668:	90 93 71 00 	sts	0x0071, r25
 66c:	a0 93 72 00 	sts	0x0072, r26
 670:	b0 93 73 00 	sts	0x0073, r27
 674:	87 e1       	ldi	r24, 0x17	; 23
 676:	87 bb       	out	0x17, r24	; 23
 678:	81 e0       	ldi	r24, 0x01	; 1
 67a:	88 bb       	out	0x18, r24	; 24
 67c:	c4 9a       	sbi	0x18, 4	; 24
 67e:	08 95       	ret

00000680 <__divmodsi4>:
 680:	97 fb       	bst	r25, 7
 682:	09 2e       	mov	r0, r25
 684:	05 26       	eor	r0, r21
 686:	0e d0       	rcall	.+28     	; 0x6a4 <__divmodsi4_neg1>
 688:	57 fd       	sbrc	r21, 7
 68a:	04 d0       	rcall	.+8      	; 0x694 <__divmodsi4_neg2>
 68c:	14 d0       	rcall	.+40     	; 0x6b6 <__udivmodsi4>
 68e:	0a d0       	rcall	.+20     	; 0x6a4 <__divmodsi4_neg1>
 690:	00 1c       	adc	r0, r0
 692:	38 f4       	brcc	.+14     	; 0x6a2 <__divmodsi4_exit>

00000694 <__divmodsi4_neg2>:
 694:	50 95       	com	r21
 696:	40 95       	com	r20
 698:	30 95       	com	r19
 69a:	21 95       	neg	r18
 69c:	3f 4f       	sbci	r19, 0xFF	; 255
 69e:	4f 4f       	sbci	r20, 0xFF	; 255
 6a0:	5f 4f       	sbci	r21, 0xFF	; 255

000006a2 <__divmodsi4_exit>:
 6a2:	08 95       	ret

000006a4 <__divmodsi4_neg1>:
 6a4:	f6 f7       	brtc	.-4      	; 0x6a2 <__divmodsi4_exit>
 6a6:	90 95       	com	r25
 6a8:	80 95       	com	r24
 6aa:	70 95       	com	r23
 6ac:	61 95       	neg	r22
 6ae:	7f 4f       	sbci	r23, 0xFF	; 255
 6b0:	8f 4f       	sbci	r24, 0xFF	; 255
 6b2:	9f 4f       	sbci	r25, 0xFF	; 255
 6b4:	08 95       	ret

000006b6 <__udivmodsi4>:
 6b6:	a1 e2       	ldi	r26, 0x21	; 33
 6b8:	1a 2e       	mov	r1, r26
 6ba:	aa 1b       	sub	r26, r26
 6bc:	bb 1b       	sub	r27, r27
 6be:	fd 01       	movw	r30, r26
 6c0:	0d c0       	rjmp	.+26     	; 0x6dc <__udivmodsi4_ep>

000006c2 <__udivmodsi4_loop>:
 6c2:	aa 1f       	adc	r26, r26
 6c4:	bb 1f       	adc	r27, r27
 6c6:	ee 1f       	adc	r30, r30
 6c8:	ff 1f       	adc	r31, r31
 6ca:	a2 17       	cp	r26, r18
 6cc:	b3 07       	cpc	r27, r19
 6ce:	e4 07       	cpc	r30, r20
 6d0:	f5 07       	cpc	r31, r21
 6d2:	20 f0       	brcs	.+8      	; 0x6dc <__udivmodsi4_ep>
 6d4:	a2 1b       	sub	r26, r18
 6d6:	b3 0b       	sbc	r27, r19
 6d8:	e4 0b       	sbc	r30, r20
 6da:	f5 0b       	sbc	r31, r21

000006dc <__udivmodsi4_ep>:
 6dc:	66 1f       	adc	r22, r22
 6de:	77 1f       	adc	r23, r23
 6e0:	88 1f       	adc	r24, r24
 6e2:	99 1f       	adc	r25, r25
 6e4:	1a 94       	dec	r1
 6e6:	69 f7       	brne	.-38     	; 0x6c2 <__udivmodsi4_loop>
 6e8:	60 95       	com	r22
 6ea:	70 95       	com	r23
 6ec:	80 95       	com	r24
 6ee:	90 95       	com	r25
 6f0:	9b 01       	movw	r18, r22
 6f2:	ac 01       	movw	r20, r24
 6f4:	bd 01       	movw	r22, r26
 6f6:	cf 01       	movw	r24, r30
 6f8:	08 95       	ret

000006fa <_exit>:
 6fa:	f8 94       	cli

000006fc <__stop_program>:
 6fc:	ff cf       	rjmp	.-2      	; 0x6fc <__stop_program>
