
bma020-tiny2313.elf:     file format elf32-avr

Sections:
Idx Name          Size      VMA       LMA       File off  Algn
  0 .text         00000766  00000000  00000000  00000094  2**1
                  CONTENTS, ALLOC, LOAD, READONLY, CODE
  1 .data         00000006  00800060  00000766  000007fa  2**0
                  CONTENTS, ALLOC, LOAD, DATA
  2 .bss          00000006  00800066  00800066  00000800  2**0
                  ALLOC
  3 .stab         000006b4  00000000  00000000  00000800  2**2
                  CONTENTS, READONLY, DEBUGGING
  4 .stabstr      00000054  00000000  00000000  00000eb4  2**0
                  CONTENTS, READONLY, DEBUGGING

Disassembly of section .text:

00000000 <__vectors>:
   0:	12 c0       	rjmp	.+36     	; 0x26 <__ctors_end>
   2:	2a c0       	rjmp	.+84     	; 0x58 <__bad_interrupt>
   4:	29 c0       	rjmp	.+82     	; 0x58 <__bad_interrupt>
   6:	28 c0       	rjmp	.+80     	; 0x58 <__bad_interrupt>
   8:	27 c0       	rjmp	.+78     	; 0x58 <__bad_interrupt>
   a:	26 c0       	rjmp	.+76     	; 0x58 <__bad_interrupt>
   c:	25 c0       	rjmp	.+74     	; 0x58 <__bad_interrupt>
   e:	24 c0       	rjmp	.+72     	; 0x58 <__bad_interrupt>
  10:	23 c0       	rjmp	.+70     	; 0x58 <__bad_interrupt>
  12:	22 c0       	rjmp	.+68     	; 0x58 <__bad_interrupt>
  14:	21 c0       	rjmp	.+66     	; 0x58 <__bad_interrupt>
  16:	20 c0       	rjmp	.+64     	; 0x58 <__bad_interrupt>
  18:	1f c0       	rjmp	.+62     	; 0x58 <__bad_interrupt>
  1a:	1e c0       	rjmp	.+60     	; 0x58 <__bad_interrupt>
  1c:	1d c0       	rjmp	.+58     	; 0x58 <__bad_interrupt>
  1e:	1c c0       	rjmp	.+56     	; 0x58 <__bad_interrupt>
  20:	1b c0       	rjmp	.+54     	; 0x58 <__bad_interrupt>
  22:	1a c0       	rjmp	.+52     	; 0x58 <__bad_interrupt>
  24:	7e c0       	rjmp	.+252    	; 0x122 <__vector_18>

00000026 <__ctors_end>:
  26:	11 24       	eor	r1, r1
  28:	1f be       	out	0x3f, r1	; 63
  2a:	cf ed       	ldi	r28, 0xDF	; 223
  2c:	cd bf       	out	0x3d, r28	; 61

0000002e <__do_copy_data>:
  2e:	10 e0       	ldi	r17, 0x00	; 0
  30:	a0 e6       	ldi	r26, 0x60	; 96
  32:	b0 e0       	ldi	r27, 0x00	; 0
  34:	e6 e6       	ldi	r30, 0x66	; 102
  36:	f7 e0       	ldi	r31, 0x07	; 7
  38:	02 c0       	rjmp	.+4      	; 0x3e <.do_copy_data_start>

0000003a <.do_copy_data_loop>:
  3a:	05 90       	lpm	r0, Z+
  3c:	0d 92       	st	X+, r0

0000003e <.do_copy_data_start>:
  3e:	a6 36       	cpi	r26, 0x66	; 102
  40:	b1 07       	cpc	r27, r17
  42:	d9 f7       	brne	.-10     	; 0x3a <.do_copy_data_loop>

00000044 <__do_clear_bss>:
  44:	10 e0       	ldi	r17, 0x00	; 0
  46:	a6 e6       	ldi	r26, 0x66	; 102
  48:	b0 e0       	ldi	r27, 0x00	; 0
  4a:	01 c0       	rjmp	.+2      	; 0x4e <.do_clear_bss_start>

0000004c <.do_clear_bss_loop>:
  4c:	1d 92       	st	X+, r1

0000004e <.do_clear_bss_start>:
  4e:	ac 36       	cpi	r26, 0x6C	; 108
  50:	b1 07       	cpc	r27, r17
  52:	e1 f7       	brne	.-8      	; 0x4c <.do_clear_bss_loop>
  54:	e4 d1       	rcall	.+968    	; 0x41e <main>
  56:	85 c3       	rjmp	.+1802   	; 0x762 <_exit>

00000058 <__bad_interrupt>:
  58:	d3 cf       	rjmp	.-90     	; 0x0 <__vectors>

0000005a <BMA_trans>:
  5a:	93 9a       	sbi	0x12, 3	; 18
  5c:	92 98       	cbi	0x12, 2	; 18
  5e:	93 98       	cbi	0x12, 3	; 18
  60:	40 e0       	ldi	r20, 0x00	; 0
  62:	50 e0       	ldi	r21, 0x00	; 0
  64:	30 e0       	ldi	r19, 0x00	; 0
  66:	61 e0       	ldi	r22, 0x01	; 1
  68:	97 ff       	sbrs	r25, 7
  6a:	02 c0       	rjmp	.+4      	; 0x70 <BMA_trans+0x16>
  6c:	94 9a       	sbi	0x12, 4	; 18
  6e:	01 c0       	rjmp	.+2      	; 0x72 <BMA_trans+0x18>
  70:	94 98       	cbi	0x12, 4	; 18
  72:	26 2f       	mov	r18, r22
  74:	2a 95       	dec	r18
  76:	f1 f7       	brne	.-4      	; 0x74 <BMA_trans+0x1a>
  78:	44 0f       	add	r20, r20
  7a:	55 1f       	adc	r21, r21
  7c:	85 99       	sbic	0x10, 5	; 16
  7e:	41 60       	ori	r20, 0x01	; 1
  80:	93 9a       	sbi	0x12, 3	; 18
  82:	26 2f       	mov	r18, r22
  84:	2a 95       	dec	r18
  86:	f1 f7       	brne	.-4      	; 0x84 <BMA_trans+0x2a>
  88:	93 98       	cbi	0x12, 3	; 18
  8a:	3f 5f       	subi	r19, 0xFF	; 255
  8c:	30 31       	cpi	r19, 0x10	; 16
  8e:	19 f0       	breq	.+6      	; 0x96 <BMA_trans+0x3c>
  90:	88 0f       	add	r24, r24
  92:	99 1f       	adc	r25, r25
  94:	e9 cf       	rjmp	.-46     	; 0x68 <BMA_trans+0xe>
  96:	81 e0       	ldi	r24, 0x01	; 1
  98:	8a 95       	dec	r24
  9a:	f1 f7       	brne	.-4      	; 0x98 <BMA_trans+0x3e>
  9c:	92 9a       	sbi	0x12, 2	; 18
  9e:	ca 01       	movw	r24, r20
  a0:	08 95       	ret

000000a2 <BMA_uninit>:
  a2:	81 e0       	ldi	r24, 0x01	; 1
  a4:	9a e0       	ldi	r25, 0x0A	; 10
  a6:	d9 df       	rcall	.-78     	; 0x5a <BMA_trans>
  a8:	8e e3       	ldi	r24, 0x3E	; 62
  aa:	81 bb       	out	0x11, r24	; 17
  ac:	91 98       	cbi	0x12, 1	; 18
  ae:	94 9a       	sbi	0x12, 4	; 18
  b0:	93 9a       	sbi	0x12, 3	; 18
  b2:	92 9a       	sbi	0x12, 2	; 18
  b4:	95 9a       	sbi	0x12, 5	; 18
  b6:	08 95       	ret

000000b8 <BMA_init>:
  b8:	0f 93       	push	r16
  ba:	1f 93       	push	r17
  bc:	8e e1       	ldi	r24, 0x1E	; 30
  be:	81 bb       	out	0x11, r24	; 17
  c0:	92 9a       	sbi	0x12, 2	; 18
  c2:	91 9a       	sbi	0x12, 1	; 18
  c4:	94 98       	cbi	0x12, 4	; 18
  c6:	93 98       	cbi	0x12, 3	; 18
  c8:	95 98       	cbi	0x12, 5	; 18
  ca:	00 e2       	ldi	r16, 0x20	; 32
  cc:	1e e4       	ldi	r17, 0x4E	; 78
  ce:	c8 01       	movw	r24, r16
  d0:	01 97       	sbiw	r24, 0x01	; 1
  d2:	f1 f7       	brne	.-4      	; 0xd0 <BMA_init+0x18>
  d4:	80 e0       	ldi	r24, 0x00	; 0
  d6:	9a e0       	ldi	r25, 0x0A	; 10
  d8:	c0 df       	rcall	.-128    	; 0x5a <BMA_trans>
  da:	c8 01       	movw	r24, r16
  dc:	01 97       	sbiw	r24, 0x01	; 1
  de:	f1 f7       	brne	.-4      	; 0xdc <BMA_init+0x24>
  e0:	80 e8       	ldi	r24, 0x80	; 128
  e2:	95 e1       	ldi	r25, 0x15	; 21
  e4:	ba df       	rcall	.-140    	; 0x5a <BMA_trans>
  e6:	1f 91       	pop	r17
  e8:	0f 91       	pop	r16
  ea:	08 95       	ret

000000ec <x>:
  ec:	cf 93       	push	r28
  ee:	df 93       	push	r29
  f0:	e3 df       	rcall	.-58     	; 0xb8 <BMA_init>
  f2:	c0 e2       	ldi	r28, 0x20	; 32
  f4:	de e4       	ldi	r29, 0x4E	; 78
  f6:	80 e0       	ldi	r24, 0x00	; 0
  f8:	92 e8       	ldi	r25, 0x82	; 130
  fa:	af df       	rcall	.-162    	; 0x5a <BMA_trans>
  fc:	80 e0       	ldi	r24, 0x00	; 0
  fe:	93 e8       	ldi	r25, 0x83	; 131
 100:	ac df       	rcall	.-168    	; 0x5a <BMA_trans>
 102:	80 e0       	ldi	r24, 0x00	; 0
 104:	94 e8       	ldi	r25, 0x84	; 132
 106:	a9 df       	rcall	.-174    	; 0x5a <BMA_trans>
 108:	80 e0       	ldi	r24, 0x00	; 0
 10a:	95 e8       	ldi	r25, 0x85	; 133
 10c:	a6 df       	rcall	.-180    	; 0x5a <BMA_trans>
 10e:	80 e0       	ldi	r24, 0x00	; 0
 110:	96 e8       	ldi	r25, 0x86	; 134
 112:	a3 df       	rcall	.-186    	; 0x5a <BMA_trans>
 114:	80 e0       	ldi	r24, 0x00	; 0
 116:	97 e8       	ldi	r25, 0x87	; 135
 118:	a0 df       	rcall	.-192    	; 0x5a <BMA_trans>
 11a:	ce 01       	movw	r24, r28
 11c:	01 97       	sbiw	r24, 0x01	; 1
 11e:	f1 f7       	brne	.-4      	; 0x11c <x+0x30>
 120:	ea cf       	rjmp	.-44     	; 0xf6 <x+0xa>

00000122 <__vector_18>:
 122:	1f 92       	push	r1
 124:	0f 92       	push	r0
 126:	0f b6       	in	r0, 0x3f	; 63
 128:	0f 92       	push	r0
 12a:	11 24       	eor	r1, r1
 12c:	8f 93       	push	r24
 12e:	9f 93       	push	r25
 130:	f8 94       	cli
 132:	81 b5       	in	r24, 0x21	; 33
 134:	87 64       	ori	r24, 0x47	; 71
 136:	81 bd       	out	0x21, r24	; 33
 138:	80 91 66 00 	lds	r24, 0x0066
 13c:	90 91 67 00 	lds	r25, 0x0067
 140:	01 96       	adiw	r24, 0x01	; 1
 142:	90 93 67 00 	sts	0x0067, r25
 146:	80 93 66 00 	sts	0x0066, r24
 14a:	78 94       	sei
 14c:	9f 91       	pop	r25
 14e:	8f 91       	pop	r24
 150:	0f 90       	pop	r0
 152:	0f be       	out	0x3f, r0	; 63
 154:	0f 90       	pop	r0
 156:	1f 90       	pop	r1
 158:	18 95       	reti

0000015a <send>:
 15a:	2f 92       	push	r2
 15c:	3f 92       	push	r3
 15e:	4f 92       	push	r4
 160:	5f 92       	push	r5
 162:	6f 92       	push	r6
 164:	7f 92       	push	r7
 166:	8f 92       	push	r8
 168:	9f 92       	push	r9
 16a:	af 92       	push	r10
 16c:	bf 92       	push	r11
 16e:	cf 92       	push	r12
 170:	df 92       	push	r13
 172:	ef 92       	push	r14
 174:	ff 92       	push	r15
 176:	0f 93       	push	r16
 178:	1f 93       	push	r17
 17a:	df 93       	push	r29
 17c:	cf 93       	push	r28
 17e:	cd b7       	in	r28, 0x3d	; 61
 180:	de b7       	in	r29, 0x3e	; 62
 182:	ae 97       	sbiw	r28, 0x2e	; 46
 184:	0f b6       	in	r0, 0x3f	; 63
 186:	f8 94       	cli
 188:	de bf       	out	0x3e, r29	; 62
 18a:	0f be       	out	0x3f, r0	; 63
 18c:	cd bf       	out	0x3d, r28	; 61
 18e:	19 82       	std	Y+1, r1	; 0x01
 190:	1a 82       	std	Y+2, r1	; 0x02
 192:	1b 82       	std	Y+3, r1	; 0x03
 194:	1c 82       	std	Y+4, r1	; 0x04
 196:	1d 82       	std	Y+5, r1	; 0x05
 198:	1e 82       	std	Y+6, r1	; 0x06
 19a:	1f 82       	std	Y+7, r1	; 0x07
 19c:	18 86       	std	Y+8, r1	; 0x08
 19e:	19 86       	std	Y+9, r1	; 0x09
 1a0:	1a 86       	std	Y+10, r1	; 0x0a
 1a2:	1b 86       	std	Y+11, r1	; 0x0b
 1a4:	1c 86       	std	Y+12, r1	; 0x0c
 1a6:	88 df       	rcall	.-240    	; 0xb8 <BMA_init>
 1a8:	1e a6       	std	Y+46, r1	; 0x2e
 1aa:	1d a6       	std	Y+45, r1	; 0x2d
 1ac:	80 e0       	ldi	r24, 0x00	; 0
 1ae:	92 e8       	ldi	r25, 0x82	; 130
 1b0:	54 df       	rcall	.-344    	; 0x5a <BMA_trans>
 1b2:	e8 2e       	mov	r14, r24
 1b4:	80 e0       	ldi	r24, 0x00	; 0
 1b6:	93 e8       	ldi	r25, 0x83	; 131
 1b8:	50 df       	rcall	.-352    	; 0x5a <BMA_trans>
 1ba:	58 2e       	mov	r5, r24
 1bc:	80 e0       	ldi	r24, 0x00	; 0
 1be:	94 e8       	ldi	r25, 0x84	; 132
 1c0:	4c df       	rcall	.-360    	; 0x5a <BMA_trans>
 1c2:	a8 2e       	mov	r10, r24
 1c4:	80 e0       	ldi	r24, 0x00	; 0
 1c6:	95 e8       	ldi	r25, 0x85	; 133
 1c8:	48 df       	rcall	.-368    	; 0x5a <BMA_trans>
 1ca:	48 2e       	mov	r4, r24
 1cc:	80 e0       	ldi	r24, 0x00	; 0
 1ce:	96 e8       	ldi	r25, 0x86	; 134
 1d0:	44 df       	rcall	.-376    	; 0x5a <BMA_trans>
 1d2:	68 2e       	mov	r6, r24
 1d4:	80 e0       	ldi	r24, 0x00	; 0
 1d6:	97 e8       	ldi	r25, 0x87	; 135
 1d8:	40 df       	rcall	.-384    	; 0x5a <BMA_trans>
 1da:	35 2c       	mov	r3, r5
 1dc:	22 24       	eor	r2, r2
 1de:	ff 24       	eor	r15, r15
 1e0:	e2 28       	or	r14, r2
 1e2:	f3 28       	or	r15, r3
 1e4:	16 e0       	ldi	r17, 0x06	; 6
 1e6:	f5 94       	asr	r15
 1e8:	e7 94       	ror	r14
 1ea:	1a 95       	dec	r17
 1ec:	e1 f7       	brne	.-8      	; 0x1e6 <send+0x8c>
 1ee:	00 27       	eor	r16, r16
 1f0:	f7 fc       	sbrc	r15, 7
 1f2:	00 95       	com	r16
 1f4:	10 2f       	mov	r17, r16
 1f6:	29 81       	ldd	r18, Y+1	; 0x01
 1f8:	3a 81       	ldd	r19, Y+2	; 0x02
 1fa:	4b 81       	ldd	r20, Y+3	; 0x03
 1fc:	5c 81       	ldd	r21, Y+4	; 0x04
 1fe:	2e 0d       	add	r18, r14
 200:	3f 1d       	adc	r19, r15
 202:	40 1f       	adc	r20, r16
 204:	51 1f       	adc	r21, r17
 206:	29 83       	std	Y+1, r18	; 0x01
 208:	3a 83       	std	Y+2, r19	; 0x02
 20a:	4b 83       	std	Y+3, r20	; 0x03
 20c:	5c 83       	std	Y+4, r21	; 0x04
 20e:	f4 2c       	mov	r15, r4
 210:	ee 24       	eor	r14, r14
 212:	bb 24       	eor	r11, r11
 214:	ae 28       	or	r10, r14
 216:	bf 28       	or	r11, r15
 218:	b6 e0       	ldi	r27, 0x06	; 6
 21a:	b5 94       	asr	r11
 21c:	a7 94       	ror	r10
 21e:	ba 95       	dec	r27
 220:	e1 f7       	brne	.-8      	; 0x21a <send+0xc0>
 222:	cc 24       	eor	r12, r12
 224:	b7 fc       	sbrc	r11, 7
 226:	c0 94       	com	r12
 228:	dc 2c       	mov	r13, r12
 22a:	2d 81       	ldd	r18, Y+5	; 0x05
 22c:	3e 81       	ldd	r19, Y+6	; 0x06
 22e:	4f 81       	ldd	r20, Y+7	; 0x07
 230:	58 85       	ldd	r21, Y+8	; 0x08
 232:	2a 0d       	add	r18, r10
 234:	3b 1d       	adc	r19, r11
 236:	4c 1d       	adc	r20, r12
 238:	5d 1d       	adc	r21, r13
 23a:	2d 83       	std	Y+5, r18	; 0x05
 23c:	3e 83       	std	Y+6, r19	; 0x06
 23e:	4f 83       	std	Y+7, r20	; 0x07
 240:	58 87       	std	Y+8, r21	; 0x08
 242:	18 2f       	mov	r17, r24
 244:	00 e0       	ldi	r16, 0x00	; 0
 246:	77 24       	eor	r7, r7
 248:	60 2a       	or	r6, r16
 24a:	71 2a       	or	r7, r17
 24c:	a6 e0       	ldi	r26, 0x06	; 6
 24e:	75 94       	asr	r7
 250:	67 94       	ror	r6
 252:	aa 95       	dec	r26
 254:	e1 f7       	brne	.-8      	; 0x24e <send+0xf4>
 256:	88 24       	eor	r8, r8
 258:	77 fc       	sbrc	r7, 7
 25a:	80 94       	com	r8
 25c:	98 2c       	mov	r9, r8
 25e:	89 85       	ldd	r24, Y+9	; 0x09
 260:	9a 85       	ldd	r25, Y+10	; 0x0a
 262:	ab 85       	ldd	r26, Y+11	; 0x0b
 264:	bc 85       	ldd	r27, Y+12	; 0x0c
 266:	86 0d       	add	r24, r6
 268:	97 1d       	adc	r25, r7
 26a:	a8 1d       	adc	r26, r8
 26c:	b9 1d       	adc	r27, r9
 26e:	89 87       	std	Y+9, r24	; 0x09
 270:	9a 87       	std	Y+10, r25	; 0x0a
 272:	ab 87       	std	Y+11, r26	; 0x0b
 274:	bc 87       	std	Y+12, r27	; 0x0c
 276:	80 ed       	ldi	r24, 0xD0	; 208
 278:	97 e0       	ldi	r25, 0x07	; 7
 27a:	01 97       	sbiw	r24, 0x01	; 1
 27c:	f1 f7       	brne	.-4      	; 0x27a <send+0x120>
 27e:	8d a5       	ldd	r24, Y+45	; 0x2d
 280:	9e a5       	ldd	r25, Y+46	; 0x2e
 282:	01 96       	adiw	r24, 0x01	; 1
 284:	9e a7       	std	Y+46, r25	; 0x2e
 286:	8d a7       	std	Y+45, r24	; 0x2d
 288:	80 97       	sbiw	r24, 0x20	; 32
 28a:	09 f0       	breq	.+2      	; 0x28e <send+0x134>
 28c:	8f cf       	rjmp	.-226    	; 0x1ac <send+0x52>
 28e:	09 df       	rcall	.-494    	; 0xa2 <BMA_uninit>
 290:	29 81       	ldd	r18, Y+1	; 0x01
 292:	3a 81       	ldd	r19, Y+2	; 0x02
 294:	4b 81       	ldd	r20, Y+3	; 0x03
 296:	5c 81       	ldd	r21, Y+4	; 0x04
 298:	21 15       	cp	r18, r1
 29a:	31 05       	cpc	r19, r1
 29c:	41 05       	cpc	r20, r1
 29e:	51 05       	cpc	r21, r1
 2a0:	89 f4       	brne	.+34     	; 0x2c4 <send+0x16a>
 2a2:	8d 81       	ldd	r24, Y+5	; 0x05
 2a4:	9e 81       	ldd	r25, Y+6	; 0x06
 2a6:	af 81       	ldd	r26, Y+7	; 0x07
 2a8:	b8 85       	ldd	r27, Y+8	; 0x08
 2aa:	00 97       	sbiw	r24, 0x00	; 0
 2ac:	a1 05       	cpc	r26, r1
 2ae:	b1 05       	cpc	r27, r1
 2b0:	49 f4       	brne	.+18     	; 0x2c4 <send+0x16a>
 2b2:	89 85       	ldd	r24, Y+9	; 0x09
 2b4:	9a 85       	ldd	r25, Y+10	; 0x0a
 2b6:	ab 85       	ldd	r26, Y+11	; 0x0b
 2b8:	bc 85       	ldd	r27, Y+12	; 0x0c
 2ba:	00 97       	sbiw	r24, 0x00	; 0
 2bc:	a1 05       	cpc	r26, r1
 2be:	b1 05       	cpc	r27, r1
 2c0:	09 f4       	brne	.+2      	; 0x2c4 <send+0x16a>
 2c2:	94 c0       	rjmp	.+296    	; 0x3ec <send+0x292>
 2c4:	79 01       	movw	r14, r18
 2c6:	8a 01       	movw	r16, r20
 2c8:	f5 e0       	ldi	r31, 0x05	; 5
 2ca:	15 95       	asr	r17
 2cc:	07 95       	ror	r16
 2ce:	f7 94       	ror	r15
 2d0:	e7 94       	ror	r14
 2d2:	fa 95       	dec	r31
 2d4:	d1 f7       	brne	.-12     	; 0x2ca <send+0x170>
 2d6:	e9 82       	std	Y+1, r14	; 0x01
 2d8:	fa 82       	std	Y+2, r15	; 0x02
 2da:	0b 83       	std	Y+3, r16	; 0x03
 2dc:	1c 83       	std	Y+4, r17	; 0x04
 2de:	2d 81       	ldd	r18, Y+5	; 0x05
 2e0:	3e 81       	ldd	r19, Y+6	; 0x06
 2e2:	4f 81       	ldd	r20, Y+7	; 0x07
 2e4:	58 85       	ldd	r21, Y+8	; 0x08
 2e6:	e5 e0       	ldi	r30, 0x05	; 5
 2e8:	55 95       	asr	r21
 2ea:	47 95       	ror	r20
 2ec:	37 95       	ror	r19
 2ee:	27 95       	ror	r18
 2f0:	ea 95       	dec	r30
 2f2:	d1 f7       	brne	.-12     	; 0x2e8 <send+0x18e>
 2f4:	2d 83       	std	Y+5, r18	; 0x05
 2f6:	3e 83       	std	Y+6, r19	; 0x06
 2f8:	4f 83       	std	Y+7, r20	; 0x07
 2fa:	58 87       	std	Y+8, r21	; 0x08
 2fc:	89 85       	ldd	r24, Y+9	; 0x09
 2fe:	9a 85       	ldd	r25, Y+10	; 0x0a
 300:	ab 85       	ldd	r26, Y+11	; 0x0b
 302:	bc 85       	ldd	r27, Y+12	; 0x0c
 304:	75 e0       	ldi	r23, 0x05	; 5
 306:	b5 95       	asr	r27
 308:	a7 95       	ror	r26
 30a:	97 95       	ror	r25
 30c:	87 95       	ror	r24
 30e:	7a 95       	dec	r23
 310:	d1 f7       	brne	.-12     	; 0x306 <send+0x1ac>
 312:	89 87       	std	Y+9, r24	; 0x09
 314:	9a 87       	std	Y+10, r25	; 0x0a
 316:	ab 87       	std	Y+11, r26	; 0x0b
 318:	bc 87       	std	Y+12, r27	; 0x0c
 31a:	f1 fe       	sbrs	r15, 1
 31c:	0d c0       	rjmp	.+26     	; 0x338 <send+0x1de>
 31e:	a1 2c       	mov	r10, r1
 320:	6e ef       	ldi	r22, 0xFE	; 254
 322:	b6 2e       	mov	r11, r22
 324:	c1 2c       	mov	r12, r1
 326:	d1 2c       	mov	r13, r1
 328:	ea 28       	or	r14, r10
 32a:	fb 28       	or	r15, r11
 32c:	0c 29       	or	r16, r12
 32e:	1d 29       	or	r17, r13
 330:	e9 82       	std	Y+1, r14	; 0x01
 332:	fa 82       	std	Y+2, r15	; 0x02
 334:	0b 83       	std	Y+3, r16	; 0x03
 336:	1c 83       	std	Y+4, r17	; 0x04
 338:	31 ff       	sbrs	r19, 1
 33a:	05 c0       	rjmp	.+10     	; 0x346 <send+0x1ec>
 33c:	3e 6f       	ori	r19, 0xFE	; 254
 33e:	2d 83       	std	Y+5, r18	; 0x05
 340:	3e 83       	std	Y+6, r19	; 0x06
 342:	4f 83       	std	Y+7, r20	; 0x07
 344:	58 87       	std	Y+8, r21	; 0x08
 346:	91 ff       	sbrs	r25, 1
 348:	05 c0       	rjmp	.+10     	; 0x354 <send+0x1fa>
 34a:	9e 6f       	ori	r25, 0xFE	; 254
 34c:	89 87       	std	Y+9, r24	; 0x09
 34e:	9a 87       	std	Y+10, r25	; 0x0a
 350:	ab 87       	std	Y+11, r26	; 0x0b
 352:	bc 87       	std	Y+12, r27	; 0x0c
 354:	89 81       	ldd	r24, Y+1	; 0x01
 356:	9a 81       	ldd	r25, Y+2	; 0x02
 358:	ab 81       	ldd	r26, Y+3	; 0x03
 35a:	bc 81       	ldd	r27, Y+4	; 0x04
 35c:	84 97       	sbiw	r24, 0x24	; 36
 35e:	a1 09       	sbc	r26, r1
 360:	b1 09       	sbc	r27, r1
 362:	bc 01       	movw	r22, r24
 364:	89 83       	std	Y+1, r24	; 0x01
 366:	9a 83       	std	Y+2, r25	; 0x02
 368:	ab 83       	std	Y+3, r26	; 0x03
 36a:	bc 83       	std	Y+4, r27	; 0x04
 36c:	8d 81       	ldd	r24, Y+5	; 0x05
 36e:	9e 81       	ldd	r25, Y+6	; 0x06
 370:	af 81       	ldd	r26, Y+7	; 0x07
 372:	b8 85       	ldd	r27, Y+8	; 0x08
 374:	80 96       	adiw	r24, 0x20	; 32
 376:	a1 1d       	adc	r26, r1
 378:	b1 1d       	adc	r27, r1
 37a:	ac 01       	movw	r20, r24
 37c:	8d 83       	std	Y+5, r24	; 0x05
 37e:	9e 83       	std	Y+6, r25	; 0x06
 380:	af 83       	std	Y+7, r26	; 0x07
 382:	b8 87       	std	Y+8, r27	; 0x08
 384:	89 85       	ldd	r24, Y+9	; 0x09
 386:	9a 85       	ldd	r25, Y+10	; 0x0a
 388:	ab 85       	ldd	r26, Y+11	; 0x0b
 38a:	bc 85       	ldd	r27, Y+12	; 0x0c
 38c:	08 97       	sbiw	r24, 0x08	; 8
 38e:	a1 09       	sbc	r26, r1
 390:	b1 09       	sbc	r27, r1
 392:	9c 01       	movw	r18, r24
 394:	89 87       	std	Y+9, r24	; 0x09
 396:	9a 87       	std	Y+10, r25	; 0x0a
 398:	ab 87       	std	Y+11, r26	; 0x0b
 39a:	bc 87       	std	Y+12, r27	; 0x0c
 39c:	87 e6       	ldi	r24, 0x67	; 103
 39e:	8d 87       	std	Y+13, r24	; 0x0d
 3a0:	6e 87       	std	Y+14, r22	; 0x0e
 3a2:	7f 87       	std	Y+15, r23	; 0x0f
 3a4:	48 8b       	std	Y+16, r20	; 0x10
 3a6:	59 8b       	std	Y+17, r21	; 0x11
 3a8:	2a 8b       	std	Y+18, r18	; 0x12
 3aa:	3b 8b       	std	Y+19, r19	; 0x13
 3ac:	1c 8a       	std	Y+20, r1	; 0x14
 3ae:	6d 8b       	std	Y+21, r22	; 0x15
 3b0:	7e 8b       	std	Y+22, r23	; 0x16
 3b2:	4f 8b       	std	Y+23, r20	; 0x17
 3b4:	58 8f       	std	Y+24, r21	; 0x18
 3b6:	29 8f       	std	Y+25, r18	; 0x19
 3b8:	3a 8f       	std	Y+26, r19	; 0x1a
 3ba:	1b 8e       	std	Y+27, r1	; 0x1b
 3bc:	77 d0       	rcall	.+238    	; 0x4ac <rf12_init>
 3be:	8b e7       	ldi	r24, 0x7B	; 123
 3c0:	96 e0       	ldi	r25, 0x06	; 6
 3c2:	a3 d0       	rcall	.+326    	; 0x50a <rf12_setfreq>
 3c4:	84 e0       	ldi	r24, 0x04	; 4
 3c6:	61 e0       	ldi	r22, 0x01	; 1
 3c8:	44 e0       	ldi	r20, 0x04	; 4
 3ca:	86 d0       	rcall	.+268    	; 0x4d8 <rf12_setbandwidth>
 3cc:	8a e9       	ldi	r24, 0x9A	; 154
 3ce:	92 e0       	ldi	r25, 0x02	; 2
 3d0:	ab d0       	rcall	.+342    	; 0x528 <rf12_setbaud>
 3d2:	80 e0       	ldi	r24, 0x00	; 0
 3d4:	66 e0       	ldi	r22, 0x06	; 6
 3d6:	b7 d0       	rcall	.+366    	; 0x546 <rf12_setpower>
 3d8:	ce 01       	movw	r24, r28
 3da:	0d 96       	adiw	r24, 0x0d	; 13
 3dc:	6f e0       	ldi	r22, 0x0F	; 15
 3de:	1b d1       	rcall	.+566    	; 0x616 <rf12_txdata>
 3e0:	81 e0       	ldi	r24, 0x01	; 1
 3e2:	92 e8       	ldi	r25, 0x82	; 130
 3e4:	47 d0       	rcall	.+142    	; 0x474 <rf12_trans>
 3e6:	80 e0       	ldi	r24, 0x00	; 0
 3e8:	90 e0       	ldi	r25, 0x00	; 0
 3ea:	44 d0       	rcall	.+136    	; 0x474 <rf12_trans>
 3ec:	ae 96       	adiw	r28, 0x2e	; 46
 3ee:	0f b6       	in	r0, 0x3f	; 63
 3f0:	f8 94       	cli
 3f2:	de bf       	out	0x3e, r29	; 62
 3f4:	0f be       	out	0x3f, r0	; 63
 3f6:	cd bf       	out	0x3d, r28	; 61
 3f8:	cf 91       	pop	r28
 3fa:	df 91       	pop	r29
 3fc:	1f 91       	pop	r17
 3fe:	0f 91       	pop	r16
 400:	ff 90       	pop	r15
 402:	ef 90       	pop	r14
 404:	df 90       	pop	r13
 406:	cf 90       	pop	r12
 408:	bf 90       	pop	r11
 40a:	af 90       	pop	r10
 40c:	9f 90       	pop	r9
 40e:	8f 90       	pop	r8
 410:	7f 90       	pop	r7
 412:	6f 90       	pop	r6
 414:	5f 90       	pop	r5
 416:	4f 90       	pop	r4
 418:	3f 90       	pop	r3
 41a:	2f 90       	pop	r2
 41c:	08 95       	ret

0000041e <main>:
 41e:	80 e6       	ldi	r24, 0x60	; 96
 420:	90 e0       	ldi	r25, 0x00	; 0
 422:	44 d1       	rcall	.+648    	; 0x6ac <rf12_preinit>
 424:	9a de       	rcall	.-716    	; 0x15a <send>
 426:	f8 94       	cli
 428:	a8 95       	wdr
 42a:	8e e0       	ldi	r24, 0x0E	; 14
 42c:	28 e1       	ldi	r18, 0x18	; 24
 42e:	30 e0       	ldi	r19, 0x00	; 0
 430:	0f b6       	in	r0, 0x3f	; 63
 432:	f8 94       	cli
 434:	a8 95       	wdr
 436:	21 bd       	out	0x21, r18	; 33
 438:	0f be       	out	0x3f, r0	; 63
 43a:	81 bd       	out	0x21, r24	; 33
 43c:	81 b5       	in	r24, 0x21	; 33
 43e:	87 64       	ori	r24, 0x47	; 71
 440:	81 bd       	out	0x21, r24	; 33
 442:	78 94       	sei
 444:	80 91 66 00 	lds	r24, 0x0066
 448:	90 91 67 00 	lds	r25, 0x0067
 44c:	4e 97       	sbiw	r24, 0x1e	; 30
 44e:	28 f0       	brcs	.+10     	; 0x45a <main+0x3c>
 450:	84 de       	rcall	.-760    	; 0x15a <send>
 452:	10 92 67 00 	sts	0x0067, r1
 456:	10 92 66 00 	sts	0x0066, r1
 45a:	a8 95       	wdr
 45c:	85 b7       	in	r24, 0x35	; 53
 45e:	80 65       	ori	r24, 0x50	; 80
 460:	85 bf       	out	0x35, r24	; 53
 462:	85 b7       	in	r24, 0x35	; 53
 464:	80 62       	ori	r24, 0x20	; 32
 466:	85 bf       	out	0x35, r24	; 53
 468:	88 95       	sleep
 46a:	85 b7       	in	r24, 0x35	; 53
 46c:	8f 7d       	andi	r24, 0xDF	; 223
 46e:	85 bf       	out	0x35, r24	; 53
 470:	a8 95       	wdr
 472:	e8 cf       	rjmp	.-48     	; 0x444 <main+0x26>

00000474 <rf12_trans>:
 474:	c0 98       	cbi	0x18, 0	; 24
 476:	20 e0       	ldi	r18, 0x00	; 0
 478:	30 e0       	ldi	r19, 0x00	; 0
 47a:	50 e0       	ldi	r21, 0x00	; 0
 47c:	61 e0       	ldi	r22, 0x01	; 1
 47e:	97 ff       	sbrs	r25, 7
 480:	02 c0       	rjmp	.+4      	; 0x486 <rf12_trans+0x12>
 482:	c2 9a       	sbi	0x18, 2	; 24
 484:	01 c0       	rjmp	.+2      	; 0x488 <rf12_trans+0x14>
 486:	c2 98       	cbi	0x18, 2	; 24
 488:	22 0f       	add	r18, r18
 48a:	33 1f       	adc	r19, r19
 48c:	b3 99       	sbic	0x16, 3	; 22
 48e:	21 60       	ori	r18, 0x01	; 1
 490:	c1 9a       	sbi	0x18, 1	; 24
 492:	46 2f       	mov	r20, r22
 494:	4a 95       	dec	r20
 496:	f1 f7       	brne	.-4      	; 0x494 <rf12_trans+0x20>
 498:	c1 98       	cbi	0x18, 1	; 24
 49a:	5f 5f       	subi	r21, 0xFF	; 255
 49c:	50 31       	cpi	r21, 0x10	; 16
 49e:	19 f0       	breq	.+6      	; 0x4a6 <rf12_trans+0x32>
 4a0:	88 0f       	add	r24, r24
 4a2:	99 1f       	adc	r25, r25
 4a4:	ec cf       	rjmp	.-40     	; 0x47e <rf12_trans+0xa>
 4a6:	c0 9a       	sbi	0x18, 0	; 24
 4a8:	c9 01       	movw	r24, r18
 4aa:	08 95       	ret

000004ac <rf12_init>:
 4ac:	80 ee       	ldi	r24, 0xE0	; 224
 4ae:	90 ec       	ldi	r25, 0xC0	; 192
 4b0:	e1 df       	rcall	.-62     	; 0x474 <rf12_trans>
 4b2:	87 ee       	ldi	r24, 0xE7	; 231
 4b4:	90 e8       	ldi	r25, 0x80	; 128
 4b6:	de df       	rcall	.-68     	; 0x474 <rf12_trans>
 4b8:	8b ea       	ldi	r24, 0xAB	; 171
 4ba:	92 ec       	ldi	r25, 0xC2	; 194
 4bc:	db df       	rcall	.-74     	; 0x474 <rf12_trans>
 4be:	81 e8       	ldi	r24, 0x81	; 129
 4c0:	9a ec       	ldi	r25, 0xCA	; 202
 4c2:	d8 df       	rcall	.-80     	; 0x474 <rf12_trans>
 4c4:	80 e0       	ldi	r24, 0x00	; 0
 4c6:	90 ee       	ldi	r25, 0xE0	; 224
 4c8:	d5 df       	rcall	.-86     	; 0x474 <rf12_trans>
 4ca:	80 e0       	ldi	r24, 0x00	; 0
 4cc:	98 ec       	ldi	r25, 0xC8	; 200
 4ce:	d2 df       	rcall	.-92     	; 0x474 <rf12_trans>
 4d0:	87 ef       	ldi	r24, 0xF7	; 247
 4d2:	94 ec       	ldi	r25, 0xC4	; 196
 4d4:	cf df       	rcall	.-98     	; 0x474 <rf12_trans>
 4d6:	08 95       	ret

000004d8 <rf12_setbandwidth>:
 4d8:	90 e0       	ldi	r25, 0x00	; 0
 4da:	f5 e0       	ldi	r31, 0x05	; 5
 4dc:	88 0f       	add	r24, r24
 4de:	99 1f       	adc	r25, r25
 4e0:	fa 95       	dec	r31
 4e2:	e1 f7       	brne	.-8      	; 0x4dc <rf12_setbandwidth+0x4>
 4e4:	90 70       	andi	r25, 0x00	; 0
 4e6:	50 e0       	ldi	r21, 0x00	; 0
 4e8:	47 70       	andi	r20, 0x07	; 7
 4ea:	50 70       	andi	r21, 0x00	; 0
 4ec:	84 2b       	or	r24, r20
 4ee:	95 2b       	or	r25, r21
 4f0:	94 69       	ori	r25, 0x94	; 148
 4f2:	70 e0       	ldi	r23, 0x00	; 0
 4f4:	63 70       	andi	r22, 0x03	; 3
 4f6:	70 70       	andi	r23, 0x00	; 0
 4f8:	e3 e0       	ldi	r30, 0x03	; 3
 4fa:	66 0f       	add	r22, r22
 4fc:	77 1f       	adc	r23, r23
 4fe:	ea 95       	dec	r30
 500:	e1 f7       	brne	.-8      	; 0x4fa <rf12_setbandwidth+0x22>
 502:	86 2b       	or	r24, r22
 504:	97 2b       	or	r25, r23
 506:	b6 df       	rcall	.-148    	; 0x474 <rf12_trans>
 508:	08 95       	ret

0000050a <rf12_setfreq>:
 50a:	80 36       	cpi	r24, 0x60	; 96
 50c:	91 05       	cpc	r25, r1
 50e:	18 f4       	brcc	.+6      	; 0x516 <rf12_setfreq+0xc>
 510:	80 e6       	ldi	r24, 0x60	; 96
 512:	90 e0       	ldi	r25, 0x00	; 0
 514:	06 c0       	rjmp	.+12     	; 0x522 <rf12_setfreq+0x18>
 516:	2f e0       	ldi	r18, 0x0F	; 15
 518:	80 34       	cpi	r24, 0x40	; 64
 51a:	92 07       	cpc	r25, r18
 51c:	10 f0       	brcs	.+4      	; 0x522 <rf12_setfreq+0x18>
 51e:	8f e3       	ldi	r24, 0x3F	; 63
 520:	9f e0       	ldi	r25, 0x0F	; 15
 522:	90 6a       	ori	r25, 0xA0	; 160
 524:	a7 df       	rcall	.-178    	; 0x474 <rf12_trans>
 526:	08 95       	ret

00000528 <rf12_setbaud>:
 528:	9c 01       	movw	r18, r24
 52a:	40 e0       	ldi	r20, 0x00	; 0
 52c:	50 e0       	ldi	r21, 0x00	; 0
 52e:	60 e6       	ldi	r22, 0x60	; 96
 530:	78 ea       	ldi	r23, 0xA8	; 168
 532:	80 e0       	ldi	r24, 0x00	; 0
 534:	90 e0       	ldi	r25, 0x00	; 0
 536:	d8 d0       	rcall	.+432    	; 0x6e8 <__divmodsi4>
 538:	da 01       	movw	r26, r20
 53a:	c9 01       	movw	r24, r18
 53c:	01 97       	sbiw	r24, 0x01	; 1
 53e:	80 68       	ori	r24, 0x80	; 128
 540:	96 6c       	ori	r25, 0xC6	; 198
 542:	98 df       	rcall	.-208    	; 0x474 <rf12_trans>
 544:	08 95       	ret

00000546 <rf12_setpower>:
 546:	90 e0       	ldi	r25, 0x00	; 0
 548:	87 70       	andi	r24, 0x07	; 7
 54a:	90 70       	andi	r25, 0x00	; 0
 54c:	98 69       	ori	r25, 0x98	; 152
 54e:	70 e0       	ldi	r23, 0x00	; 0
 550:	a4 e0       	ldi	r26, 0x04	; 4
 552:	66 0f       	add	r22, r22
 554:	77 1f       	adc	r23, r23
 556:	aa 95       	dec	r26
 558:	e1 f7       	brne	.-8      	; 0x552 <rf12_setpower+0xc>
 55a:	70 70       	andi	r23, 0x00	; 0
 55c:	86 2b       	or	r24, r22
 55e:	97 2b       	or	r25, r23
 560:	89 df       	rcall	.-238    	; 0x474 <rf12_trans>
 562:	08 95       	ret

00000564 <rf12_ready>:
 564:	c2 98       	cbi	0x18, 2	; 24
 566:	c0 98       	cbi	0x18, 0	; 24
 568:	00 00       	nop
 56a:	00 00       	nop
 56c:	24 e6       	ldi	r18, 0x64	; 100
 56e:	30 e0       	ldi	r19, 0x00	; 0
 570:	40 ed       	ldi	r20, 0xD0	; 208
 572:	57 e0       	ldi	r21, 0x07	; 7
 574:	05 c0       	rjmp	.+10     	; 0x580 <rf12_ready+0x1c>
 576:	21 50       	subi	r18, 0x01	; 1
 578:	30 40       	sbci	r19, 0x00	; 0
 57a:	ca 01       	movw	r24, r20
 57c:	01 97       	sbiw	r24, 0x01	; 1
 57e:	f1 f7       	brne	.-4      	; 0x57c <rf12_ready+0x18>
 580:	b3 99       	sbic	0x16, 3	; 22
 582:	03 c0       	rjmp	.+6      	; 0x58a <rf12_ready+0x26>
 584:	21 15       	cp	r18, r1
 586:	31 05       	cpc	r19, r1
 588:	b1 f7       	brne	.-20     	; 0x576 <rf12_ready+0x12>
 58a:	c0 9a       	sbi	0x18, 0	; 24
 58c:	08 95       	ret

0000058e <rf12_readytrans>:
 58e:	0f 93       	push	r16
 590:	1f 93       	push	r17
 592:	8c 01       	movw	r16, r24
 594:	e7 df       	rcall	.-50     	; 0x564 <rf12_ready>
 596:	c8 01       	movw	r24, r16
 598:	6d df       	rcall	.-294    	; 0x474 <rf12_trans>
 59a:	1f 91       	pop	r17
 59c:	0f 91       	pop	r16
 59e:	08 95       	ret

000005a0 <rf12_txdata_start>:
 5a0:	cf 93       	push	r28
 5a2:	df 93       	push	r29
 5a4:	80 e0       	ldi	r24, 0x00	; 0
 5a6:	90 e0       	ldi	r25, 0x00	; 0
 5a8:	65 df       	rcall	.-310    	; 0x474 <rf12_trans>
 5aa:	88 e3       	ldi	r24, 0x38	; 56
 5ac:	92 e8       	ldi	r25, 0x82	; 130
 5ae:	ef df       	rcall	.-34     	; 0x58e <rf12_readytrans>
 5b0:	80 e0       	ldi	r24, 0x00	; 0
 5b2:	90 e0       	ldi	r25, 0x00	; 0
 5b4:	ec df       	rcall	.-40     	; 0x58e <rf12_readytrans>
 5b6:	c0 e0       	ldi	r28, 0x00	; 0
 5b8:	d0 e0       	ldi	r29, 0x00	; 0
 5ba:	8a ea       	ldi	r24, 0xAA	; 170
 5bc:	98 eb       	ldi	r25, 0xB8	; 184
 5be:	e7 df       	rcall	.-50     	; 0x58e <rf12_readytrans>
 5c0:	21 96       	adiw	r28, 0x01	; 1
 5c2:	c5 30       	cpi	r28, 0x05	; 5
 5c4:	d1 05       	cpc	r29, r1
 5c6:	c9 f7       	brne	.-14     	; 0x5ba <rf12_txdata_start+0x1a>
 5c8:	8d e2       	ldi	r24, 0x2D	; 45
 5ca:	98 eb       	ldi	r25, 0xB8	; 184
 5cc:	e0 df       	rcall	.-64     	; 0x58e <rf12_readytrans>
 5ce:	84 ed       	ldi	r24, 0xD4	; 212
 5d0:	98 eb       	ldi	r25, 0xB8	; 184
 5d2:	dd df       	rcall	.-70     	; 0x58e <rf12_readytrans>
 5d4:	80 e0       	ldi	r24, 0x00	; 0
 5d6:	90 e0       	ldi	r25, 0x00	; 0
 5d8:	da df       	rcall	.-76     	; 0x58e <rf12_readytrans>
 5da:	df 91       	pop	r29
 5dc:	cf 91       	pop	r28
 5de:	08 95       	ret

000005e0 <rf12_txdata_send>:
 5e0:	0f 93       	push	r16
 5e2:	1f 93       	push	r17
 5e4:	cf 93       	push	r28
 5e6:	df 93       	push	r29
 5e8:	18 2f       	mov	r17, r24
 5ea:	06 2f       	mov	r16, r22
 5ec:	28 2f       	mov	r18, r24
 5ee:	39 2f       	mov	r19, r25
 5f0:	e9 01       	movw	r28, r18
 5f2:	04 c0       	rjmp	.+8      	; 0x5fc <rf12_txdata_send+0x1c>
 5f4:	89 91       	ld	r24, Y+
 5f6:	90 e0       	ldi	r25, 0x00	; 0
 5f8:	98 6b       	ori	r25, 0xB8	; 184
 5fa:	c9 df       	rcall	.-110    	; 0x58e <rf12_readytrans>
 5fc:	9e 01       	movw	r18, r28
 5fe:	21 1b       	sub	r18, r17
 600:	20 17       	cp	r18, r16
 602:	c0 f3       	brcs	.-16     	; 0x5f4 <rf12_txdata_send+0x14>
 604:	df 91       	pop	r29
 606:	cf 91       	pop	r28
 608:	1f 91       	pop	r17
 60a:	0f 91       	pop	r16
 60c:	08 95       	ret

0000060e <rf12_txdata_end>:
 60e:	88 e0       	ldi	r24, 0x08	; 8
 610:	92 e8       	ldi	r25, 0x82	; 130
 612:	bd df       	rcall	.-134    	; 0x58e <rf12_readytrans>
 614:	08 95       	ret

00000616 <rf12_txdata>:
 616:	ff 92       	push	r15
 618:	0f 93       	push	r16
 61a:	1f 93       	push	r17
 61c:	8c 01       	movw	r16, r24
 61e:	f6 2e       	mov	r15, r22
 620:	bf df       	rcall	.-130    	; 0x5a0 <rf12_txdata_start>
 622:	88 e6       	ldi	r24, 0x68	; 104
 624:	90 e0       	ldi	r25, 0x00	; 0
 626:	64 e0       	ldi	r22, 0x04	; 4
 628:	db df       	rcall	.-74     	; 0x5e0 <rf12_txdata_send>
 62a:	c8 01       	movw	r24, r16
 62c:	6f 2d       	mov	r22, r15
 62e:	d8 df       	rcall	.-80     	; 0x5e0 <rf12_txdata_send>
 630:	ee df       	rcall	.-36     	; 0x60e <rf12_txdata_end>
 632:	1f 91       	pop	r17
 634:	0f 91       	pop	r16
 636:	ff 90       	pop	r15
 638:	08 95       	ret

0000063a <rf12_txdataa>:
 63a:	df 92       	push	r13
 63c:	ef 92       	push	r14
 63e:	ff 92       	push	r15
 640:	0f 93       	push	r16
 642:	1f 93       	push	r17
 644:	8c 01       	movw	r16, r24
 646:	7b 01       	movw	r14, r22
 648:	d4 2e       	mov	r13, r20
 64a:	aa df       	rcall	.-172    	; 0x5a0 <rf12_txdata_start>
 64c:	c8 01       	movw	r24, r16
 64e:	64 e0       	ldi	r22, 0x04	; 4
 650:	c7 df       	rcall	.-114    	; 0x5e0 <rf12_txdata_send>
 652:	c7 01       	movw	r24, r14
 654:	6d 2d       	mov	r22, r13
 656:	c4 df       	rcall	.-120    	; 0x5e0 <rf12_txdata_send>
 658:	da df       	rcall	.-76     	; 0x60e <rf12_txdata_end>
 65a:	1f 91       	pop	r17
 65c:	0f 91       	pop	r16
 65e:	ff 90       	pop	r15
 660:	ef 90       	pop	r14
 662:	df 90       	pop	r13
 664:	08 95       	ret

00000666 <rf12_rxdata>:
 666:	ff 92       	push	r15
 668:	0f 93       	push	r16
 66a:	1f 93       	push	r17
 66c:	cf 93       	push	r28
 66e:	df 93       	push	r29
 670:	8c 01       	movw	r16, r24
 672:	f6 2e       	mov	r15, r22
 674:	88 ec       	ldi	r24, 0xC8	; 200
 676:	92 e8       	ldi	r25, 0x82	; 130
 678:	fd de       	rcall	.-518    	; 0x474 <rf12_trans>
 67a:	81 e8       	ldi	r24, 0x81	; 129
 67c:	9a ec       	ldi	r25, 0xCA	; 202
 67e:	fa de       	rcall	.-524    	; 0x474 <rf12_trans>
 680:	83 e8       	ldi	r24, 0x83	; 131
 682:	9a ec       	ldi	r25, 0xCA	; 202
 684:	f7 de       	rcall	.-530    	; 0x474 <rf12_trans>
 686:	e8 01       	movw	r28, r16
 688:	04 c0       	rjmp	.+8      	; 0x692 <rf12_rxdata+0x2c>
 68a:	80 e0       	ldi	r24, 0x00	; 0
 68c:	90 eb       	ldi	r25, 0xB0	; 176
 68e:	7f df       	rcall	.-258    	; 0x58e <rf12_readytrans>
 690:	89 93       	st	Y+, r24
 692:	9e 01       	movw	r18, r28
 694:	20 1b       	sub	r18, r16
 696:	2f 15       	cp	r18, r15
 698:	c0 f3       	brcs	.-16     	; 0x68a <rf12_rxdata+0x24>
 69a:	88 e0       	ldi	r24, 0x08	; 8
 69c:	92 e8       	ldi	r25, 0x82	; 130
 69e:	ea de       	rcall	.-556    	; 0x474 <rf12_trans>
 6a0:	df 91       	pop	r29
 6a2:	cf 91       	pop	r28
 6a4:	1f 91       	pop	r17
 6a6:	0f 91       	pop	r16
 6a8:	ff 90       	pop	r15
 6aa:	08 95       	ret

000006ac <rf12_preinit>:
 6ac:	fc 01       	movw	r30, r24
 6ae:	80 81       	ld	r24, Z
 6b0:	91 81       	ldd	r25, Z+1	; 0x01
 6b2:	a2 81       	ldd	r26, Z+2	; 0x02
 6b4:	b3 81       	ldd	r27, Z+3	; 0x03
 6b6:	80 93 68 00 	sts	0x0068, r24
 6ba:	90 93 69 00 	sts	0x0069, r25
 6be:	a0 93 6a 00 	sts	0x006A, r26
 6c2:	b0 93 6b 00 	sts	0x006B, r27
 6c6:	87 e1       	ldi	r24, 0x17	; 23
 6c8:	87 bb       	out	0x17, r24	; 23
 6ca:	81 e0       	ldi	r24, 0x01	; 1
 6cc:	88 bb       	out	0x18, r24	; 24
 6ce:	c4 9a       	sbi	0x18, 4	; 24
 6d0:	80 e0       	ldi	r24, 0x00	; 0
 6d2:	90 e0       	ldi	r25, 0x00	; 0
 6d4:	20 e2       	ldi	r18, 0x20	; 32
 6d6:	3e e4       	ldi	r19, 0x4E	; 78
 6d8:	f9 01       	movw	r30, r18
 6da:	31 97       	sbiw	r30, 0x01	; 1
 6dc:	f1 f7       	brne	.-4      	; 0x6da <rf12_preinit+0x2e>
 6de:	01 96       	adiw	r24, 0x01	; 1
 6e0:	84 36       	cpi	r24, 0x64	; 100
 6e2:	91 05       	cpc	r25, r1
 6e4:	c9 f7       	brne	.-14     	; 0x6d8 <rf12_preinit+0x2c>
 6e6:	08 95       	ret

000006e8 <__divmodsi4>:
 6e8:	97 fb       	bst	r25, 7
 6ea:	09 2e       	mov	r0, r25
 6ec:	05 26       	eor	r0, r21
 6ee:	0e d0       	rcall	.+28     	; 0x70c <__divmodsi4_neg1>
 6f0:	57 fd       	sbrc	r21, 7
 6f2:	04 d0       	rcall	.+8      	; 0x6fc <__divmodsi4_neg2>
 6f4:	14 d0       	rcall	.+40     	; 0x71e <__udivmodsi4>
 6f6:	0a d0       	rcall	.+20     	; 0x70c <__divmodsi4_neg1>
 6f8:	00 1c       	adc	r0, r0
 6fa:	38 f4       	brcc	.+14     	; 0x70a <__divmodsi4_exit>

000006fc <__divmodsi4_neg2>:
 6fc:	50 95       	com	r21
 6fe:	40 95       	com	r20
 700:	30 95       	com	r19
 702:	21 95       	neg	r18
 704:	3f 4f       	sbci	r19, 0xFF	; 255
 706:	4f 4f       	sbci	r20, 0xFF	; 255
 708:	5f 4f       	sbci	r21, 0xFF	; 255

0000070a <__divmodsi4_exit>:
 70a:	08 95       	ret

0000070c <__divmodsi4_neg1>:
 70c:	f6 f7       	brtc	.-4      	; 0x70a <__divmodsi4_exit>
 70e:	90 95       	com	r25
 710:	80 95       	com	r24
 712:	70 95       	com	r23
 714:	61 95       	neg	r22
 716:	7f 4f       	sbci	r23, 0xFF	; 255
 718:	8f 4f       	sbci	r24, 0xFF	; 255
 71a:	9f 4f       	sbci	r25, 0xFF	; 255
 71c:	08 95       	ret

0000071e <__udivmodsi4>:
 71e:	a1 e2       	ldi	r26, 0x21	; 33
 720:	1a 2e       	mov	r1, r26
 722:	aa 1b       	sub	r26, r26
 724:	bb 1b       	sub	r27, r27
 726:	fd 01       	movw	r30, r26
 728:	0d c0       	rjmp	.+26     	; 0x744 <__udivmodsi4_ep>

0000072a <__udivmodsi4_loop>:
 72a:	aa 1f       	adc	r26, r26
 72c:	bb 1f       	adc	r27, r27
 72e:	ee 1f       	adc	r30, r30
 730:	ff 1f       	adc	r31, r31
 732:	a2 17       	cp	r26, r18
 734:	b3 07       	cpc	r27, r19
 736:	e4 07       	cpc	r30, r20
 738:	f5 07       	cpc	r31, r21
 73a:	20 f0       	brcs	.+8      	; 0x744 <__udivmodsi4_ep>
 73c:	a2 1b       	sub	r26, r18
 73e:	b3 0b       	sbc	r27, r19
 740:	e4 0b       	sbc	r30, r20
 742:	f5 0b       	sbc	r31, r21

00000744 <__udivmodsi4_ep>:
 744:	66 1f       	adc	r22, r22
 746:	77 1f       	adc	r23, r23
 748:	88 1f       	adc	r24, r24
 74a:	99 1f       	adc	r25, r25
 74c:	1a 94       	dec	r1
 74e:	69 f7       	brne	.-38     	; 0x72a <__udivmodsi4_loop>
 750:	60 95       	com	r22
 752:	70 95       	com	r23
 754:	80 95       	com	r24
 756:	90 95       	com	r25
 758:	9b 01       	movw	r18, r22
 75a:	ac 01       	movw	r20, r24
 75c:	bd 01       	movw	r22, r26
 75e:	cf 01       	movw	r24, r30
 760:	08 95       	ret

00000762 <_exit>:
 762:	f8 94       	cli

00000764 <__stop_program>:
 764:	ff cf       	rjmp	.-2      	; 0x764 <__stop_program>
