
MiniWordClock.elf:     file format elf32-avr

Sections:
Idx Name          Size      VMA       LMA       File off  Algn
  0 .text         00000e1c  00000000  00000000  00000094  2**1
                  CONTENTS, ALLOC, LOAD, READONLY, CODE
  1 .data         00000028  00800060  00000e1c  00000eb0  2**0
                  CONTENTS, ALLOC, LOAD, DATA
  2 .bss          00000027  00800088  00800088  00000ed8  2**0
                  ALLOC
  3 .stab         000006cc  00000000  00000000  00000ed8  2**2
                  CONTENTS, READONLY, DEBUGGING
  4 .stabstr      00000054  00000000  00000000  000015a4  2**0
                  CONTENTS, READONLY, DEBUGGING

Disassembly of section .text:

00000000 <__vectors>:
   0:	33 c0       	rjmp	.+102    	; 0x68 <__ctors_end>
   2:	4d c0       	rjmp	.+154    	; 0x9e <__bad_interrupt>
   4:	4c c0       	rjmp	.+152    	; 0x9e <__bad_interrupt>
   6:	4b c0       	rjmp	.+150    	; 0x9e <__bad_interrupt>
   8:	c5 c5       	rjmp	.+2954   	; 0xb94 <__vector_4>
   a:	49 c0       	rjmp	.+146    	; 0x9e <__bad_interrupt>
   c:	ed c5       	rjmp	.+3034   	; 0xbe8 <__vector_6>
   e:	47 c0       	rjmp	.+142    	; 0x9e <__bad_interrupt>
  10:	46 c0       	rjmp	.+140    	; 0x9e <__bad_interrupt>
  12:	45 c0       	rjmp	.+138    	; 0x9e <__bad_interrupt>
  14:	44 c0       	rjmp	.+136    	; 0x9e <__bad_interrupt>
  16:	43 c0       	rjmp	.+134    	; 0x9e <__bad_interrupt>
  18:	42 c0       	rjmp	.+132    	; 0x9e <__bad_interrupt>
  1a:	41 c0       	rjmp	.+130    	; 0x9e <__bad_interrupt>
  1c:	40 c0       	rjmp	.+128    	; 0x9e <__bad_interrupt>
  1e:	3f c0       	rjmp	.+126    	; 0x9e <__bad_interrupt>
  20:	3e c0       	rjmp	.+124    	; 0x9e <__bad_interrupt>
  22:	3d c0       	rjmp	.+122    	; 0x9e <__bad_interrupt>
  24:	3c c0       	rjmp	.+120    	; 0x9e <__bad_interrupt>

00000026 <__c.1733>:
  26:	0d 0a 57 6f 72 64 43 6c 6f 63 6b 20 56 31 2e 30     ..WordClock V1.0
  36:	2e 30 2c 20 44 65 7a 2e 32 30 30 39 20 4d 61 72     .0, Dez.2009 Mar
  46:	74 69 6e 20 53 74 65 70 70 75 68 6e 20 28 77 77     tin Steppuhn (ww
  56:	77 2e 65 6d 73 79 73 74 65 63 68 2e 64 65 29 0d     w.emsystech.de).
  66:	0a 00                                               ..

00000068 <__ctors_end>:
  68:	11 24       	eor	r1, r1
  6a:	1f be       	out	0x3f, r1	; 63
  6c:	cf e5       	ldi	r28, 0x5F	; 95
  6e:	d4 e0       	ldi	r29, 0x04	; 4
  70:	de bf       	out	0x3e, r29	; 62
  72:	cd bf       	out	0x3d, r28	; 61

00000074 <__do_copy_data>:
  74:	10 e0       	ldi	r17, 0x00	; 0
  76:	a0 e6       	ldi	r26, 0x60	; 96
  78:	b0 e0       	ldi	r27, 0x00	; 0
  7a:	ec e1       	ldi	r30, 0x1C	; 28
  7c:	fe e0       	ldi	r31, 0x0E	; 14
  7e:	02 c0       	rjmp	.+4      	; 0x84 <.do_copy_data_start>

00000080 <.do_copy_data_loop>:
  80:	05 90       	lpm	r0, Z+
  82:	0d 92       	st	X+, r0

00000084 <.do_copy_data_start>:
  84:	a8 38       	cpi	r26, 0x88	; 136
  86:	b1 07       	cpc	r27, r17
  88:	d9 f7       	brne	.-10     	; 0x80 <.do_copy_data_loop>

0000008a <__do_clear_bss>:
  8a:	10 e0       	ldi	r17, 0x00	; 0
  8c:	a8 e8       	ldi	r26, 0x88	; 136
  8e:	b0 e0       	ldi	r27, 0x00	; 0
  90:	01 c0       	rjmp	.+2      	; 0x94 <.do_clear_bss_start>

00000092 <.do_clear_bss_loop>:
  92:	1d 92       	st	X+, r1

00000094 <.do_clear_bss_start>:
  94:	af 3a       	cpi	r26, 0xAF	; 175
  96:	b1 07       	cpc	r27, r17
  98:	e1 f7       	brne	.-8      	; 0x92 <.do_clear_bss_loop>
  9a:	f2 d5       	rcall	.+3044   	; 0xc80 <main>
  9c:	bd c6       	rjmp	.+3450   	; 0xe18 <_exit>

0000009e <__bad_interrupt>:
  9e:	b0 cf       	rjmp	.-160    	; 0x0 <__vectors>

000000a0 <draw_time>:
  a0:	90 91 ad 00 	lds	r25, 0x00AD
  a4:	89 2f       	mov	r24, r25
  a6:	81 50       	subi	r24, 0x01	; 1
  a8:	82 30       	cpi	r24, 0x02	; 2
  aa:	08 f0       	brcs	.+2      	; 0xae <draw_time+0xe>
  ac:	61 c0       	rjmp	.+194    	; 0x170 <draw_time+0xd0>
  ae:	20 91 a8 00 	lds	r18, 0x00A8
  b2:	82 2f       	mov	r24, r18
  b4:	6a e0       	ldi	r22, 0x0A	; 10
  b6:	a4 d6       	rcall	.+3400   	; 0xe00 <__udivmodqi4>
  b8:	e8 2f       	mov	r30, r24
  ba:	ee 0f       	add	r30, r30
  bc:	ee 0f       	add	r30, r30
  be:	f0 e0       	ldi	r31, 0x00	; 0
  c0:	af e8       	ldi	r26, 0x8F	; 143
  c2:	b0 e0       	ldi	r27, 0x00	; 0
  c4:	e0 5a       	subi	r30, 0xA0	; 160
  c6:	ff 4f       	sbci	r31, 0xFF	; 255
  c8:	80 81       	ld	r24, Z
  ca:	80 93 8f 00 	sts	0x008F, r24
  ce:	10 92 90 00 	sts	0x0090, r1
  d2:	81 81       	ldd	r24, Z+1	; 0x01
  d4:	80 93 91 00 	sts	0x0091, r24
  d8:	13 96       	adiw	r26, 0x03	; 3
  da:	1c 92       	st	X, r1
  dc:	13 97       	sbiw	r26, 0x03	; 3
  de:	82 81       	ldd	r24, Z+2	; 0x02
  e0:	80 93 93 00 	sts	0x0093, r24
  e4:	15 96       	adiw	r26, 0x05	; 5
  e6:	1c 92       	st	X, r1
  e8:	15 97       	sbiw	r26, 0x05	; 5
  ea:	83 81       	ldd	r24, Z+3	; 0x03
  ec:	80 93 95 00 	sts	0x0095, r24
  f0:	17 96       	adiw	r26, 0x07	; 7
  f2:	1c 92       	st	X, r1
  f4:	17 97       	sbiw	r26, 0x07	; 7
  f6:	10 92 98 00 	sts	0x0098, r1
  fa:	10 92 97 00 	sts	0x0097, r1
  fe:	82 2f       	mov	r24, r18
 100:	7f d6       	rcall	.+3326   	; 0xe00 <__udivmodqi4>
 102:	e9 2f       	mov	r30, r25
 104:	ee 0f       	add	r30, r30
 106:	ee 0f       	add	r30, r30
 108:	f0 e0       	ldi	r31, 0x00	; 0
 10a:	e0 5a       	subi	r30, 0xA0	; 160
 10c:	ff 4f       	sbci	r31, 0xFF	; 255
 10e:	80 81       	ld	r24, Z
 110:	80 93 99 00 	sts	0x0099, r24
 114:	1b 96       	adiw	r26, 0x0b	; 11
 116:	1c 92       	st	X, r1
 118:	1b 97       	sbiw	r26, 0x0b	; 11
 11a:	81 81       	ldd	r24, Z+1	; 0x01
 11c:	80 93 9b 00 	sts	0x009B, r24
 120:	1d 96       	adiw	r26, 0x0d	; 13
 122:	1c 92       	st	X, r1
 124:	1d 97       	sbiw	r26, 0x0d	; 13
 126:	82 81       	ldd	r24, Z+2	; 0x02
 128:	80 93 9d 00 	sts	0x009D, r24
 12c:	1f 96       	adiw	r26, 0x0f	; 15
 12e:	1c 92       	st	X, r1
 130:	1f 97       	sbiw	r26, 0x0f	; 15
 132:	83 81       	ldd	r24, Z+3	; 0x03
 134:	80 93 9f 00 	sts	0x009F, r24
 138:	51 96       	adiw	r26, 0x11	; 17
 13a:	1c 92       	st	X, r1
 13c:	10 92 a2 00 	sts	0x00A2, r1
 140:	10 92 a1 00 	sts	0x00A1, r1
 144:	80 91 8b 00 	lds	r24, 0x008B
 148:	80 ff       	sbrs	r24, 0
 14a:	0b c0       	rjmp	.+22     	; 0x162 <draw_time+0xc2>
 14c:	84 e4       	ldi	r24, 0x44	; 68
 14e:	90 e0       	ldi	r25, 0x00	; 0
 150:	90 93 a4 00 	sts	0x00A4, r25
 154:	80 93 a3 00 	sts	0x00A3, r24
 158:	10 92 a6 00 	sts	0x00A6, r1
 15c:	10 92 a5 00 	sts	0x00A5, r1
 160:	08 95       	ret
 162:	10 92 a4 00 	sts	0x00A4, r1
 166:	10 92 a3 00 	sts	0x00A3, r1
 16a:	84 e4       	ldi	r24, 0x44	; 68
 16c:	90 e0       	ldi	r25, 0x00	; 0
 16e:	75 c4       	rjmp	.+2282   	; 0xa5a <__stack+0x5fb>
 170:	93 50       	subi	r25, 0x03	; 3
 172:	92 30       	cpi	r25, 0x02	; 2
 174:	08 f0       	brcs	.+2      	; 0x178 <draw_time+0xd8>
 176:	65 c0       	rjmp	.+202    	; 0x242 <draw_time+0x1a2>
 178:	80 91 8b 00 	lds	r24, 0x008B
 17c:	80 ff       	sbrs	r24, 0
 17e:	0b c0       	rjmp	.+22     	; 0x196 <draw_time+0xf6>
 180:	84 e4       	ldi	r24, 0x44	; 68
 182:	90 e0       	ldi	r25, 0x00	; 0
 184:	90 93 90 00 	sts	0x0090, r25
 188:	80 93 8f 00 	sts	0x008F, r24
 18c:	10 92 92 00 	sts	0x0092, r1
 190:	10 92 91 00 	sts	0x0091, r1
 194:	0a c0       	rjmp	.+20     	; 0x1aa <draw_time+0x10a>
 196:	10 92 90 00 	sts	0x0090, r1
 19a:	10 92 8f 00 	sts	0x008F, r1
 19e:	84 e4       	ldi	r24, 0x44	; 68
 1a0:	90 e0       	ldi	r25, 0x00	; 0
 1a2:	90 93 92 00 	sts	0x0092, r25
 1a6:	80 93 91 00 	sts	0x0091, r24
 1aa:	10 92 94 00 	sts	0x0094, r1
 1ae:	10 92 93 00 	sts	0x0093, r1
 1b2:	20 91 8d 00 	lds	r18, 0x008D
 1b6:	82 2f       	mov	r24, r18
 1b8:	6a e0       	ldi	r22, 0x0A	; 10
 1ba:	22 d6       	rcall	.+3140   	; 0xe00 <__udivmodqi4>
 1bc:	e8 2f       	mov	r30, r24
 1be:	ee 0f       	add	r30, r30
 1c0:	ee 0f       	add	r30, r30
 1c2:	f0 e0       	ldi	r31, 0x00	; 0
 1c4:	a5 e9       	ldi	r26, 0x95	; 149
 1c6:	b0 e0       	ldi	r27, 0x00	; 0
 1c8:	e0 5a       	subi	r30, 0xA0	; 160
 1ca:	ff 4f       	sbci	r31, 0xFF	; 255
 1cc:	80 81       	ld	r24, Z
 1ce:	80 93 95 00 	sts	0x0095, r24
 1d2:	10 92 96 00 	sts	0x0096, r1
 1d6:	81 81       	ldd	r24, Z+1	; 0x01
 1d8:	80 93 97 00 	sts	0x0097, r24
 1dc:	13 96       	adiw	r26, 0x03	; 3
 1de:	1c 92       	st	X, r1
 1e0:	13 97       	sbiw	r26, 0x03	; 3
 1e2:	82 81       	ldd	r24, Z+2	; 0x02
 1e4:	80 93 99 00 	sts	0x0099, r24
 1e8:	15 96       	adiw	r26, 0x05	; 5
 1ea:	1c 92       	st	X, r1
 1ec:	15 97       	sbiw	r26, 0x05	; 5
 1ee:	83 81       	ldd	r24, Z+3	; 0x03
 1f0:	80 93 9b 00 	sts	0x009B, r24
 1f4:	17 96       	adiw	r26, 0x07	; 7
 1f6:	1c 92       	st	X, r1
 1f8:	17 97       	sbiw	r26, 0x07	; 7
 1fa:	10 92 9e 00 	sts	0x009E, r1
 1fe:	10 92 9d 00 	sts	0x009D, r1
 202:	82 2f       	mov	r24, r18
 204:	fd d5       	rcall	.+3066   	; 0xe00 <__udivmodqi4>
 206:	e9 2f       	mov	r30, r25
 208:	ee 0f       	add	r30, r30
 20a:	ee 0f       	add	r30, r30
 20c:	f0 e0       	ldi	r31, 0x00	; 0
 20e:	e0 5a       	subi	r30, 0xA0	; 160
 210:	ff 4f       	sbci	r31, 0xFF	; 255
 212:	80 81       	ld	r24, Z
 214:	80 93 9f 00 	sts	0x009F, r24
 218:	1b 96       	adiw	r26, 0x0b	; 11
 21a:	1c 92       	st	X, r1
 21c:	1b 97       	sbiw	r26, 0x0b	; 11
 21e:	81 81       	ldd	r24, Z+1	; 0x01
 220:	80 93 a1 00 	sts	0x00A1, r24
 224:	1d 96       	adiw	r26, 0x0d	; 13
 226:	1c 92       	st	X, r1
 228:	1d 97       	sbiw	r26, 0x0d	; 13
 22a:	82 81       	ldd	r24, Z+2	; 0x02
 22c:	80 93 a3 00 	sts	0x00A3, r24
 230:	1f 96       	adiw	r26, 0x0f	; 15
 232:	1c 92       	st	X, r1
 234:	1f 97       	sbiw	r26, 0x0f	; 15
 236:	83 81       	ldd	r24, Z+3	; 0x03
 238:	80 93 a5 00 	sts	0x00A5, r24
 23c:	51 96       	adiw	r26, 0x11	; 17
 23e:	1c 92       	st	X, r1
 240:	08 95       	ret
 242:	10 92 94 00 	sts	0x0094, r1
 246:	10 92 93 00 	sts	0x0093, r1
 24a:	10 92 96 00 	sts	0x0096, r1
 24e:	10 92 95 00 	sts	0x0095, r1
 252:	10 92 9e 00 	sts	0x009E, r1
 256:	10 92 9d 00 	sts	0x009D, r1
 25a:	10 92 a0 00 	sts	0x00A0, r1
 25e:	10 92 9f 00 	sts	0x009F, r1
 262:	21 e0       	ldi	r18, 0x01	; 1
 264:	30 e0       	ldi	r19, 0x00	; 0
 266:	30 93 90 00 	sts	0x0090, r19
 26a:	20 93 8f 00 	sts	0x008F, r18
 26e:	30 93 92 00 	sts	0x0092, r19
 272:	20 93 91 00 	sts	0x0091, r18
 276:	30 93 98 00 	sts	0x0098, r19
 27a:	20 93 97 00 	sts	0x0097, r18
 27e:	30 93 9a 00 	sts	0x009A, r19
 282:	20 93 99 00 	sts	0x0099, r18
 286:	30 93 9c 00 	sts	0x009C, r19
 28a:	20 93 9b 00 	sts	0x009B, r18
 28e:	80 e0       	ldi	r24, 0x00	; 0
 290:	91 e0       	ldi	r25, 0x01	; 1
 292:	90 93 a2 00 	sts	0x00A2, r25
 296:	80 93 a1 00 	sts	0x00A1, r24
 29a:	90 93 a4 00 	sts	0x00A4, r25
 29e:	80 93 a3 00 	sts	0x00A3, r24
 2a2:	90 93 a6 00 	sts	0x00A6, r25
 2a6:	80 93 a5 00 	sts	0x00A5, r24
 2aa:	a0 91 8d 00 	lds	r26, 0x008D
 2ae:	a5 30       	cpi	r26, 0x05	; 5
 2b0:	f0 f0       	brcs	.+60     	; 0x2ee <draw_time+0x24e>
 2b2:	aa 30       	cpi	r26, 0x0A	; 10
 2b4:	f8 f4       	brcc	.+62     	; 0x2f4 <draw_time+0x254>
 2b6:	83 e0       	ldi	r24, 0x03	; 3
 2b8:	90 e0       	ldi	r25, 0x00	; 0
 2ba:	90 93 98 00 	sts	0x0098, r25
 2be:	80 93 97 00 	sts	0x0097, r24
 2c2:	89 e0       	ldi	r24, 0x09	; 9
 2c4:	90 e0       	ldi	r25, 0x00	; 0
 2c6:	90 93 90 00 	sts	0x0090, r25
 2ca:	80 93 8f 00 	sts	0x008F, r24
 2ce:	8b e0       	ldi	r24, 0x0B	; 11
 2d0:	90 e0       	ldi	r25, 0x00	; 0
 2d2:	90 93 92 00 	sts	0x0092, r25
 2d6:	80 93 91 00 	sts	0x0091, r24
 2da:	8a e0       	ldi	r24, 0x0A	; 10
 2dc:	90 e0       	ldi	r25, 0x00	; 0
 2de:	90 93 94 00 	sts	0x0094, r25
 2e2:	80 93 93 00 	sts	0x0093, r24
 2e6:	90 93 96 00 	sts	0x0096, r25
 2ea:	80 93 95 00 	sts	0x0095, r24
 2ee:	20 91 a8 00 	lds	r18, 0x00A8
 2f2:	f1 c1       	rjmp	.+994    	; 0x6d6 <__stack+0x277>
 2f4:	af 30       	cpi	r26, 0x0F	; 15
 2f6:	38 f4       	brcc	.+14     	; 0x306 <draw_time+0x266>
 2f8:	30 93 a0 00 	sts	0x00A0, r19
 2fc:	20 93 9f 00 	sts	0x009F, r18
 300:	81 e0       	ldi	r24, 0x01	; 1
 302:	91 e0       	ldi	r25, 0x01	; 1
 304:	18 c0       	rjmp	.+48     	; 0x336 <draw_time+0x296>
 306:	a4 31       	cpi	r26, 0x14	; 20
 308:	78 f5       	brcc	.+94     	; 0x368 <draw_time+0x2c8>
 30a:	85 e0       	ldi	r24, 0x05	; 5
 30c:	90 e0       	ldi	r25, 0x00	; 0
 30e:	90 93 9a 00 	sts	0x009A, r25
 312:	80 93 99 00 	sts	0x0099, r24
 316:	90 93 9c 00 	sts	0x009C, r25
 31a:	80 93 9b 00 	sts	0x009B, r24
 31e:	84 e0       	ldi	r24, 0x04	; 4
 320:	90 e0       	ldi	r25, 0x00	; 0
 322:	90 93 9e 00 	sts	0x009E, r25
 326:	80 93 9d 00 	sts	0x009D, r24
 32a:	90 93 a0 00 	sts	0x00A0, r25
 32e:	80 93 9f 00 	sts	0x009F, r24
 332:	84 e0       	ldi	r24, 0x04	; 4
 334:	91 e0       	ldi	r25, 0x01	; 1
 336:	90 93 a2 00 	sts	0x00A2, r25
 33a:	80 93 a1 00 	sts	0x00A1, r24
 33e:	90 93 a4 00 	sts	0x00A4, r25
 342:	80 93 a3 00 	sts	0x00A3, r24
 346:	90 93 a6 00 	sts	0x00A6, r25
 34a:	80 93 a5 00 	sts	0x00A5, r24
 34e:	89 e0       	ldi	r24, 0x09	; 9
 350:	90 e0       	ldi	r25, 0x00	; 0
 352:	90 93 90 00 	sts	0x0090, r25
 356:	80 93 8f 00 	sts	0x008F, r24
 35a:	90 93 92 00 	sts	0x0092, r25
 35e:	80 93 91 00 	sts	0x0091, r24
 362:	88 e0       	ldi	r24, 0x08	; 8
 364:	90 e0       	ldi	r25, 0x00	; 0
 366:	bb cf       	rjmp	.-138    	; 0x2de <draw_time+0x23e>
 368:	a9 31       	cpi	r26, 0x19	; 25
 36a:	a8 f4       	brcc	.+42     	; 0x396 <draw_time+0x2f6>
 36c:	83 e0       	ldi	r24, 0x03	; 3
 36e:	90 e0       	ldi	r25, 0x00	; 0
 370:	90 93 9c 00 	sts	0x009C, r25
 374:	80 93 9b 00 	sts	0x009B, r24
 378:	82 e0       	ldi	r24, 0x02	; 2
 37a:	90 e0       	ldi	r25, 0x00	; 0
 37c:	90 93 9e 00 	sts	0x009E, r25
 380:	80 93 9d 00 	sts	0x009D, r24
 384:	8b e0       	ldi	r24, 0x0B	; 11
 386:	90 e0       	ldi	r25, 0x00	; 0
 388:	90 93 a0 00 	sts	0x00A0, r25
 38c:	80 93 9f 00 	sts	0x009F, r24
 390:	89 e0       	ldi	r24, 0x09	; 9
 392:	91 e0       	ldi	r25, 0x01	; 1
 394:	2b c0       	rjmp	.+86     	; 0x3ec <draw_time+0x34c>
 396:	ae 31       	cpi	r26, 0x1E	; 30
 398:	f8 f4       	brcc	.+62     	; 0x3d8 <draw_time+0x338>
 39a:	23 e0       	ldi	r18, 0x03	; 3
 39c:	30 e0       	ldi	r19, 0x00	; 0
 39e:	30 93 92 00 	sts	0x0092, r19
 3a2:	20 93 91 00 	sts	0x0091, r18
 3a6:	82 e0       	ldi	r24, 0x02	; 2
 3a8:	90 e0       	ldi	r25, 0x00	; 0
 3aa:	90 93 94 00 	sts	0x0094, r25
 3ae:	80 93 93 00 	sts	0x0093, r24
 3b2:	90 93 96 00 	sts	0x0096, r25
 3b6:	80 93 95 00 	sts	0x0095, r24
 3ba:	30 93 98 00 	sts	0x0098, r19
 3be:	20 93 97 00 	sts	0x0097, r18
 3c2:	30 93 9c 00 	sts	0x009C, r19
 3c6:	20 93 9b 00 	sts	0x009B, r18
 3ca:	90 93 9e 00 	sts	0x009E, r25
 3ce:	80 93 9d 00 	sts	0x009D, r24
 3d2:	8a e0       	ldi	r24, 0x0A	; 10
 3d4:	90 e0       	ldi	r25, 0x00	; 0
 3d6:	04 c0       	rjmp	.+8      	; 0x3e0 <draw_time+0x340>
 3d8:	a3 32       	cpi	r26, 0x23	; 35
 3da:	88 f4       	brcc	.+34     	; 0x3fe <draw_time+0x35e>
 3dc:	88 e0       	ldi	r24, 0x08	; 8
 3de:	90 e0       	ldi	r25, 0x00	; 0
 3e0:	90 93 a0 00 	sts	0x00A0, r25
 3e4:	80 93 9f 00 	sts	0x009F, r24
 3e8:	88 e0       	ldi	r24, 0x08	; 8
 3ea:	91 e0       	ldi	r25, 0x01	; 1
 3ec:	90 93 a2 00 	sts	0x00A2, r25
 3f0:	80 93 a1 00 	sts	0x00A1, r24
 3f4:	90 93 a4 00 	sts	0x00A4, r25
 3f8:	80 93 a3 00 	sts	0x00A3, r24
 3fc:	50 c0       	rjmp	.+160    	; 0x49e <__stack+0x3f>
 3fe:	a8 32       	cpi	r26, 0x28	; 40
 400:	08 f0       	brcs	.+2      	; 0x404 <draw_time+0x364>
 402:	52 c0       	rjmp	.+164    	; 0x4a8 <__stack+0x49>
 404:	20 91 91 00 	lds	r18, 0x0091
 408:	30 91 92 00 	lds	r19, 0x0092
 40c:	40 91 93 00 	lds	r20, 0x0093
 410:	50 91 94 00 	lds	r21, 0x0094
 414:	60 91 95 00 	lds	r22, 0x0095
 418:	70 91 96 00 	lds	r23, 0x0096
 41c:	80 91 97 00 	lds	r24, 0x0097
 420:	90 91 98 00 	lds	r25, 0x0098
 424:	82 60       	ori	r24, 0x02	; 2
 426:	90 93 98 00 	sts	0x0098, r25
 42a:	80 93 97 00 	sts	0x0097, r24
 42e:	80 91 8f 00 	lds	r24, 0x008F
 432:	90 91 90 00 	lds	r25, 0x0090
 436:	88 60       	ori	r24, 0x08	; 8
 438:	90 93 90 00 	sts	0x0090, r25
 43c:	80 93 8f 00 	sts	0x008F, r24
 440:	2a 60       	ori	r18, 0x0A	; 10
 442:	30 93 92 00 	sts	0x0092, r19
 446:	20 93 91 00 	sts	0x0091, r18
 44a:	4a 60       	ori	r20, 0x0A	; 10
 44c:	50 93 94 00 	sts	0x0094, r21
 450:	40 93 93 00 	sts	0x0093, r20
 454:	6a 60       	ori	r22, 0x0A	; 10
 456:	70 93 96 00 	sts	0x0096, r23
 45a:	60 93 95 00 	sts	0x0095, r22
 45e:	80 91 9f 00 	lds	r24, 0x009F
 462:	90 91 a0 00 	lds	r25, 0x00A0
 466:	88 60       	ori	r24, 0x08	; 8
 468:	90 93 a0 00 	sts	0x00A0, r25
 46c:	80 93 9f 00 	sts	0x009F, r24
 470:	80 91 a1 00 	lds	r24, 0x00A1
 474:	90 91 a2 00 	lds	r25, 0x00A2
 478:	88 60       	ori	r24, 0x08	; 8
 47a:	90 93 a2 00 	sts	0x00A2, r25
 47e:	80 93 a1 00 	sts	0x00A1, r24
 482:	80 91 a3 00 	lds	r24, 0x00A3
 486:	90 91 a4 00 	lds	r25, 0x00A4
 48a:	88 60       	ori	r24, 0x08	; 8
 48c:	90 93 a4 00 	sts	0x00A4, r25
 490:	80 93 a3 00 	sts	0x00A3, r24
 494:	80 91 a5 00 	lds	r24, 0x00A5
 498:	90 91 a6 00 	lds	r25, 0x00A6
 49c:	88 60       	ori	r24, 0x08	; 8
 49e:	90 93 a6 00 	sts	0x00A6, r25
 4a2:	80 93 a5 00 	sts	0x00A5, r24
 4a6:	14 c1       	rjmp	.+552    	; 0x6d0 <__stack+0x271>
 4a8:	ad 32       	cpi	r26, 0x2D	; 45
 4aa:	08 f0       	brcs	.+2      	; 0x4ae <__stack+0x4f>
 4ac:	49 c0       	rjmp	.+146    	; 0x540 <__stack+0xe1>
 4ae:	20 91 9f 00 	lds	r18, 0x009F
 4b2:	30 91 a0 00 	lds	r19, 0x00A0
 4b6:	40 91 a1 00 	lds	r20, 0x00A1
 4ba:	50 91 a2 00 	lds	r21, 0x00A2
 4be:	60 91 a3 00 	lds	r22, 0x00A3
 4c2:	70 91 a4 00 	lds	r23, 0x00A4
 4c6:	e0 91 a5 00 	lds	r30, 0x00A5
 4ca:	f0 91 a6 00 	lds	r31, 0x00A6
 4ce:	80 91 8f 00 	lds	r24, 0x008F
 4d2:	90 91 90 00 	lds	r25, 0x0090
 4d6:	88 60       	ori	r24, 0x08	; 8
 4d8:	90 93 90 00 	sts	0x0090, r25
 4dc:	80 93 8f 00 	sts	0x008F, r24
 4e0:	80 91 91 00 	lds	r24, 0x0091
 4e4:	90 91 92 00 	lds	r25, 0x0092
 4e8:	88 60       	ori	r24, 0x08	; 8
 4ea:	90 93 92 00 	sts	0x0092, r25
 4ee:	80 93 91 00 	sts	0x0091, r24
 4f2:	80 91 93 00 	lds	r24, 0x0093
 4f6:	90 91 94 00 	lds	r25, 0x0094
 4fa:	88 60       	ori	r24, 0x08	; 8
 4fc:	90 93 94 00 	sts	0x0094, r25
 500:	80 93 93 00 	sts	0x0093, r24
 504:	80 91 95 00 	lds	r24, 0x0095
 508:	90 91 96 00 	lds	r25, 0x0096
 50c:	88 60       	ori	r24, 0x08	; 8
 50e:	90 93 96 00 	sts	0x0096, r25
 512:	80 93 95 00 	sts	0x0095, r24
 516:	29 60       	ori	r18, 0x09	; 9
 518:	30 93 a0 00 	sts	0x00A0, r19
 51c:	20 93 9f 00 	sts	0x009F, r18
 520:	49 60       	ori	r20, 0x09	; 9
 522:	50 93 a2 00 	sts	0x00A2, r21
 526:	40 93 a1 00 	sts	0x00A1, r20
 52a:	69 60       	ori	r22, 0x09	; 9
 52c:	70 93 a4 00 	sts	0x00A4, r23
 530:	60 93 a3 00 	sts	0x00A3, r22
 534:	e9 60       	ori	r30, 0x09	; 9
 536:	f0 93 a6 00 	sts	0x00A6, r31
 53a:	e0 93 a5 00 	sts	0x00A5, r30
 53e:	c8 c0       	rjmp	.+400    	; 0x6d0 <__stack+0x271>
 540:	a2 33       	cpi	r26, 0x32	; 50
 542:	08 f0       	brcs	.+2      	; 0x546 <__stack+0xe7>
 544:	49 c0       	rjmp	.+146    	; 0x5d8 <__stack+0x179>
 546:	20 91 99 00 	lds	r18, 0x0099
 54a:	30 91 9a 00 	lds	r19, 0x009A
 54e:	40 91 9b 00 	lds	r20, 0x009B
 552:	50 91 9c 00 	lds	r21, 0x009C
 556:	80 91 9d 00 	lds	r24, 0x009D
 55a:	90 91 9e 00 	lds	r25, 0x009E
 55e:	84 60       	ori	r24, 0x04	; 4
 560:	90 93 9e 00 	sts	0x009E, r25
 564:	80 93 9d 00 	sts	0x009D, r24
 568:	80 91 9f 00 	lds	r24, 0x009F
 56c:	90 91 a0 00 	lds	r25, 0x00A0
 570:	84 60       	ori	r24, 0x04	; 4
 572:	90 93 a0 00 	sts	0x00A0, r25
 576:	80 93 9f 00 	sts	0x009F, r24
 57a:	80 91 a1 00 	lds	r24, 0x00A1
 57e:	90 91 a2 00 	lds	r25, 0x00A2
 582:	84 60       	ori	r24, 0x04	; 4
 584:	90 93 a2 00 	sts	0x00A2, r25
 588:	80 93 a1 00 	sts	0x00A1, r24
 58c:	80 91 a3 00 	lds	r24, 0x00A3
 590:	90 91 a4 00 	lds	r25, 0x00A4
 594:	84 60       	ori	r24, 0x04	; 4
 596:	90 93 a4 00 	sts	0x00A4, r25
 59a:	80 93 a3 00 	sts	0x00A3, r24
 59e:	80 91 a5 00 	lds	r24, 0x00A5
 5a2:	90 91 a6 00 	lds	r25, 0x00A6
 5a6:	84 60       	ori	r24, 0x04	; 4
 5a8:	90 93 a6 00 	sts	0x00A6, r25
 5ac:	80 93 a5 00 	sts	0x00A5, r24
 5b0:	80 91 97 00 	lds	r24, 0x0097
 5b4:	90 91 98 00 	lds	r25, 0x0098
 5b8:	88 60       	ori	r24, 0x08	; 8
 5ba:	90 93 98 00 	sts	0x0098, r25
 5be:	80 93 97 00 	sts	0x0097, r24
 5c2:	2c 60       	ori	r18, 0x0C	; 12
 5c4:	30 93 9a 00 	sts	0x009A, r19
 5c8:	20 93 99 00 	sts	0x0099, r18
 5cc:	4c 60       	ori	r20, 0x0C	; 12
 5ce:	50 93 9c 00 	sts	0x009C, r21
 5d2:	40 93 9b 00 	sts	0x009B, r20
 5d6:	7c c0       	rjmp	.+248    	; 0x6d0 <__stack+0x271>
 5d8:	a7 33       	cpi	r26, 0x37	; 55
 5da:	b8 f5       	brcc	.+110    	; 0x64a <__stack+0x1eb>
 5dc:	20 91 9f 00 	lds	r18, 0x009F
 5e0:	30 91 a0 00 	lds	r19, 0x00A0
 5e4:	80 91 a1 00 	lds	r24, 0x00A1
 5e8:	90 91 a2 00 	lds	r25, 0x00A2
 5ec:	81 60       	ori	r24, 0x01	; 1
 5ee:	90 93 a2 00 	sts	0x00A2, r25
 5f2:	80 93 a1 00 	sts	0x00A1, r24
 5f6:	80 91 a3 00 	lds	r24, 0x00A3
 5fa:	90 91 a4 00 	lds	r25, 0x00A4
 5fe:	81 60       	ori	r24, 0x01	; 1
 600:	90 93 a4 00 	sts	0x00A4, r25
 604:	80 93 a3 00 	sts	0x00A3, r24
 608:	80 91 a5 00 	lds	r24, 0x00A5
 60c:	90 91 a6 00 	lds	r25, 0x00A6
 610:	81 60       	ori	r24, 0x01	; 1
 612:	90 93 a6 00 	sts	0x00A6, r25
 616:	80 93 a5 00 	sts	0x00A5, r24
 61a:	80 91 9b 00 	lds	r24, 0x009B
 61e:	90 91 9c 00 	lds	r25, 0x009C
 622:	82 60       	ori	r24, 0x02	; 2
 624:	90 93 9c 00 	sts	0x009C, r25
 628:	80 93 9b 00 	sts	0x009B, r24
 62c:	80 91 9d 00 	lds	r24, 0x009D
 630:	90 91 9e 00 	lds	r25, 0x009E
 634:	82 60       	ori	r24, 0x02	; 2
 636:	90 93 9e 00 	sts	0x009E, r25
 63a:	80 93 9d 00 	sts	0x009D, r24
 63e:	23 60       	ori	r18, 0x03	; 3
 640:	30 93 a0 00 	sts	0x00A0, r19
 644:	20 93 9f 00 	sts	0x009F, r18
 648:	43 c0       	rjmp	.+134    	; 0x6d0 <__stack+0x271>
 64a:	ac 33       	cpi	r26, 0x3C	; 60
 64c:	10 f0       	brcs	.+4      	; 0x652 <__stack+0x1f3>
 64e:	20 e0       	ldi	r18, 0x00	; 0
 650:	42 c0       	rjmp	.+132    	; 0x6d6 <__stack+0x277>
 652:	80 91 91 00 	lds	r24, 0x0091
 656:	90 91 92 00 	lds	r25, 0x0092
 65a:	82 60       	ori	r24, 0x02	; 2
 65c:	90 93 92 00 	sts	0x0092, r25
 660:	80 93 91 00 	sts	0x0091, r24
 664:	80 91 93 00 	lds	r24, 0x0093
 668:	90 91 94 00 	lds	r25, 0x0094
 66c:	82 60       	ori	r24, 0x02	; 2
 66e:	90 93 94 00 	sts	0x0094, r25
 672:	80 93 93 00 	sts	0x0093, r24
 676:	80 91 95 00 	lds	r24, 0x0095
 67a:	90 91 96 00 	lds	r25, 0x0096
 67e:	82 60       	ori	r24, 0x02	; 2
 680:	90 93 96 00 	sts	0x0096, r25
 684:	80 93 95 00 	sts	0x0095, r24
 688:	80 91 97 00 	lds	r24, 0x0097
 68c:	90 91 98 00 	lds	r25, 0x0098
 690:	82 60       	ori	r24, 0x02	; 2
 692:	90 93 98 00 	sts	0x0098, r25
 696:	80 93 97 00 	sts	0x0097, r24
 69a:	80 91 9b 00 	lds	r24, 0x009B
 69e:	90 91 9c 00 	lds	r25, 0x009C
 6a2:	82 60       	ori	r24, 0x02	; 2
 6a4:	90 93 9c 00 	sts	0x009C, r25
 6a8:	80 93 9b 00 	sts	0x009B, r24
 6ac:	80 91 9d 00 	lds	r24, 0x009D
 6b0:	90 91 9e 00 	lds	r25, 0x009E
 6b4:	82 60       	ori	r24, 0x02	; 2
 6b6:	90 93 9e 00 	sts	0x009E, r25
 6ba:	80 93 9d 00 	sts	0x009D, r24
 6be:	80 91 9f 00 	lds	r24, 0x009F
 6c2:	90 91 a0 00 	lds	r25, 0x00A0
 6c6:	82 60       	ori	r24, 0x02	; 2
 6c8:	90 93 a0 00 	sts	0x00A0, r25
 6cc:	80 93 9f 00 	sts	0x009F, r24
 6d0:	20 91 a8 00 	lds	r18, 0x00A8
 6d4:	2f 5f       	subi	r18, 0xFF	; 255
 6d6:	8a 2f       	mov	r24, r26
 6d8:	65 e0       	ldi	r22, 0x05	; 5
 6da:	92 d3       	rcall	.+1828   	; 0xe00 <__udivmodqi4>
 6dc:	92 30       	cpi	r25, 0x02	; 2
 6de:	f9 f0       	breq	.+62     	; 0x71e <__stack+0x2bf>
 6e0:	93 30       	cpi	r25, 0x03	; 3
 6e2:	20 f4       	brcc	.+8      	; 0x6ec <__stack+0x28d>
 6e4:	91 30       	cpi	r25, 0x01	; 1
 6e6:	09 f0       	breq	.+2      	; 0x6ea <__stack+0x28b>
 6e8:	52 c0       	rjmp	.+164    	; 0x78e <__stack+0x32f>
 6ea:	06 c0       	rjmp	.+12     	; 0x6f8 <__stack+0x299>
 6ec:	93 30       	cpi	r25, 0x03	; 3
 6ee:	51 f1       	breq	.+84     	; 0x744 <__stack+0x2e5>
 6f0:	94 30       	cpi	r25, 0x04	; 4
 6f2:	09 f0       	breq	.+2      	; 0x6f6 <__stack+0x297>
 6f4:	4c c0       	rjmp	.+152    	; 0x78e <__stack+0x32f>
 6f6:	39 c0       	rjmp	.+114    	; 0x76a <__stack+0x30b>
 6f8:	80 91 8f 00 	lds	r24, 0x008F
 6fc:	90 91 90 00 	lds	r25, 0x0090
 700:	92 60       	ori	r25, 0x02	; 2
 702:	90 93 90 00 	sts	0x0090, r25
 706:	80 93 8f 00 	sts	0x008F, r24
 70a:	80 91 91 00 	lds	r24, 0x0091
 70e:	90 91 92 00 	lds	r25, 0x0092
 712:	92 60       	ori	r25, 0x02	; 2
 714:	90 93 92 00 	sts	0x0092, r25
 718:	80 93 91 00 	sts	0x0091, r24
 71c:	38 c0       	rjmp	.+112    	; 0x78e <__stack+0x32f>
 71e:	80 91 95 00 	lds	r24, 0x0095
 722:	90 91 96 00 	lds	r25, 0x0096
 726:	92 60       	ori	r25, 0x02	; 2
 728:	90 93 96 00 	sts	0x0096, r25
 72c:	80 93 95 00 	sts	0x0095, r24
 730:	80 91 97 00 	lds	r24, 0x0097
 734:	90 91 98 00 	lds	r25, 0x0098
 738:	92 60       	ori	r25, 0x02	; 2
 73a:	90 93 98 00 	sts	0x0098, r25
 73e:	80 93 97 00 	sts	0x0097, r24
 742:	25 c0       	rjmp	.+74     	; 0x78e <__stack+0x32f>
 744:	80 91 9b 00 	lds	r24, 0x009B
 748:	90 91 9c 00 	lds	r25, 0x009C
 74c:	92 60       	ori	r25, 0x02	; 2
 74e:	90 93 9c 00 	sts	0x009C, r25
 752:	80 93 9b 00 	sts	0x009B, r24
 756:	80 91 9d 00 	lds	r24, 0x009D
 75a:	90 91 9e 00 	lds	r25, 0x009E
 75e:	92 60       	ori	r25, 0x02	; 2
 760:	90 93 9e 00 	sts	0x009E, r25
 764:	80 93 9d 00 	sts	0x009D, r24
 768:	12 c0       	rjmp	.+36     	; 0x78e <__stack+0x32f>
 76a:	80 91 a1 00 	lds	r24, 0x00A1
 76e:	90 91 a2 00 	lds	r25, 0x00A2
 772:	92 60       	ori	r25, 0x02	; 2
 774:	90 93 a2 00 	sts	0x00A2, r25
 778:	80 93 a1 00 	sts	0x00A1, r24
 77c:	80 91 a3 00 	lds	r24, 0x00A3
 780:	90 91 a4 00 	lds	r25, 0x00A4
 784:	92 60       	ori	r25, 0x02	; 2
 786:	90 93 a4 00 	sts	0x00A4, r25
 78a:	80 93 a3 00 	sts	0x00A3, r24
 78e:	22 23       	and	r18, r18
 790:	51 f5       	brne	.+84     	; 0x7e6 <__stack+0x387>
 792:	80 91 91 00 	lds	r24, 0x0091
 796:	90 91 92 00 	lds	r25, 0x0092
 79a:	91 60       	ori	r25, 0x01	; 1
 79c:	90 93 92 00 	sts	0x0092, r25
 7a0:	80 93 91 00 	sts	0x0091, r24
 7a4:	80 91 93 00 	lds	r24, 0x0093
 7a8:	90 91 94 00 	lds	r25, 0x0094
 7ac:	91 60       	ori	r25, 0x01	; 1
 7ae:	90 93 94 00 	sts	0x0094, r25
 7b2:	80 93 93 00 	sts	0x0093, r24
 7b6:	80 91 95 00 	lds	r24, 0x0095
 7ba:	90 91 96 00 	lds	r25, 0x0096
 7be:	91 60       	ori	r25, 0x01	; 1
 7c0:	90 93 96 00 	sts	0x0096, r25
 7c4:	80 93 95 00 	sts	0x0095, r24
 7c8:	80 91 97 00 	lds	r24, 0x0097
 7cc:	90 91 98 00 	lds	r25, 0x0098
 7d0:	91 60       	ori	r25, 0x01	; 1
 7d2:	90 93 98 00 	sts	0x0098, r25
 7d6:	80 93 97 00 	sts	0x0097, r24
 7da:	80 91 99 00 	lds	r24, 0x0099
 7de:	90 91 9a 00 	lds	r25, 0x009A
 7e2:	91 60       	ori	r25, 0x01	; 1
 7e4:	13 c1       	rjmp	.+550    	; 0xa0c <__stack+0x5ad>
 7e6:	21 30       	cpi	r18, 0x01	; 1
 7e8:	09 f5       	brne	.+66     	; 0x82c <__stack+0x3cd>
 7ea:	80 91 9f 00 	lds	r24, 0x009F
 7ee:	90 91 a0 00 	lds	r25, 0x00A0
 7f2:	80 61       	ori	r24, 0x10	; 16
 7f4:	90 93 a0 00 	sts	0x00A0, r25
 7f8:	80 93 9f 00 	sts	0x009F, r24
 7fc:	80 91 a1 00 	lds	r24, 0x00A1
 800:	90 91 a2 00 	lds	r25, 0x00A2
 804:	80 61       	ori	r24, 0x10	; 16
 806:	90 93 a2 00 	sts	0x00A2, r25
 80a:	80 93 a1 00 	sts	0x00A1, r24
 80e:	80 91 a3 00 	lds	r24, 0x00A3
 812:	90 91 a4 00 	lds	r25, 0x00A4
 816:	80 61       	ori	r24, 0x10	; 16
 818:	90 93 a4 00 	sts	0x00A4, r25
 81c:	80 93 a3 00 	sts	0x00A3, r24
 820:	80 91 a5 00 	lds	r24, 0x00A5
 824:	90 91 a6 00 	lds	r25, 0x00A6
 828:	80 61       	ori	r24, 0x10	; 16
 82a:	17 c1       	rjmp	.+558    	; 0xa5a <__stack+0x5fb>
 82c:	22 30       	cpi	r18, 0x02	; 2
 82e:	29 f5       	brne	.+74     	; 0x87a <__stack+0x41b>
 830:	80 91 9b 00 	lds	r24, 0x009B
 834:	90 91 9c 00 	lds	r25, 0x009C
 838:	80 61       	ori	r24, 0x10	; 16
 83a:	90 93 9c 00 	sts	0x009C, r25
 83e:	80 93 9b 00 	sts	0x009B, r24
 842:	80 91 9d 00 	lds	r24, 0x009D
 846:	90 91 9e 00 	lds	r25, 0x009E
 84a:	80 61       	ori	r24, 0x10	; 16
 84c:	90 93 9e 00 	sts	0x009E, r25
 850:	80 93 9d 00 	sts	0x009D, r24
 854:	80 91 9f 00 	lds	r24, 0x009F
 858:	90 91 a0 00 	lds	r25, 0x00A0
 85c:	80 61       	ori	r24, 0x10	; 16
 85e:	90 93 a0 00 	sts	0x00A0, r25
 862:	80 93 9f 00 	sts	0x009F, r24
 866:	80 91 a1 00 	lds	r24, 0x00A1
 86a:	90 91 a2 00 	lds	r25, 0x00A2
 86e:	80 61       	ori	r24, 0x10	; 16
 870:	90 93 a2 00 	sts	0x00A2, r25
 874:	80 93 a1 00 	sts	0x00A1, r24
 878:	08 95       	ret
 87a:	23 30       	cpi	r18, 0x03	; 3
 87c:	09 f5       	brne	.+66     	; 0x8c0 <__stack+0x461>
 87e:	80 91 8f 00 	lds	r24, 0x008F
 882:	90 91 90 00 	lds	r25, 0x0090
 886:	80 68       	ori	r24, 0x80	; 128
 888:	90 93 90 00 	sts	0x0090, r25
 88c:	80 93 8f 00 	sts	0x008F, r24
 890:	80 91 91 00 	lds	r24, 0x0091
 894:	90 91 92 00 	lds	r25, 0x0092
 898:	80 68       	ori	r24, 0x80	; 128
 89a:	90 93 92 00 	sts	0x0092, r25
 89e:	80 93 91 00 	sts	0x0091, r24
 8a2:	80 91 93 00 	lds	r24, 0x0093
 8a6:	90 91 94 00 	lds	r25, 0x0094
 8aa:	80 68       	ori	r24, 0x80	; 128
 8ac:	90 93 94 00 	sts	0x0094, r25
 8b0:	80 93 93 00 	sts	0x0093, r24
 8b4:	80 91 95 00 	lds	r24, 0x0095
 8b8:	90 91 96 00 	lds	r25, 0x0096
 8bc:	80 68       	ori	r24, 0x80	; 128
 8be:	17 c1       	rjmp	.+558    	; 0xaee <__stack+0x68f>
 8c0:	24 30       	cpi	r18, 0x04	; 4
 8c2:	09 f5       	brne	.+66     	; 0x906 <__stack+0x4a7>
 8c4:	80 91 9f 00 	lds	r24, 0x009F
 8c8:	90 91 a0 00 	lds	r25, 0x00A0
 8cc:	80 64       	ori	r24, 0x40	; 64
 8ce:	90 93 a0 00 	sts	0x00A0, r25
 8d2:	80 93 9f 00 	sts	0x009F, r24
 8d6:	80 91 a1 00 	lds	r24, 0x00A1
 8da:	90 91 a2 00 	lds	r25, 0x00A2
 8de:	80 64       	ori	r24, 0x40	; 64
 8e0:	90 93 a2 00 	sts	0x00A2, r25
 8e4:	80 93 a1 00 	sts	0x00A1, r24
 8e8:	80 91 a3 00 	lds	r24, 0x00A3
 8ec:	90 91 a4 00 	lds	r25, 0x00A4
 8f0:	80 64       	ori	r24, 0x40	; 64
 8f2:	90 93 a4 00 	sts	0x00A4, r25
 8f6:	80 93 a3 00 	sts	0x00A3, r24
 8fa:	80 91 a5 00 	lds	r24, 0x00A5
 8fe:	90 91 a6 00 	lds	r25, 0x00A6
 902:	80 64       	ori	r24, 0x40	; 64
 904:	aa c0       	rjmp	.+340    	; 0xa5a <__stack+0x5fb>
 906:	25 30       	cpi	r18, 0x05	; 5
 908:	09 f5       	brne	.+66     	; 0x94c <__stack+0x4ed>
 90a:	80 91 8f 00 	lds	r24, 0x008F
 90e:	90 91 90 00 	lds	r25, 0x0090
 912:	80 61       	ori	r24, 0x10	; 16
 914:	90 93 90 00 	sts	0x0090, r25
 918:	80 93 8f 00 	sts	0x008F, r24
 91c:	80 91 91 00 	lds	r24, 0x0091
 920:	90 91 92 00 	lds	r25, 0x0092
 924:	80 61       	ori	r24, 0x10	; 16
 926:	90 93 92 00 	sts	0x0092, r25
 92a:	80 93 91 00 	sts	0x0091, r24
 92e:	80 91 93 00 	lds	r24, 0x0093
 932:	90 91 94 00 	lds	r25, 0x0094
 936:	80 61       	ori	r24, 0x10	; 16
 938:	90 93 94 00 	sts	0x0094, r25
 93c:	80 93 93 00 	sts	0x0093, r24
 940:	80 91 95 00 	lds	r24, 0x0095
 944:	90 91 96 00 	lds	r25, 0x0096
 948:	80 61       	ori	r24, 0x10	; 16
 94a:	d1 c0       	rjmp	.+418    	; 0xaee <__stack+0x68f>
 94c:	26 30       	cpi	r18, 0x06	; 6
 94e:	51 f5       	brne	.+84     	; 0x9a4 <__stack+0x545>
 950:	80 91 9d 00 	lds	r24, 0x009D
 954:	90 91 9e 00 	lds	r25, 0x009E
 958:	80 62       	ori	r24, 0x20	; 32
 95a:	90 93 9e 00 	sts	0x009E, r25
 95e:	80 93 9d 00 	sts	0x009D, r24
 962:	80 91 9f 00 	lds	r24, 0x009F
 966:	90 91 a0 00 	lds	r25, 0x00A0
 96a:	80 62       	ori	r24, 0x20	; 32
 96c:	90 93 a0 00 	sts	0x00A0, r25
 970:	80 93 9f 00 	sts	0x009F, r24
 974:	80 91 a1 00 	lds	r24, 0x00A1
 978:	90 91 a2 00 	lds	r25, 0x00A2
 97c:	80 62       	ori	r24, 0x20	; 32
 97e:	90 93 a2 00 	sts	0x00A2, r25
 982:	80 93 a1 00 	sts	0x00A1, r24
 986:	80 91 a3 00 	lds	r24, 0x00A3
 98a:	90 91 a4 00 	lds	r25, 0x00A4
 98e:	80 62       	ori	r24, 0x20	; 32
 990:	90 93 a4 00 	sts	0x00A4, r25
 994:	80 93 a3 00 	sts	0x00A3, r24
 998:	80 91 a5 00 	lds	r24, 0x00A5
 99c:	90 91 a6 00 	lds	r25, 0x00A6
 9a0:	80 62       	ori	r24, 0x20	; 32
 9a2:	5b c0       	rjmp	.+182    	; 0xa5a <__stack+0x5fb>
 9a4:	27 30       	cpi	r18, 0x07	; 7
 9a6:	b9 f5       	brne	.+110    	; 0xa16 <__stack+0x5b7>
 9a8:	80 91 8f 00 	lds	r24, 0x008F
 9ac:	90 91 90 00 	lds	r25, 0x0090
 9b0:	80 62       	ori	r24, 0x20	; 32
 9b2:	90 93 90 00 	sts	0x0090, r25
 9b6:	80 93 8f 00 	sts	0x008F, r24
 9ba:	80 91 91 00 	lds	r24, 0x0091
 9be:	90 91 92 00 	lds	r25, 0x0092
 9c2:	80 62       	ori	r24, 0x20	; 32
 9c4:	90 93 92 00 	sts	0x0092, r25
 9c8:	80 93 91 00 	sts	0x0091, r24
 9cc:	80 91 93 00 	lds	r24, 0x0093
 9d0:	90 91 94 00 	lds	r25, 0x0094
 9d4:	80 62       	ori	r24, 0x20	; 32
 9d6:	90 93 94 00 	sts	0x0094, r25
 9da:	80 93 93 00 	sts	0x0093, r24
 9de:	80 91 95 00 	lds	r24, 0x0095
 9e2:	90 91 96 00 	lds	r25, 0x0096
 9e6:	80 62       	ori	r24, 0x20	; 32
 9e8:	90 93 96 00 	sts	0x0096, r25
 9ec:	80 93 95 00 	sts	0x0095, r24
 9f0:	80 91 97 00 	lds	r24, 0x0097
 9f4:	90 91 98 00 	lds	r25, 0x0098
 9f8:	80 62       	ori	r24, 0x20	; 32
 9fa:	90 93 98 00 	sts	0x0098, r25
 9fe:	80 93 97 00 	sts	0x0097, r24
 a02:	80 91 99 00 	lds	r24, 0x0099
 a06:	90 91 9a 00 	lds	r25, 0x009A
 a0a:	80 62       	ori	r24, 0x20	; 32
 a0c:	90 93 9a 00 	sts	0x009A, r25
 a10:	80 93 99 00 	sts	0x0099, r24
 a14:	08 95       	ret
 a16:	28 30       	cpi	r18, 0x08	; 8
 a18:	29 f5       	brne	.+74     	; 0xa64 <__stack+0x605>
 a1a:	80 91 9f 00 	lds	r24, 0x009F
 a1e:	90 91 a0 00 	lds	r25, 0x00A0
 a22:	80 68       	ori	r24, 0x80	; 128
 a24:	90 93 a0 00 	sts	0x00A0, r25
 a28:	80 93 9f 00 	sts	0x009F, r24
 a2c:	80 91 a1 00 	lds	r24, 0x00A1
 a30:	90 91 a2 00 	lds	r25, 0x00A2
 a34:	80 68       	ori	r24, 0x80	; 128
 a36:	90 93 a2 00 	sts	0x00A2, r25
 a3a:	80 93 a1 00 	sts	0x00A1, r24
 a3e:	80 91 a3 00 	lds	r24, 0x00A3
 a42:	90 91 a4 00 	lds	r25, 0x00A4
 a46:	80 68       	ori	r24, 0x80	; 128
 a48:	90 93 a4 00 	sts	0x00A4, r25
 a4c:	80 93 a3 00 	sts	0x00A3, r24
 a50:	80 91 a5 00 	lds	r24, 0x00A5
 a54:	90 91 a6 00 	lds	r25, 0x00A6
 a58:	80 68       	ori	r24, 0x80	; 128
 a5a:	90 93 a6 00 	sts	0x00A6, r25
 a5e:	80 93 a5 00 	sts	0x00A5, r24
 a62:	08 95       	ret
 a64:	29 30       	cpi	r18, 0x09	; 9
 a66:	09 f5       	brne	.+66     	; 0xaaa <__stack+0x64b>
 a68:	80 91 95 00 	lds	r24, 0x0095
 a6c:	90 91 96 00 	lds	r25, 0x0096
 a70:	80 64       	ori	r24, 0x40	; 64
 a72:	90 93 96 00 	sts	0x0096, r25
 a76:	80 93 95 00 	sts	0x0095, r24
 a7a:	80 91 97 00 	lds	r24, 0x0097
 a7e:	90 91 98 00 	lds	r25, 0x0098
 a82:	80 64       	ori	r24, 0x40	; 64
 a84:	90 93 98 00 	sts	0x0098, r25
 a88:	80 93 97 00 	sts	0x0097, r24
 a8c:	80 91 99 00 	lds	r24, 0x0099
 a90:	90 91 9a 00 	lds	r25, 0x009A
 a94:	80 64       	ori	r24, 0x40	; 64
 a96:	90 93 9a 00 	sts	0x009A, r25
 a9a:	80 93 99 00 	sts	0x0099, r24
 a9e:	80 91 9b 00 	lds	r24, 0x009B
 aa2:	90 91 9c 00 	lds	r25, 0x009C
 aa6:	80 64       	ori	r24, 0x40	; 64
 aa8:	40 c0       	rjmp	.+128    	; 0xb2a <__stack+0x6cb>
 aaa:	2a 30       	cpi	r18, 0x0A	; 10
 aac:	29 f5       	brne	.+74     	; 0xaf8 <__stack+0x699>
 aae:	80 91 8f 00 	lds	r24, 0x008F
 ab2:	90 91 90 00 	lds	r25, 0x0090
 ab6:	80 64       	ori	r24, 0x40	; 64
 ab8:	90 93 90 00 	sts	0x0090, r25
 abc:	80 93 8f 00 	sts	0x008F, r24
 ac0:	80 91 91 00 	lds	r24, 0x0091
 ac4:	90 91 92 00 	lds	r25, 0x0092
 ac8:	80 64       	ori	r24, 0x40	; 64
 aca:	90 93 92 00 	sts	0x0092, r25
 ace:	80 93 91 00 	sts	0x0091, r24
 ad2:	80 91 93 00 	lds	r24, 0x0093
 ad6:	90 91 94 00 	lds	r25, 0x0094
 ada:	80 64       	ori	r24, 0x40	; 64
 adc:	90 93 94 00 	sts	0x0094, r25
 ae0:	80 93 93 00 	sts	0x0093, r24
 ae4:	80 91 95 00 	lds	r24, 0x0095
 ae8:	90 91 96 00 	lds	r25, 0x0096
 aec:	80 64       	ori	r24, 0x40	; 64
 aee:	90 93 96 00 	sts	0x0096, r25
 af2:	80 93 95 00 	sts	0x0095, r24
 af6:	08 95       	ret
 af8:	2b 30       	cpi	r18, 0x0B	; 11
 afa:	e1 f4       	brne	.+56     	; 0xb34 <__stack+0x6d5>
 afc:	80 91 97 00 	lds	r24, 0x0097
 b00:	90 91 98 00 	lds	r25, 0x0098
 b04:	80 68       	ori	r24, 0x80	; 128
 b06:	90 93 98 00 	sts	0x0098, r25
 b0a:	80 93 97 00 	sts	0x0097, r24
 b0e:	80 91 99 00 	lds	r24, 0x0099
 b12:	90 91 9a 00 	lds	r25, 0x009A
 b16:	80 68       	ori	r24, 0x80	; 128
 b18:	90 93 9a 00 	sts	0x009A, r25
 b1c:	80 93 99 00 	sts	0x0099, r24
 b20:	80 91 9b 00 	lds	r24, 0x009B
 b24:	90 91 9c 00 	lds	r25, 0x009C
 b28:	80 68       	ori	r24, 0x80	; 128
 b2a:	90 93 9c 00 	sts	0x009C, r25
 b2e:	80 93 9b 00 	sts	0x009B, r24
 b32:	08 95       	ret
 b34:	2c 30       	cpi	r18, 0x0C	; 12
 b36:	69 f5       	brne	.+90     	; 0xb92 <__stack+0x733>
 b38:	80 91 91 00 	lds	r24, 0x0091
 b3c:	90 91 92 00 	lds	r25, 0x0092
 b40:	91 60       	ori	r25, 0x01	; 1
 b42:	90 93 92 00 	sts	0x0092, r25
 b46:	80 93 91 00 	sts	0x0091, r24
 b4a:	80 91 93 00 	lds	r24, 0x0093
 b4e:	90 91 94 00 	lds	r25, 0x0094
 b52:	91 60       	ori	r25, 0x01	; 1
 b54:	90 93 94 00 	sts	0x0094, r25
 b58:	80 93 93 00 	sts	0x0093, r24
 b5c:	80 91 95 00 	lds	r24, 0x0095
 b60:	90 91 96 00 	lds	r25, 0x0096
 b64:	91 60       	ori	r25, 0x01	; 1
 b66:	90 93 96 00 	sts	0x0096, r25
 b6a:	80 93 95 00 	sts	0x0095, r24
 b6e:	80 91 97 00 	lds	r24, 0x0097
 b72:	90 91 98 00 	lds	r25, 0x0098
 b76:	91 60       	ori	r25, 0x01	; 1
 b78:	90 93 98 00 	sts	0x0098, r25
 b7c:	80 93 97 00 	sts	0x0097, r24
 b80:	80 91 99 00 	lds	r24, 0x0099
 b84:	90 91 9a 00 	lds	r25, 0x009A
 b88:	91 60       	ori	r25, 0x01	; 1
 b8a:	90 93 9a 00 	sts	0x009A, r25
 b8e:	80 93 99 00 	sts	0x0099, r24
 b92:	08 95       	ret

00000b94 <__vector_4>:
 b94:	1f 92       	push	r1
 b96:	0f 92       	push	r0
 b98:	0f b6       	in	r0, 0x3f	; 63
 b9a:	0f 92       	push	r0
 b9c:	11 24       	eor	r1, r1
 b9e:	8f 93       	push	r24
 ba0:	80 91 8b 00 	lds	r24, 0x008B
 ba4:	8f 5f       	subi	r24, 0xFF	; 255
 ba6:	80 93 8b 00 	sts	0x008B, r24
 baa:	8c 33       	cpi	r24, 0x3C	; 60
 bac:	a0 f0       	brcs	.+40     	; 0xbd6 <__vector_4+0x42>
 bae:	10 92 8b 00 	sts	0x008B, r1
 bb2:	80 91 8d 00 	lds	r24, 0x008D
 bb6:	8f 5f       	subi	r24, 0xFF	; 255
 bb8:	80 93 8d 00 	sts	0x008D, r24
 bbc:	8c 33       	cpi	r24, 0x3C	; 60
 bbe:	58 f0       	brcs	.+22     	; 0xbd6 <__vector_4+0x42>
 bc0:	10 92 8d 00 	sts	0x008D, r1
 bc4:	80 91 a8 00 	lds	r24, 0x00A8
 bc8:	8f 5f       	subi	r24, 0xFF	; 255
 bca:	80 93 a8 00 	sts	0x00A8, r24
 bce:	8c 30       	cpi	r24, 0x0C	; 12
 bd0:	10 f0       	brcs	.+4      	; 0xbd6 <__vector_4+0x42>
 bd2:	10 92 a8 00 	sts	0x00A8, r1
 bd6:	81 e0       	ldi	r24, 0x01	; 1
 bd8:	80 93 88 00 	sts	0x0088, r24
 bdc:	8f 91       	pop	r24
 bde:	0f 90       	pop	r0
 be0:	0f be       	out	0x3f, r0	; 63
 be2:	0f 90       	pop	r0
 be4:	1f 90       	pop	r1
 be6:	18 95       	reti

00000be8 <__vector_6>:
 be8:	1f 92       	push	r1
 bea:	0f 92       	push	r0
 bec:	0f b6       	in	r0, 0x3f	; 63
 bee:	0f 92       	push	r0
 bf0:	11 24       	eor	r1, r1
 bf2:	2f 93       	push	r18
 bf4:	3f 93       	push	r19
 bf6:	8f 93       	push	r24
 bf8:	9f 93       	push	r25
 bfa:	ef 93       	push	r30
 bfc:	ff 93       	push	r31
 bfe:	80 91 8c 00 	lds	r24, 0x008C
 c02:	8f 5f       	subi	r24, 0xFF	; 255
 c04:	80 93 8c 00 	sts	0x008C, r24
 c08:	8c 30       	cpi	r24, 0x0C	; 12
 c0a:	38 f0       	brcs	.+14     	; 0xc1a <__vector_6+0x32>
 c0c:	81 e0       	ldi	r24, 0x01	; 1
 c0e:	80 93 89 00 	sts	0x0089, r24
 c12:	10 92 8c 00 	sts	0x008C, r1
 c16:	c4 98       	cbi	0x18, 4	; 24
 c18:	01 c0       	rjmp	.+2      	; 0xc1c <__vector_6+0x34>
 c1a:	c4 9a       	sbi	0x18, 4	; 24
 c1c:	c3 9a       	sbi	0x18, 3	; 24
 c1e:	c3 98       	cbi	0x18, 3	; 24
 c20:	85 b3       	in	r24, 0x15	; 21
 c22:	80 7f       	andi	r24, 0xF0	; 240
 c24:	85 bb       	out	0x15, r24	; 21
 c26:	82 b3       	in	r24, 0x12	; 18
 c28:	8f 70       	andi	r24, 0x0F	; 15
 c2a:	82 bb       	out	0x12, r24	; 18
 c2c:	88 b3       	in	r24, 0x18	; 24
 c2e:	8c 7f       	andi	r24, 0xFC	; 252
 c30:	88 bb       	out	0x18, r24	; 24
 c32:	c2 9a       	sbi	0x18, 2	; 24
 c34:	c2 98       	cbi	0x18, 2	; 24
 c36:	e0 91 8c 00 	lds	r30, 0x008C
 c3a:	f0 e0       	ldi	r31, 0x00	; 0
 c3c:	ee 0f       	add	r30, r30
 c3e:	ff 1f       	adc	r31, r31
 c40:	e1 57       	subi	r30, 0x71	; 113
 c42:	ff 4f       	sbci	r31, 0xFF	; 255
 c44:	90 81       	ld	r25, Z
 c46:	21 81       	ldd	r18, Z+1	; 0x01
 c48:	90 93 a9 00 	sts	0x00A9, r25
 c4c:	20 93 aa 00 	sts	0x00AA, r18
 c50:	35 b3       	in	r19, 0x15	; 21
 c52:	89 2f       	mov	r24, r25
 c54:	8f 70       	andi	r24, 0x0F	; 15
 c56:	83 2b       	or	r24, r19
 c58:	85 bb       	out	0x15, r24	; 21
 c5a:	82 b3       	in	r24, 0x12	; 18
 c5c:	90 7f       	andi	r25, 0xF0	; 240
 c5e:	98 2b       	or	r25, r24
 c60:	92 bb       	out	0x12, r25	; 18
 c62:	88 b3       	in	r24, 0x18	; 24
 c64:	23 70       	andi	r18, 0x03	; 3
 c66:	28 2b       	or	r18, r24
 c68:	28 bb       	out	0x18, r18	; 24
 c6a:	ff 91       	pop	r31
 c6c:	ef 91       	pop	r30
 c6e:	9f 91       	pop	r25
 c70:	8f 91       	pop	r24
 c72:	3f 91       	pop	r19
 c74:	2f 91       	pop	r18
 c76:	0f 90       	pop	r0
 c78:	0f be       	out	0x3f, r0	; 63
 c7a:	0f 90       	pop	r0
 c7c:	1f 90       	pop	r1
 c7e:	18 95       	reti

00000c80 <main>:
 c80:	ef 92       	push	r14
 c82:	ff 92       	push	r15
 c84:	0f 93       	push	r16
 c86:	1f 93       	push	r17
 c88:	8f e0       	ldi	r24, 0x0F	; 15
 c8a:	84 bb       	out	0x14, r24	; 20
 c8c:	80 ef       	ldi	r24, 0xF0	; 240
 c8e:	81 bb       	out	0x11, r24	; 17
 c90:	8f e1       	ldi	r24, 0x1F	; 31
 c92:	87 bb       	out	0x17, r24	; 23
 c94:	92 9a       	sbi	0x12, 2	; 18
 c96:	80 b7       	in	r24, 0x30	; 48
 c98:	84 70       	andi	r24, 0x04	; 4
 c9a:	80 bf       	out	0x30, r24	; 48
 c9c:	82 b5       	in	r24, 0x22	; 34
 c9e:	88 60       	ori	r24, 0x08	; 8
 ca0:	82 bd       	out	0x22, r24	; 34
 ca2:	85 e0       	ldi	r24, 0x05	; 5
 ca4:	85 bd       	out	0x25, r24	; 37
 ca6:	1f bc       	out	0x2f, r1	; 47
 ca8:	89 e0       	ldi	r24, 0x09	; 9
 caa:	8e bd       	out	0x2e, r24	; 46
 cac:	8b e0       	ldi	r24, 0x0B	; 11
 cae:	9a e1       	ldi	r25, 0x1A	; 26
 cb0:	9b bd       	out	0x2b, r25	; 43
 cb2:	8a bd       	out	0x2a, r24	; 42
 cb4:	80 e5       	ldi	r24, 0x50	; 80
 cb6:	89 bf       	out	0x39, r24	; 57
 cb8:	77 d0       	rcall	.+238    	; 0xda8 <uart_init>
 cba:	86 e2       	ldi	r24, 0x26	; 38
 cbc:	90 e0       	ldi	r25, 0x00	; 0
 cbe:	92 d0       	rcall	.+292    	; 0xde4 <uart_puts_P>
 cc0:	10 92 a8 00 	sts	0x00A8, r1
 cc4:	10 92 8d 00 	sts	0x008D, r1
 cc8:	10 92 8b 00 	sts	0x008B, r1
 ccc:	78 94       	sei
 cce:	23 e0       	ldi	r18, 0x03	; 3
 cd0:	e2 2e       	mov	r14, r18
 cd2:	11 e0       	ldi	r17, 0x01	; 1
 cd4:	94 e0       	ldi	r25, 0x04	; 4
 cd6:	f9 2e       	mov	r15, r25
 cd8:	02 e0       	ldi	r16, 0x02	; 2
 cda:	80 91 88 00 	lds	r24, 0x0088
 cde:	88 23       	and	r24, r24
 ce0:	19 f1       	breq	.+70     	; 0xd28 <main+0xa8>
 ce2:	10 92 88 00 	sts	0x0088, r1
 ce6:	82 99       	sbic	0x10, 2	; 16
 ce8:	15 c0       	rjmp	.+42     	; 0xd14 <main+0x94>
 cea:	80 91 ae 00 	lds	r24, 0x00AE
 cee:	8f 5f       	subi	r24, 0xFF	; 255
 cf0:	80 93 ae 00 	sts	0x00AE, r24
 cf4:	84 30       	cpi	r24, 0x04	; 4
 cf6:	b8 f0       	brcs	.+46     	; 0xd26 <main+0xa6>
 cf8:	80 91 ad 00 	lds	r24, 0x00AD
 cfc:	82 30       	cpi	r24, 0x02	; 2
 cfe:	39 f0       	breq	.+14     	; 0xd0e <main+0x8e>
 d00:	84 30       	cpi	r24, 0x04	; 4
 d02:	79 f0       	breq	.+30     	; 0xd22 <main+0xa2>
 d04:	88 23       	and	r24, r24
 d06:	79 f4       	brne	.+30     	; 0xd26 <main+0xa6>
 d08:	10 93 ad 00 	sts	0x00AD, r17
 d0c:	0c c0       	rjmp	.+24     	; 0xd26 <main+0xa6>
 d0e:	e0 92 ad 00 	sts	0x00AD, r14
 d12:	09 c0       	rjmp	.+18     	; 0xd26 <main+0xa6>
 d14:	80 91 8a 00 	lds	r24, 0x008A
 d18:	8f 5f       	subi	r24, 0xFF	; 255
 d1a:	80 93 8a 00 	sts	0x008A, r24
 d1e:	86 30       	cpi	r24, 0x06	; 6
 d20:	10 f0       	brcs	.+4      	; 0xd26 <main+0xa6>
 d22:	10 92 ad 00 	sts	0x00AD, r1
 d26:	bc d9       	rcall	.-3208   	; 0xa0 <draw_time>
 d28:	80 91 89 00 	lds	r24, 0x0089
 d2c:	88 23       	and	r24, r24
 d2e:	a9 f2       	breq	.-86     	; 0xcda <main+0x5a>
 d30:	10 92 89 00 	sts	0x0089, r1
 d34:	82 9b       	sbis	0x10, 2	; 16
 d36:	2d c0       	rjmp	.+90     	; 0xd92 <main+0x112>
 d38:	80 91 8e 00 	lds	r24, 0x008E
 d3c:	88 23       	and	r24, r24
 d3e:	49 f1       	breq	.+82     	; 0xd92 <main+0x112>
 d40:	10 92 8e 00 	sts	0x008E, r1
 d44:	80 91 ad 00 	lds	r24, 0x00AD
 d48:	82 30       	cpi	r24, 0x02	; 2
 d4a:	81 f0       	breq	.+32     	; 0xd6c <main+0xec>
 d4c:	83 30       	cpi	r24, 0x03	; 3
 d4e:	18 f4       	brcc	.+6      	; 0xd56 <main+0xd6>
 d50:	81 30       	cpi	r24, 0x01	; 1
 d52:	f9 f4       	brne	.+62     	; 0xd92 <main+0x112>
 d54:	05 c0       	rjmp	.+10     	; 0xd60 <main+0xe0>
 d56:	83 30       	cpi	r24, 0x03	; 3
 d58:	31 f0       	breq	.+12     	; 0xd66 <main+0xe6>
 d5a:	84 30       	cpi	r24, 0x04	; 4
 d5c:	d1 f4       	brne	.+52     	; 0xd92 <main+0x112>
 d5e:	10 c0       	rjmp	.+32     	; 0xd80 <main+0x100>
 d60:	00 93 ad 00 	sts	0x00AD, r16
 d64:	16 c0       	rjmp	.+44     	; 0xd92 <main+0x112>
 d66:	f0 92 ad 00 	sts	0x00AD, r15
 d6a:	13 c0       	rjmp	.+38     	; 0xd92 <main+0x112>
 d6c:	80 91 a8 00 	lds	r24, 0x00A8
 d70:	8b 30       	cpi	r24, 0x0B	; 11
 d72:	10 f0       	brcs	.+4      	; 0xd78 <main+0xf8>
 d74:	80 e0       	ldi	r24, 0x00	; 0
 d76:	01 c0       	rjmp	.+2      	; 0xd7a <main+0xfa>
 d78:	8f 5f       	subi	r24, 0xFF	; 255
 d7a:	80 93 a8 00 	sts	0x00A8, r24
 d7e:	09 c0       	rjmp	.+18     	; 0xd92 <main+0x112>
 d80:	80 91 8d 00 	lds	r24, 0x008D
 d84:	8b 33       	cpi	r24, 0x3B	; 59
 d86:	10 f0       	brcs	.+4      	; 0xd8c <main+0x10c>
 d88:	80 e0       	ldi	r24, 0x00	; 0
 d8a:	01 c0       	rjmp	.+2      	; 0xd8e <main+0x10e>
 d8c:	8f 5f       	subi	r24, 0xFF	; 255
 d8e:	80 93 8d 00 	sts	0x008D, r24
 d92:	82 99       	sbic	0x10, 2	; 16
 d94:	05 c0       	rjmp	.+10     	; 0xda0 <main+0x120>
 d96:	10 93 8e 00 	sts	0x008E, r17
 d9a:	10 92 8a 00 	sts	0x008A, r1
 d9e:	02 c0       	rjmp	.+4      	; 0xda4 <main+0x124>
 da0:	10 92 ae 00 	sts	0x00AE, r1
 da4:	7d d9       	rcall	.-3334   	; 0xa0 <draw_time>
 da6:	99 cf       	rjmp	.-206    	; 0xcda <main+0x5a>

00000da8 <uart_init>:
 da8:	80 b5       	in	r24, 0x20	; 32
 daa:	86 68       	ori	r24, 0x86	; 134
 dac:	80 bd       	out	0x20, r24	; 32
 dae:	8a b1       	in	r24, 0x0a	; 10
 db0:	88 61       	ori	r24, 0x18	; 24
 db2:	8a b9       	out	0x0a, r24	; 10
 db4:	80 b5       	in	r24, 0x20	; 32
 db6:	86 68       	ori	r24, 0x86	; 134
 db8:	80 bd       	out	0x20, r24	; 32
 dba:	10 bc       	out	0x20, r1	; 32
 dbc:	8c e0       	ldi	r24, 0x0C	; 12
 dbe:	89 b9       	out	0x09, r24	; 9
 dc0:	08 95       	ret

00000dc2 <uart_kbhit>:
 dc2:	8b b1       	in	r24, 0x0b	; 11
 dc4:	80 78       	andi	r24, 0x80	; 128
 dc6:	08 95       	ret

00000dc8 <uart_putc>:
 dc8:	5d 9b       	sbis	0x0b, 5	; 11
 dca:	fe cf       	rjmp	.-4      	; 0xdc8 <uart_putc>
 dcc:	8c b9       	out	0x0c, r24	; 12
 dce:	08 95       	ret

00000dd0 <uart_puts>:
 dd0:	fc 01       	movw	r30, r24
 dd2:	04 c0       	rjmp	.+8      	; 0xddc <uart_puts+0xc>
 dd4:	5d 9b       	sbis	0x0b, 5	; 11
 dd6:	fe cf       	rjmp	.-4      	; 0xdd4 <uart_puts+0x4>
 dd8:	8c b9       	out	0x0c, r24	; 12
 dda:	31 96       	adiw	r30, 0x01	; 1
 ddc:	80 81       	ld	r24, Z
 dde:	88 23       	and	r24, r24
 de0:	c9 f7       	brne	.-14     	; 0xdd4 <uart_puts+0x4>
 de2:	08 95       	ret

00000de4 <uart_puts_P>:
 de4:	03 c0       	rjmp	.+6      	; 0xdec <uart_puts_P+0x8>
 de6:	5d 9b       	sbis	0x0b, 5	; 11
 de8:	fe cf       	rjmp	.-4      	; 0xde6 <uart_puts_P+0x2>
 dea:	2c b9       	out	0x0c, r18	; 12
 dec:	fc 01       	movw	r30, r24
 dee:	01 96       	adiw	r24, 0x01	; 1
 df0:	24 91       	lpm	r18, Z+
 df2:	22 23       	and	r18, r18
 df4:	c1 f7       	brne	.-16     	; 0xde6 <uart_puts_P+0x2>
 df6:	08 95       	ret

00000df8 <uart_getc>:
 df8:	5f 9b       	sbis	0x0b, 7	; 11
 dfa:	fe cf       	rjmp	.-4      	; 0xdf8 <uart_getc>
 dfc:	8c b1       	in	r24, 0x0c	; 12
 dfe:	08 95       	ret

00000e00 <__udivmodqi4>:
 e00:	99 1b       	sub	r25, r25
 e02:	79 e0       	ldi	r23, 0x09	; 9
 e04:	04 c0       	rjmp	.+8      	; 0xe0e <__udivmodqi4_ep>

00000e06 <__udivmodqi4_loop>:
 e06:	99 1f       	adc	r25, r25
 e08:	96 17       	cp	r25, r22
 e0a:	08 f0       	brcs	.+2      	; 0xe0e <__udivmodqi4_ep>
 e0c:	96 1b       	sub	r25, r22

00000e0e <__udivmodqi4_ep>:
 e0e:	88 1f       	adc	r24, r24
 e10:	7a 95       	dec	r23
 e12:	c9 f7       	brne	.-14     	; 0xe06 <__udivmodqi4_loop>
 e14:	80 95       	com	r24
 e16:	08 95       	ret

00000e18 <_exit>:
 e18:	f8 94       	cli

00000e1a <__stop_program>:
 e1a:	ff cf       	rjmp	.-2      	; 0xe1a <__stop_program>
