
rh10hp03-tiny2313.elf:     file format elf32-avr

Sections:
Idx Name          Size      VMA       LMA       File off  Algn
  0 .text         00000b54  00000000  00000000  00000094  2**1
                  CONTENTS, ALLOC, LOAD, READONLY, CODE
  1 .data         00000010  00800060  00000b54  00000be8  2**0
                  CONTENTS, ALLOC, LOAD, DATA
  2 .bss          00000085  00800070  00800070  00000bf8  2**0
                  ALLOC
  3 .stab         000006cc  00000000  00000000  00000bf8  2**2
                  CONTENTS, READONLY, DEBUGGING
  4 .stabstr      00000054  00000000  00000000  000012c4  2**0
                  CONTENTS, READONLY, DEBUGGING

Disassembly of section .text:

00000000 <__vectors>:
   0:	12 c0       	rjmp	.+36     	; 0x26 <__ctors_end>
   2:	2c c0       	rjmp	.+88     	; 0x5c <__bad_interrupt>
   4:	2b c0       	rjmp	.+86     	; 0x5c <__bad_interrupt>
   6:	42 c0       	rjmp	.+132    	; 0x8c <__vector_3>
   8:	29 c0       	rjmp	.+82     	; 0x5c <__bad_interrupt>
   a:	29 c0       	rjmp	.+82     	; 0x5e <__vector_5>
   c:	34 c0       	rjmp	.+104    	; 0x76 <__vector_6>
   e:	26 c0       	rjmp	.+76     	; 0x5c <__bad_interrupt>
  10:	25 c0       	rjmp	.+74     	; 0x5c <__bad_interrupt>
  12:	24 c0       	rjmp	.+72     	; 0x5c <__bad_interrupt>
  14:	23 c0       	rjmp	.+70     	; 0x5c <__bad_interrupt>
  16:	69 c4       	rjmp	.+2258   	; 0x8ea <__vector_11>
  18:	92 c4       	rjmp	.+2340   	; 0x93e <__vector_12>
  1a:	20 c0       	rjmp	.+64     	; 0x5c <__bad_interrupt>
  1c:	1f c0       	rjmp	.+62     	; 0x5c <__bad_interrupt>
  1e:	1e c0       	rjmp	.+60     	; 0x5c <__bad_interrupt>
  20:	1d c0       	rjmp	.+58     	; 0x5c <__bad_interrupt>
  22:	1c c0       	rjmp	.+56     	; 0x5c <__bad_interrupt>
  24:	1b c0       	rjmp	.+54     	; 0x5c <__bad_interrupt>

00000026 <__ctors_end>:
  26:	11 24       	eor	r1, r1
  28:	1f be       	out	0x3f, r1	; 63
  2a:	cf e5       	ldi	r28, 0x5F	; 95
  2c:	d4 e0       	ldi	r29, 0x04	; 4
  2e:	de bf       	out	0x3e, r29	; 62
  30:	cd bf       	out	0x3d, r28	; 61

00000032 <__do_copy_data>:
  32:	10 e0       	ldi	r17, 0x00	; 0
  34:	a0 e6       	ldi	r26, 0x60	; 96
  36:	b0 e0       	ldi	r27, 0x00	; 0
  38:	e4 e5       	ldi	r30, 0x54	; 84
  3a:	fb e0       	ldi	r31, 0x0B	; 11
  3c:	02 c0       	rjmp	.+4      	; 0x42 <.do_copy_data_start>

0000003e <.do_copy_data_loop>:
  3e:	05 90       	lpm	r0, Z+
  40:	0d 92       	st	X+, r0

00000042 <.do_copy_data_start>:
  42:	a0 37       	cpi	r26, 0x70	; 112
  44:	b1 07       	cpc	r27, r17
  46:	d9 f7       	brne	.-10     	; 0x3e <.do_copy_data_loop>

00000048 <__do_clear_bss>:
  48:	10 e0       	ldi	r17, 0x00	; 0
  4a:	a0 e7       	ldi	r26, 0x70	; 112
  4c:	b0 e0       	ldi	r27, 0x00	; 0
  4e:	01 c0       	rjmp	.+2      	; 0x52 <.do_clear_bss_start>

00000050 <.do_clear_bss_loop>:
  50:	1d 92       	st	X+, r1

00000052 <.do_clear_bss_start>:
  52:	a5 3f       	cpi	r26, 0xF5	; 245
  54:	b1 07       	cpc	r27, r17
  56:	e1 f7       	brne	.-8      	; 0x50 <.do_clear_bss_loop>
  58:	a2 d1       	rcall	.+836    	; 0x39e <main>
  5a:	7a c5       	rjmp	.+2804   	; 0xb50 <_exit>

0000005c <__bad_interrupt>:
  5c:	d1 cf       	rjmp	.-94     	; 0x0 <__vectors>

0000005e <__vector_5>:
  5e:	1f 92       	push	r1
  60:	0f 92       	push	r0
  62:	0f b6       	in	r0, 0x3f	; 63
  64:	0f 92       	push	r0
  66:	11 24       	eor	r1, r1
  68:	1d bc       	out	0x2d, r1	; 45
  6a:	1c bc       	out	0x2c, r1	; 44
  6c:	0f 90       	pop	r0
  6e:	0f be       	out	0x3f, r0	; 63
  70:	0f 90       	pop	r0
  72:	1f 90       	pop	r1
  74:	18 95       	reti

00000076 <__vector_6>:
  76:	1f 92       	push	r1
  78:	0f 92       	push	r0
  7a:	0f b6       	in	r0, 0x3f	; 63
  7c:	0f 92       	push	r0
  7e:	11 24       	eor	r1, r1
  80:	00 00       	nop
  82:	0f 90       	pop	r0
  84:	0f be       	out	0x3f, r0	; 63
  86:	0f 90       	pop	r0
  88:	1f 90       	pop	r1
  8a:	18 95       	reti

0000008c <__vector_3>:
  8c:	1f 92       	push	r1
  8e:	0f 92       	push	r0
  90:	0f b6       	in	r0, 0x3f	; 63
  92:	0f 92       	push	r0
  94:	11 24       	eor	r1, r1
  96:	00 00       	nop
  98:	0f 90       	pop	r0
  9a:	0f be       	out	0x3f, r0	; 63
  9c:	0f 90       	pop	r0
  9e:	1f 90       	pop	r1
  a0:	18 95       	reti

000000a2 <readHH10>:
  a2:	cf 92       	push	r12
  a4:	df 92       	push	r13
  a6:	ef 92       	push	r14
  a8:	ff 92       	push	r15
  aa:	0f 93       	push	r16
  ac:	1f 93       	push	r17
  ae:	26 b5       	in	r18, 0x26	; 38
  b0:	37 b5       	in	r19, 0x27	; 39
  b2:	80 91 70 00 	lds	r24, 0x0070
  b6:	90 91 71 00 	lds	r25, 0x0071
  ba:	01 96       	adiw	r24, 0x01	; 1
  bc:	90 93 71 00 	sts	0x0071, r25
  c0:	80 93 70 00 	sts	0x0070, r24
  c4:	40 97       	sbiw	r24, 0x10	; 16
  c6:	24 f0       	brlt	.+8      	; 0xd0 <readHH10+0x2e>
  c8:	10 92 71 00 	sts	0x0071, r1
  cc:	10 92 70 00 	sts	0x0070, r1
  d0:	c0 90 70 00 	lds	r12, 0x0070
  d4:	d0 90 71 00 	lds	r13, 0x0071
  d8:	cc 0c       	add	r12, r12
  da:	dd 1c       	adc	r13, r13
  dc:	81 ed       	ldi	r24, 0xD1	; 209
  de:	90 e0       	ldi	r25, 0x00	; 0
  e0:	c8 0e       	add	r12, r24
  e2:	d9 1e       	adc	r13, r25
  e4:	e0 90 8a 00 	lds	r14, 0x008A
  e8:	f0 90 8b 00 	lds	r15, 0x008B
  ec:	00 e0       	ldi	r16, 0x00	; 0
  ee:	10 e0       	ldi	r17, 0x00	; 0
  f0:	40 e0       	ldi	r20, 0x00	; 0
  f2:	50 e0       	ldi	r21, 0x00	; 0
  f4:	60 e0       	ldi	r22, 0x00	; 0
  f6:	72 e1       	ldi	r23, 0x12	; 18
  f8:	8a e7       	ldi	r24, 0x7A	; 122
  fa:	90 e0       	ldi	r25, 0x00	; 0
  fc:	ec d4       	rcall	.+2520   	; 0xad6 <__udivmodsi4>
  fe:	e2 1a       	sub	r14, r18
 100:	f3 0a       	sbc	r15, r19
 102:	04 0b       	sbc	r16, r20
 104:	15 0b       	sbc	r17, r21
 106:	20 91 88 00 	lds	r18, 0x0088
 10a:	30 91 89 00 	lds	r19, 0x0089
 10e:	40 e0       	ldi	r20, 0x00	; 0
 110:	50 e0       	ldi	r21, 0x00	; 0
 112:	c8 01       	movw	r24, r16
 114:	b7 01       	movw	r22, r14
 116:	ac d4       	rcall	.+2392   	; 0xa70 <__mulsi3>
 118:	2c e0       	ldi	r18, 0x0C	; 12
 11a:	95 95       	asr	r25
 11c:	87 95       	ror	r24
 11e:	77 95       	ror	r23
 120:	67 95       	ror	r22
 122:	2a 95       	dec	r18
 124:	d1 f7       	brne	.-12     	; 0x11a <readHH10+0x78>
 126:	f6 01       	movw	r30, r12
 128:	71 83       	std	Z+1, r23	; 0x01
 12a:	60 83       	st	Z, r22
 12c:	1f 91       	pop	r17
 12e:	0f 91       	pop	r16
 130:	ff 90       	pop	r15
 132:	ef 90       	pop	r14
 134:	df 90       	pop	r13
 136:	cf 90       	pop	r12
 138:	08 95       	ret

0000013a <HP03_ReadOne>:
 13a:	1f 93       	push	r17
 13c:	cf 93       	push	r28
 13e:	df 93       	push	r29
 140:	18 2f       	mov	r17, r24
 142:	eb 01       	movw	r28, r22
 144:	8e ee       	ldi	r24, 0xEE	; 238
 146:	8f d3       	rcall	.+1822   	; 0x866 <i2c_start_wait>
 148:	8f ef       	ldi	r24, 0xFF	; 255
 14a:	b3 d3       	rcall	.+1894   	; 0x8b2 <i2c_write>
 14c:	81 2f       	mov	r24, r17
 14e:	b1 d3       	rcall	.+1890   	; 0x8b2 <i2c_write>
 150:	aa d3       	rcall	.+1876   	; 0x8a6 <i2c_stop>
 152:	80 e9       	ldi	r24, 0x90	; 144
 154:	91 e0       	ldi	r25, 0x01	; 1
 156:	28 ec       	ldi	r18, 0xC8	; 200
 158:	30 e0       	ldi	r19, 0x00	; 0
 15a:	f9 01       	movw	r30, r18
 15c:	31 97       	sbiw	r30, 0x01	; 1
 15e:	f1 f7       	brne	.-4      	; 0x15c <HP03_ReadOne+0x22>
 160:	01 97       	sbiw	r24, 0x01	; 1
 162:	d9 f7       	brne	.-10     	; 0x15a <HP03_ReadOne+0x20>
 164:	8e ee       	ldi	r24, 0xEE	; 238
 166:	7f d3       	rcall	.+1790   	; 0x866 <i2c_start_wait>
 168:	8d ef       	ldi	r24, 0xFD	; 253
 16a:	a3 d3       	rcall	.+1862   	; 0x8b2 <i2c_write>
 16c:	8f ee       	ldi	r24, 0xEF	; 239
 16e:	99 d3       	rcall	.+1842   	; 0x8a2 <i2c_rep_start>
 170:	ae d3       	rcall	.+1884   	; 0x8ce <i2c_readAck>
 172:	18 2f       	mov	r17, r24
 174:	b3 d3       	rcall	.+1894   	; 0x8dc <i2c_readNak>
 176:	31 2f       	mov	r19, r17
 178:	20 e0       	ldi	r18, 0x00	; 0
 17a:	90 e0       	ldi	r25, 0x00	; 0
 17c:	28 2b       	or	r18, r24
 17e:	39 2b       	or	r19, r25
 180:	39 83       	std	Y+1, r19	; 0x01
 182:	28 83       	st	Y, r18
 184:	90 d3       	rcall	.+1824   	; 0x8a6 <i2c_stop>
 186:	df 91       	pop	r29
 188:	cf 91       	pop	r28
 18a:	1f 91       	pop	r17
 18c:	08 95       	ret

0000018e <HP03_Read>:
 18e:	8f 92       	push	r8
 190:	9f 92       	push	r9
 192:	af 92       	push	r10
 194:	bf 92       	push	r11
 196:	cf 92       	push	r12
 198:	df 92       	push	r13
 19a:	ef 92       	push	r14
 19c:	ff 92       	push	r15
 19e:	0f 93       	push	r16
 1a0:	1f 93       	push	r17
 1a2:	df 93       	push	r29
 1a4:	cf 93       	push	r28
 1a6:	00 d0       	rcall	.+0      	; 0x1a8 <HP03_Read+0x1a>
 1a8:	00 d0       	rcall	.+0      	; 0x1aa <HP03_Read+0x1c>
 1aa:	cd b7       	in	r28, 0x3d	; 61
 1ac:	de b7       	in	r29, 0x3e	; 62
 1ae:	8c 01       	movw	r16, r24
 1b0:	4b 01       	movw	r8, r22
 1b2:	88 ee       	ldi	r24, 0xE8	; 232
 1b4:	be 01       	movw	r22, r28
 1b6:	6d 5f       	subi	r22, 0xFD	; 253
 1b8:	7f 4f       	sbci	r23, 0xFF	; 255
 1ba:	bf df       	rcall	.-130    	; 0x13a <HP03_ReadOne>
 1bc:	80 ef       	ldi	r24, 0xF0	; 240
 1be:	be 01       	movw	r22, r28
 1c0:	6f 5f       	subi	r22, 0xFF	; 255
 1c2:	7f 4f       	sbci	r23, 0xFF	; 255
 1c4:	ba df       	rcall	.-140    	; 0x13a <HP03_ReadOne>
 1c6:	2b 81       	ldd	r18, Y+3	; 0x03
 1c8:	3c 81       	ldd	r19, Y+4	; 0x04
 1ca:	80 91 7e 00 	lds	r24, 0x007E
 1ce:	90 91 7f 00 	lds	r25, 0x007F
 1d2:	28 17       	cp	r18, r24
 1d4:	39 07       	cpc	r19, r25
 1d6:	18 f4       	brcc	.+6      	; 0x1de <HP03_Read+0x50>
 1d8:	e0 90 85 00 	lds	r14, 0x0085
 1dc:	02 c0       	rjmp	.+4      	; 0x1e2 <HP03_Read+0x54>
 1de:	e0 90 84 00 	lds	r14, 0x0084
 1e2:	59 01       	movw	r10, r18
 1e4:	cc 24       	eor	r12, r12
 1e6:	dd 24       	eor	r13, r13
 1e8:	a0 e0       	ldi	r26, 0x00	; 0
 1ea:	b0 e0       	ldi	r27, 0x00	; 0
 1ec:	a8 1a       	sub	r10, r24
 1ee:	b9 0a       	sbc	r11, r25
 1f0:	ca 0a       	sbc	r12, r26
 1f2:	db 0a       	sbc	r13, r27
 1f4:	c6 01       	movw	r24, r12
 1f6:	b5 01       	movw	r22, r10
 1f8:	a6 01       	movw	r20, r12
 1fa:	95 01       	movw	r18, r10
 1fc:	39 d4       	rcall	.+2162   	; 0xa70 <__mulsi3>
 1fe:	2e 2d       	mov	r18, r14
 200:	30 e0       	ldi	r19, 0x00	; 0
 202:	40 e0       	ldi	r20, 0x00	; 0
 204:	50 e0       	ldi	r21, 0x00	; 0
 206:	34 d4       	rcall	.+2152   	; 0xa70 <__mulsi3>
 208:	3e e0       	ldi	r19, 0x0E	; 14
 20a:	95 95       	asr	r25
 20c:	87 95       	ror	r24
 20e:	77 95       	ror	r23
 210:	67 95       	ror	r22
 212:	3a 95       	dec	r19
 214:	d1 f7       	brne	.-12     	; 0x20a <HP03_Read+0x7c>
 216:	21 e0       	ldi	r18, 0x01	; 1
 218:	30 e0       	ldi	r19, 0x00	; 0
 21a:	00 90 86 00 	lds	r0, 0x0086
 21e:	02 c0       	rjmp	.+4      	; 0x224 <HP03_Read+0x96>
 220:	22 0f       	add	r18, r18
 222:	33 1f       	adc	r19, r19
 224:	0a 94       	dec	r0
 226:	e2 f7       	brpl	.-8      	; 0x220 <HP03_Read+0x92>
 228:	44 27       	eor	r20, r20
 22a:	37 fd       	sbrc	r19, 7
 22c:	40 95       	com	r20
 22e:	54 2f       	mov	r21, r20
 230:	74 d4       	rcall	.+2280   	; 0xb1a <__divmodsi4>
 232:	a2 1a       	sub	r10, r18
 234:	b3 0a       	sbc	r11, r19
 236:	c4 0a       	sbc	r12, r20
 238:	d5 0a       	sbc	r13, r21
 23a:	20 91 80 00 	lds	r18, 0x0080
 23e:	30 91 81 00 	lds	r19, 0x0081
 242:	40 e0       	ldi	r20, 0x00	; 0
 244:	50 e0       	ldi	r21, 0x00	; 0
 246:	c6 01       	movw	r24, r12
 248:	b5 01       	movw	r22, r10
 24a:	12 d4       	rcall	.+2084   	; 0xa70 <__mulsi3>
 24c:	bc 01       	movw	r22, r24
 24e:	99 27       	eor	r25, r25
 250:	77 fd       	sbrc	r23, 7
 252:	90 95       	com	r25
 254:	89 2f       	mov	r24, r25
 256:	a6 01       	movw	r20, r12
 258:	95 01       	movw	r18, r10
 25a:	00 90 87 00 	lds	r0, 0x0087
 25e:	04 c0       	rjmp	.+8      	; 0x268 <HP03_Read+0xda>
 260:	55 95       	asr	r21
 262:	47 95       	ror	r20
 264:	37 95       	ror	r19
 266:	27 95       	ror	r18
 268:	0a 94       	dec	r0
 26a:	d2 f7       	brpl	.-12     	; 0x260 <HP03_Read+0xd2>
 26c:	62 1b       	sub	r22, r18
 26e:	73 0b       	sbc	r23, r19
 270:	66 50       	subi	r22, 0x06	; 6
 272:	7f 4f       	sbci	r23, 0xFF	; 255
 274:	f8 01       	movw	r30, r16
 276:	71 83       	std	Z+1, r23	; 0x01
 278:	60 83       	st	Z, r22
 27a:	20 91 7a 00 	lds	r18, 0x007A
 27e:	30 91 7b 00 	lds	r19, 0x007B
 282:	40 e0       	ldi	r20, 0x00	; 0
 284:	50 e0       	ldi	r21, 0x00	; 0
 286:	c6 01       	movw	r24, r12
 288:	b5 01       	movw	r22, r10
 28a:	f2 d3       	rcall	.+2020   	; 0xa70 <__mulsi3>
 28c:	ba e0       	ldi	r27, 0x0A	; 10
 28e:	95 95       	asr	r25
 290:	87 95       	ror	r24
 292:	77 95       	ror	r23
 294:	67 95       	ror	r22
 296:	ba 95       	dec	r27
 298:	d1 f7       	brne	.-12     	; 0x28e <HP03_Read+0x100>
 29a:	e0 90 76 00 	lds	r14, 0x0076
 29e:	f0 90 77 00 	lds	r15, 0x0077
 2a2:	00 e0       	ldi	r16, 0x00	; 0
 2a4:	10 e0       	ldi	r17, 0x00	; 0
 2a6:	e6 0e       	add	r14, r22
 2a8:	f7 1e       	adc	r15, r23
 2aa:	08 1f       	adc	r16, r24
 2ac:	19 1f       	adc	r17, r25
 2ae:	29 81       	ldd	r18, Y+1	; 0x01
 2b0:	3a 81       	ldd	r19, Y+2	; 0x02
 2b2:	40 e0       	ldi	r20, 0x00	; 0
 2b4:	50 e0       	ldi	r21, 0x00	; 0
 2b6:	20 50       	subi	r18, 0x00	; 0
 2b8:	3c 41       	sbci	r19, 0x1C	; 28
 2ba:	40 40       	sbci	r20, 0x00	; 0
 2bc:	50 40       	sbci	r21, 0x00	; 0
 2be:	c8 01       	movw	r24, r16
 2c0:	b7 01       	movw	r22, r14
 2c2:	d6 d3       	rcall	.+1964   	; 0xa70 <__mulsi3>
 2c4:	7b 01       	movw	r14, r22
 2c6:	8c 01       	movw	r16, r24
 2c8:	ae e0       	ldi	r26, 0x0E	; 14
 2ca:	15 95       	asr	r17
 2cc:	07 95       	ror	r16
 2ce:	f7 94       	ror	r15
 2d0:	e7 94       	ror	r14
 2d2:	aa 95       	dec	r26
 2d4:	d1 f7       	brne	.-12     	; 0x2ca <HP03_Read+0x13c>
 2d6:	20 91 7c 00 	lds	r18, 0x007C
 2da:	30 91 7d 00 	lds	r19, 0x007D
 2de:	20 50       	subi	r18, 0x00	; 0
 2e0:	34 40       	sbci	r19, 0x04	; 4
 2e2:	40 e0       	ldi	r20, 0x00	; 0
 2e4:	50 e0       	ldi	r21, 0x00	; 0
 2e6:	c6 01       	movw	r24, r12
 2e8:	b5 01       	movw	r22, r10
 2ea:	c2 d3       	rcall	.+1924   	; 0xa70 <__mulsi3>
 2ec:	fe e0       	ldi	r31, 0x0E	; 14
 2ee:	95 95       	asr	r25
 2f0:	87 95       	ror	r24
 2f2:	77 95       	ror	r23
 2f4:	67 95       	ror	r22
 2f6:	fa 95       	dec	r31
 2f8:	d1 f7       	brne	.-12     	; 0x2ee <HP03_Read+0x160>
 2fa:	20 91 78 00 	lds	r18, 0x0078
 2fe:	30 91 79 00 	lds	r19, 0x0079
 302:	40 e0       	ldi	r20, 0x00	; 0
 304:	50 e0       	ldi	r21, 0x00	; 0
 306:	62 0f       	add	r22, r18
 308:	73 1f       	adc	r23, r19
 30a:	84 1f       	adc	r24, r20
 30c:	95 1f       	adc	r25, r21
 30e:	e2 e0       	ldi	r30, 0x02	; 2
 310:	66 0f       	add	r22, r22
 312:	77 1f       	adc	r23, r23
 314:	88 1f       	adc	r24, r24
 316:	99 1f       	adc	r25, r25
 318:	ea 95       	dec	r30
 31a:	d1 f7       	brne	.-12     	; 0x310 <HP03_Read+0x182>
 31c:	e6 1a       	sub	r14, r22
 31e:	f7 0a       	sbc	r15, r23
 320:	08 0b       	sbc	r16, r24
 322:	19 0b       	sbc	r17, r25
 324:	55 e0       	ldi	r21, 0x05	; 5
 326:	15 95       	asr	r17
 328:	07 95       	ror	r16
 32a:	f7 94       	ror	r15
 32c:	e7 94       	ror	r14
 32e:	5a 95       	dec	r21
 330:	d1 f7       	brne	.-12     	; 0x326 <HP03_Read+0x198>
 332:	80 91 82 00 	lds	r24, 0x0082
 336:	90 91 83 00 	lds	r25, 0x0083
 33a:	6a e0       	ldi	r22, 0x0A	; 10
 33c:	70 e0       	ldi	r23, 0x00	; 0
 33e:	b7 d3       	rcall	.+1902   	; 0xaae <__udivmodhi4>
 340:	6e 0d       	add	r22, r14
 342:	7f 1d       	adc	r23, r15
 344:	f4 01       	movw	r30, r8
 346:	71 83       	std	Z+1, r23	; 0x01
 348:	60 83       	st	Z, r22
 34a:	0f 90       	pop	r0
 34c:	0f 90       	pop	r0
 34e:	0f 90       	pop	r0
 350:	0f 90       	pop	r0
 352:	cf 91       	pop	r28
 354:	df 91       	pop	r29
 356:	1f 91       	pop	r17
 358:	0f 91       	pop	r16
 35a:	ff 90       	pop	r15
 35c:	ef 90       	pop	r14
 35e:	df 90       	pop	r13
 360:	cf 90       	pop	r12
 362:	bf 90       	pop	r11
 364:	af 90       	pop	r10
 366:	9f 90       	pop	r9
 368:	8f 90       	pop	r8
 36a:	08 95       	ret

0000036c <readHP03>:
 36c:	ef 92       	push	r14
 36e:	ff 92       	push	r15
 370:	0f 93       	push	r16
 372:	1f 93       	push	r17
 374:	02 e7       	ldi	r16, 0x72	; 114
 376:	10 e0       	ldi	r17, 0x00	; 0
 378:	44 e7       	ldi	r20, 0x74	; 116
 37a:	e4 2e       	mov	r14, r20
 37c:	40 e0       	ldi	r20, 0x00	; 0
 37e:	f4 2e       	mov	r15, r20
 380:	c8 01       	movw	r24, r16
 382:	b7 01       	movw	r22, r14
 384:	04 df       	rcall	.-504    	; 0x18e <HP03_Read>
 386:	80 ed       	ldi	r24, 0xD0	; 208
 388:	97 e0       	ldi	r25, 0x07	; 7
 38a:	01 97       	sbiw	r24, 0x01	; 1
 38c:	f1 f7       	brne	.-4      	; 0x38a <readHP03+0x1e>
 38e:	c8 01       	movw	r24, r16
 390:	b7 01       	movw	r22, r14
 392:	fd de       	rcall	.-518    	; 0x18e <HP03_Read>
 394:	1f 91       	pop	r17
 396:	0f 91       	pop	r16
 398:	ff 90       	pop	r15
 39a:	ef 90       	pop	r14
 39c:	08 95       	ret

0000039e <main>:
 39e:	ef 92       	push	r14
 3a0:	ff 92       	push	r15
 3a2:	0f 93       	push	r16
 3a4:	1f 93       	push	r17
 3a6:	cf 93       	push	r28
 3a8:	df 93       	push	r29
 3aa:	83 e3       	ldi	r24, 0x33	; 51
 3ac:	90 e0       	ldi	r25, 0x00	; 0
 3ae:	ec d2       	rcall	.+1496   	; 0x988 <uart_init>
 3b0:	80 e6       	ldi	r24, 0x60	; 96
 3b2:	90 e0       	ldi	r25, 0x00	; 0
 3b4:	2d d3       	rcall	.+1626   	; 0xa10 <uart_puts>
 3b6:	f8 94       	cli
 3b8:	a8 95       	wdr
 3ba:	2f e0       	ldi	r18, 0x0F	; 15
 3bc:	88 e1       	ldi	r24, 0x18	; 24
 3be:	90 e0       	ldi	r25, 0x00	; 0
 3c0:	0f b6       	in	r0, 0x3f	; 63
 3c2:	f8 94       	cli
 3c4:	a8 95       	wdr
 3c6:	81 bd       	out	0x21, r24	; 33
 3c8:	0f be       	out	0x3f, r0	; 63
 3ca:	21 bd       	out	0x21, r18	; 33
 3cc:	89 e1       	ldi	r24, 0x19	; 25
 3ce:	85 bd       	out	0x25, r24	; 37
 3d0:	80 ea       	ldi	r24, 0xA0	; 160
 3d2:	89 bf       	out	0x39, r24	; 57
 3d4:	80 e2       	ldi	r24, 0x20	; 32
 3d6:	88 bf       	out	0x38, r24	; 56
 3d8:	8a e7       	ldi	r24, 0x7A	; 122
 3da:	83 bd       	out	0x23, r24	; 35
 3dc:	bb 9a       	sbi	0x17, 3	; 23
 3de:	b8 98       	cbi	0x17, 0	; 23
 3e0:	c0 98       	cbi	0x18, 0	; 24
 3e2:	78 94       	sei
 3e4:	88 e6       	ldi	r24, 0x68	; 104
 3e6:	90 e0       	ldi	r25, 0x00	; 0
 3e8:	fe d1       	rcall	.+1020   	; 0x7e6 <rf12_preinit>
 3ea:	97 98       	cbi	0x12, 7	; 18
 3ec:	19 d2       	rcall	.+1074   	; 0x820 <i2c_init>
 3ee:	80 ea       	ldi	r24, 0xA0	; 160
 3f0:	3a d2       	rcall	.+1140   	; 0x866 <i2c_start_wait>
 3f2:	80 e1       	ldi	r24, 0x10	; 16
 3f4:	5e d2       	rcall	.+1212   	; 0x8b2 <i2c_write>
 3f6:	81 ea       	ldi	r24, 0xA1	; 161
 3f8:	54 d2       	rcall	.+1192   	; 0x8a2 <i2c_rep_start>
 3fa:	c0 e0       	ldi	r28, 0x00	; 0
 3fc:	d0 e0       	ldi	r29, 0x00	; 0
 3fe:	8e 01       	movw	r16, r28
 400:	00 0f       	add	r16, r16
 402:	11 1f       	adc	r17, r17
 404:	64 d2       	rcall	.+1224   	; 0x8ce <i2c_readAck>
 406:	0a 58       	subi	r16, 0x8A	; 138
 408:	1f 4f       	sbci	r17, 0xFF	; 255
 40a:	f8 01       	movw	r30, r16
 40c:	81 83       	std	Z+1, r24	; 0x01
 40e:	5f d2       	rcall	.+1214   	; 0x8ce <i2c_readAck>
 410:	f8 01       	movw	r30, r16
 412:	80 83       	st	Z, r24
 414:	21 96       	adiw	r28, 0x01	; 1
 416:	c7 30       	cpi	r28, 0x07	; 7
 418:	d1 05       	cpc	r29, r1
 41a:	89 f7       	brne	.-30     	; 0x3fe <main+0x60>
 41c:	58 d2       	rcall	.+1200   	; 0x8ce <i2c_readAck>
 41e:	80 93 84 00 	sts	0x0084, r24
 422:	55 d2       	rcall	.+1194   	; 0x8ce <i2c_readAck>
 424:	80 93 85 00 	sts	0x0085, r24
 428:	52 d2       	rcall	.+1188   	; 0x8ce <i2c_readAck>
 42a:	80 93 86 00 	sts	0x0086, r24
 42e:	56 d2       	rcall	.+1196   	; 0x8dc <i2c_readNak>
 430:	80 93 87 00 	sts	0x0087, r24
 434:	38 d2       	rcall	.+1136   	; 0x8a6 <i2c_stop>
 436:	82 ea       	ldi	r24, 0xA2	; 162
 438:	16 d2       	rcall	.+1068   	; 0x866 <i2c_start_wait>
 43a:	8a e0       	ldi	r24, 0x0A	; 10
 43c:	3a d2       	rcall	.+1140   	; 0x8b2 <i2c_write>
 43e:	83 ea       	ldi	r24, 0xA3	; 163
 440:	30 d2       	rcall	.+1120   	; 0x8a2 <i2c_rep_start>
 442:	45 d2       	rcall	.+1162   	; 0x8ce <i2c_readAck>
 444:	18 2f       	mov	r17, r24
 446:	43 d2       	rcall	.+1158   	; 0x8ce <i2c_readAck>
 448:	31 2f       	mov	r19, r17
 44a:	20 e0       	ldi	r18, 0x00	; 0
 44c:	90 e0       	ldi	r25, 0x00	; 0
 44e:	28 2b       	or	r18, r24
 450:	39 2b       	or	r19, r25
 452:	30 93 89 00 	sts	0x0089, r19
 456:	20 93 88 00 	sts	0x0088, r18
 45a:	39 d2       	rcall	.+1138   	; 0x8ce <i2c_readAck>
 45c:	18 2f       	mov	r17, r24
 45e:	3e d2       	rcall	.+1148   	; 0x8dc <i2c_readNak>
 460:	31 2f       	mov	r19, r17
 462:	20 e0       	ldi	r18, 0x00	; 0
 464:	90 e0       	ldi	r25, 0x00	; 0
 466:	28 2b       	or	r18, r24
 468:	39 2b       	or	r19, r25
 46a:	30 93 8b 00 	sts	0x008B, r19
 46e:	20 93 8a 00 	sts	0x008A, r18
 472:	19 d2       	rcall	.+1074   	; 0x8a6 <i2c_stop>
 474:	97 9a       	sbi	0x12, 7	; 18
 476:	c0 e0       	ldi	r28, 0x00	; 0
 478:	d0 e0       	ldi	r29, 0x00	; 0
 47a:	00 ed       	ldi	r16, 0xD0	; 208
 47c:	17 e0       	ldi	r17, 0x07	; 7
 47e:	11 de       	rcall	.-990    	; 0xa2 <readHH10>
 480:	c8 01       	movw	r24, r16
 482:	01 97       	sbiw	r24, 0x01	; 1
 484:	f1 f7       	brne	.-4      	; 0x482 <__stack+0x23>
 486:	21 96       	adiw	r28, 0x01	; 1
 488:	c0 31       	cpi	r28, 0x10	; 16
 48a:	d1 05       	cpc	r29, r1
 48c:	c1 f7       	brne	.-16     	; 0x47e <__stack+0x1f>
 48e:	ee 24       	eor	r14, r14
 490:	ff 24       	eor	r15, r15
 492:	87 01       	movw	r16, r14
 494:	a8 95       	wdr
 496:	08 94       	sec
 498:	e1 1c       	adc	r14, r1
 49a:	f1 1c       	adc	r15, r1
 49c:	01 1d       	adc	r16, r1
 49e:	11 1d       	adc	r17, r1
 4a0:	c8 01       	movw	r24, r16
 4a2:	b7 01       	movw	r22, r14
 4a4:	20 e8       	ldi	r18, 0x80	; 128
 4a6:	3e e3       	ldi	r19, 0x3E	; 62
 4a8:	40 e0       	ldi	r20, 0x00	; 0
 4aa:	50 e0       	ldi	r21, 0x00	; 0
 4ac:	36 d3       	rcall	.+1644   	; 0xb1a <__divmodsi4>
 4ae:	61 15       	cp	r22, r1
 4b0:	71 05       	cpc	r23, r1
 4b2:	81 05       	cpc	r24, r1
 4b4:	91 05       	cpc	r25, r1
 4b6:	41 f4       	brne	.+16     	; 0x4c8 <__stack+0x69>
 4b8:	8d e6       	ldi	r24, 0x6D	; 109
 4ba:	90 e0       	ldi	r25, 0x00	; 0
 4bc:	a9 d2       	rcall	.+1362   	; 0xa10 <uart_puts>
 4be:	56 df       	rcall	.-340    	; 0x36c <readHP03>
 4c0:	f0 dd       	rcall	.-1056   	; 0xa2 <readHH10>
 4c2:	ee 24       	eor	r14, r14
 4c4:	ff 24       	eor	r15, r15
 4c6:	87 01       	movw	r16, r14
 4c8:	85 b7       	in	r24, 0x35	; 53
 4ca:	8f 78       	andi	r24, 0x8F	; 143
 4cc:	85 bf       	out	0x35, r24	; 53
 4ce:	85 b7       	in	r24, 0x35	; 53
 4d0:	80 68       	ori	r24, 0x80	; 128
 4d2:	85 bf       	out	0x35, r24	; 53
 4d4:	88 95       	sleep
 4d6:	de cf       	rjmp	.-68     	; 0x494 <__stack+0x35>

000004d8 <send>:
 4d8:	df 93       	push	r29
 4da:	cf 93       	push	r28
 4dc:	cd b7       	in	r28, 0x3d	; 61
 4de:	de b7       	in	r29, 0x3e	; 62
 4e0:	a2 97       	sbiw	r28, 0x22	; 34
 4e2:	0f b6       	in	r0, 0x3f	; 63
 4e4:	f8 94       	cli
 4e6:	de bf       	out	0x3e, r29	; 62
 4e8:	0f be       	out	0x3f, r0	; 63
 4ea:	cd bf       	out	0x3d, r28	; 61
 4ec:	e1 ed       	ldi	r30, 0xD1	; 209
 4ee:	f0 e0       	ldi	r31, 0x00	; 0
 4f0:	20 e0       	ldi	r18, 0x00	; 0
 4f2:	30 e0       	ldi	r19, 0x00	; 0
 4f4:	40 e0       	ldi	r20, 0x00	; 0
 4f6:	50 e0       	ldi	r21, 0x00	; 0
 4f8:	81 91       	ld	r24, Z+
 4fa:	91 91       	ld	r25, Z+
 4fc:	aa 27       	eor	r26, r26
 4fe:	97 fd       	sbrc	r25, 7
 500:	a0 95       	com	r26
 502:	ba 2f       	mov	r27, r26
 504:	28 0f       	add	r18, r24
 506:	39 1f       	adc	r19, r25
 508:	4a 1f       	adc	r20, r26
 50a:	5b 1f       	adc	r21, r27
 50c:	80 e0       	ldi	r24, 0x00	; 0
 50e:	e1 3f       	cpi	r30, 0xF1	; 241
 510:	f8 07       	cpc	r31, r24
 512:	91 f7       	brne	.-28     	; 0x4f8 <send+0x20>
 514:	da 01       	movw	r26, r20
 516:	c9 01       	movw	r24, r18
 518:	64 e0       	ldi	r22, 0x04	; 4
 51a:	b5 95       	asr	r27
 51c:	a7 95       	ror	r26
 51e:	97 95       	ror	r25
 520:	87 95       	ror	r24
 522:	6a 95       	dec	r22
 524:	d1 f7       	brne	.-12     	; 0x51a <send+0x42>
 526:	9a 83       	std	Y+2, r25	; 0x02
 528:	89 83       	std	Y+1, r24	; 0x01
 52a:	27 e6       	ldi	r18, 0x67	; 103
 52c:	2b 83       	std	Y+3, r18	; 0x03
 52e:	9d 83       	std	Y+5, r25	; 0x05
 530:	8c 83       	std	Y+4, r24	; 0x04
 532:	40 91 72 00 	lds	r20, 0x0072
 536:	50 91 73 00 	lds	r21, 0x0073
 53a:	5f 83       	std	Y+7, r21	; 0x07
 53c:	4e 83       	std	Y+6, r20	; 0x06
 53e:	20 91 74 00 	lds	r18, 0x0074
 542:	30 91 75 00 	lds	r19, 0x0075
 546:	39 87       	std	Y+9, r19	; 0x09
 548:	28 87       	std	Y+8, r18	; 0x08
 54a:	1a 86       	std	Y+10, r1	; 0x0a
 54c:	9c 87       	std	Y+12, r25	; 0x0c
 54e:	8b 87       	std	Y+11, r24	; 0x0b
 550:	5e 87       	std	Y+14, r21	; 0x0e
 552:	4d 87       	std	Y+13, r20	; 0x0d
 554:	38 8b       	std	Y+16, r19	; 0x10
 556:	2f 87       	std	Y+15, r18	; 0x0f
 558:	19 8a       	std	Y+17, r1	; 0x11
 55a:	45 d0       	rcall	.+138    	; 0x5e6 <rf12_init>
 55c:	8b e7       	ldi	r24, 0x7B	; 123
 55e:	96 e0       	ldi	r25, 0x06	; 6
 560:	71 d0       	rcall	.+226    	; 0x644 <rf12_setfreq>
 562:	84 e0       	ldi	r24, 0x04	; 4
 564:	61 e0       	ldi	r22, 0x01	; 1
 566:	44 e0       	ldi	r20, 0x04	; 4
 568:	54 d0       	rcall	.+168    	; 0x612 <rf12_setbandwidth>
 56a:	8a e9       	ldi	r24, 0x9A	; 154
 56c:	92 e0       	ldi	r25, 0x02	; 2
 56e:	79 d0       	rcall	.+242    	; 0x662 <rf12_setbaud>
 570:	80 e0       	ldi	r24, 0x00	; 0
 572:	66 e0       	ldi	r22, 0x06	; 6
 574:	85 d0       	rcall	.+266    	; 0x680 <rf12_setpower>
 576:	ce 01       	movw	r24, r28
 578:	03 96       	adiw	r24, 0x03	; 3
 57a:	6f e0       	ldi	r22, 0x0F	; 15
 57c:	e9 d0       	rcall	.+466    	; 0x750 <rf12_txdata>
 57e:	81 e0       	ldi	r24, 0x01	; 1
 580:	92 e8       	ldi	r25, 0x82	; 130
 582:	15 d0       	rcall	.+42     	; 0x5ae <rf12_trans>
 584:	80 e0       	ldi	r24, 0x00	; 0
 586:	90 e0       	ldi	r25, 0x00	; 0
 588:	12 d0       	rcall	.+36     	; 0x5ae <rf12_trans>
 58a:	80 ed       	ldi	r24, 0xD0	; 208
 58c:	97 e0       	ldi	r25, 0x07	; 7
 58e:	28 ec       	ldi	r18, 0xC8	; 200
 590:	30 e0       	ldi	r19, 0x00	; 0
 592:	f9 01       	movw	r30, r18
 594:	31 97       	sbiw	r30, 0x01	; 1
 596:	f1 f7       	brne	.-4      	; 0x594 <send+0xbc>
 598:	01 97       	sbiw	r24, 0x01	; 1
 59a:	d9 f7       	brne	.-10     	; 0x592 <send+0xba>
 59c:	a2 96       	adiw	r28, 0x22	; 34
 59e:	0f b6       	in	r0, 0x3f	; 63
 5a0:	f8 94       	cli
 5a2:	de bf       	out	0x3e, r29	; 62
 5a4:	0f be       	out	0x3f, r0	; 63
 5a6:	cd bf       	out	0x3d, r28	; 61
 5a8:	cf 91       	pop	r28
 5aa:	df 91       	pop	r29
 5ac:	08 95       	ret

000005ae <rf12_trans>:
 5ae:	94 98       	cbi	0x12, 4	; 18
 5b0:	20 e0       	ldi	r18, 0x00	; 0
 5b2:	30 e0       	ldi	r19, 0x00	; 0
 5b4:	50 e0       	ldi	r21, 0x00	; 0
 5b6:	61 e0       	ldi	r22, 0x01	; 1
 5b8:	97 ff       	sbrs	r25, 7
 5ba:	02 c0       	rjmp	.+4      	; 0x5c0 <rf12_trans+0x12>
 5bc:	92 9a       	sbi	0x12, 2	; 18
 5be:	01 c0       	rjmp	.+2      	; 0x5c2 <rf12_trans+0x14>
 5c0:	92 98       	cbi	0x12, 2	; 18
 5c2:	22 0f       	add	r18, r18
 5c4:	33 1f       	adc	r19, r19
 5c6:	85 99       	sbic	0x10, 5	; 16
 5c8:	21 60       	ori	r18, 0x01	; 1
 5ca:	93 9a       	sbi	0x12, 3	; 18
 5cc:	46 2f       	mov	r20, r22
 5ce:	4a 95       	dec	r20
 5d0:	f1 f7       	brne	.-4      	; 0x5ce <rf12_trans+0x20>
 5d2:	93 98       	cbi	0x12, 3	; 18
 5d4:	5f 5f       	subi	r21, 0xFF	; 255
 5d6:	50 31       	cpi	r21, 0x10	; 16
 5d8:	19 f0       	breq	.+6      	; 0x5e0 <rf12_trans+0x32>
 5da:	88 0f       	add	r24, r24
 5dc:	99 1f       	adc	r25, r25
 5de:	ec cf       	rjmp	.-40     	; 0x5b8 <rf12_trans+0xa>
 5e0:	94 9a       	sbi	0x12, 4	; 18
 5e2:	c9 01       	movw	r24, r18
 5e4:	08 95       	ret

000005e6 <rf12_init>:
 5e6:	80 ee       	ldi	r24, 0xE0	; 224
 5e8:	90 ec       	ldi	r25, 0xC0	; 192
 5ea:	e1 df       	rcall	.-62     	; 0x5ae <rf12_trans>
 5ec:	87 ee       	ldi	r24, 0xE7	; 231
 5ee:	90 e8       	ldi	r25, 0x80	; 128
 5f0:	de df       	rcall	.-68     	; 0x5ae <rf12_trans>
 5f2:	8b ea       	ldi	r24, 0xAB	; 171
 5f4:	92 ec       	ldi	r25, 0xC2	; 194
 5f6:	db df       	rcall	.-74     	; 0x5ae <rf12_trans>
 5f8:	81 e8       	ldi	r24, 0x81	; 129
 5fa:	9a ec       	ldi	r25, 0xCA	; 202
 5fc:	d8 df       	rcall	.-80     	; 0x5ae <rf12_trans>
 5fe:	80 e0       	ldi	r24, 0x00	; 0
 600:	90 ee       	ldi	r25, 0xE0	; 224
 602:	d5 df       	rcall	.-86     	; 0x5ae <rf12_trans>
 604:	80 e0       	ldi	r24, 0x00	; 0
 606:	98 ec       	ldi	r25, 0xC8	; 200
 608:	d2 df       	rcall	.-92     	; 0x5ae <rf12_trans>
 60a:	87 ef       	ldi	r24, 0xF7	; 247
 60c:	94 ec       	ldi	r25, 0xC4	; 196
 60e:	cf df       	rcall	.-98     	; 0x5ae <rf12_trans>
 610:	08 95       	ret

00000612 <rf12_setbandwidth>:
 612:	90 e0       	ldi	r25, 0x00	; 0
 614:	f5 e0       	ldi	r31, 0x05	; 5
 616:	88 0f       	add	r24, r24
 618:	99 1f       	adc	r25, r25
 61a:	fa 95       	dec	r31
 61c:	e1 f7       	brne	.-8      	; 0x616 <rf12_setbandwidth+0x4>
 61e:	90 70       	andi	r25, 0x00	; 0
 620:	50 e0       	ldi	r21, 0x00	; 0
 622:	47 70       	andi	r20, 0x07	; 7
 624:	50 70       	andi	r21, 0x00	; 0
 626:	84 2b       	or	r24, r20
 628:	95 2b       	or	r25, r21
 62a:	94 69       	ori	r25, 0x94	; 148
 62c:	70 e0       	ldi	r23, 0x00	; 0
 62e:	63 70       	andi	r22, 0x03	; 3
 630:	70 70       	andi	r23, 0x00	; 0
 632:	e3 e0       	ldi	r30, 0x03	; 3
 634:	66 0f       	add	r22, r22
 636:	77 1f       	adc	r23, r23
 638:	ea 95       	dec	r30
 63a:	e1 f7       	brne	.-8      	; 0x634 <rf12_setbandwidth+0x22>
 63c:	86 2b       	or	r24, r22
 63e:	97 2b       	or	r25, r23
 640:	b6 df       	rcall	.-148    	; 0x5ae <rf12_trans>
 642:	08 95       	ret

00000644 <rf12_setfreq>:
 644:	80 36       	cpi	r24, 0x60	; 96
 646:	91 05       	cpc	r25, r1
 648:	18 f4       	brcc	.+6      	; 0x650 <rf12_setfreq+0xc>
 64a:	80 e6       	ldi	r24, 0x60	; 96
 64c:	90 e0       	ldi	r25, 0x00	; 0
 64e:	06 c0       	rjmp	.+12     	; 0x65c <rf12_setfreq+0x18>
 650:	2f e0       	ldi	r18, 0x0F	; 15
 652:	80 34       	cpi	r24, 0x40	; 64
 654:	92 07       	cpc	r25, r18
 656:	10 f0       	brcs	.+4      	; 0x65c <rf12_setfreq+0x18>
 658:	8f e3       	ldi	r24, 0x3F	; 63
 65a:	9f e0       	ldi	r25, 0x0F	; 15
 65c:	90 6a       	ori	r25, 0xA0	; 160
 65e:	a7 df       	rcall	.-178    	; 0x5ae <rf12_trans>
 660:	08 95       	ret

00000662 <rf12_setbaud>:
 662:	9c 01       	movw	r18, r24
 664:	40 e0       	ldi	r20, 0x00	; 0
 666:	50 e0       	ldi	r21, 0x00	; 0
 668:	60 e6       	ldi	r22, 0x60	; 96
 66a:	78 ea       	ldi	r23, 0xA8	; 168
 66c:	80 e0       	ldi	r24, 0x00	; 0
 66e:	90 e0       	ldi	r25, 0x00	; 0
 670:	54 d2       	rcall	.+1192   	; 0xb1a <__divmodsi4>
 672:	da 01       	movw	r26, r20
 674:	c9 01       	movw	r24, r18
 676:	01 97       	sbiw	r24, 0x01	; 1
 678:	80 68       	ori	r24, 0x80	; 128
 67a:	96 6c       	ori	r25, 0xC6	; 198
 67c:	98 df       	rcall	.-208    	; 0x5ae <rf12_trans>
 67e:	08 95       	ret

00000680 <rf12_setpower>:
 680:	90 e0       	ldi	r25, 0x00	; 0
 682:	87 70       	andi	r24, 0x07	; 7
 684:	90 70       	andi	r25, 0x00	; 0
 686:	98 69       	ori	r25, 0x98	; 152
 688:	70 e0       	ldi	r23, 0x00	; 0
 68a:	a4 e0       	ldi	r26, 0x04	; 4
 68c:	66 0f       	add	r22, r22
 68e:	77 1f       	adc	r23, r23
 690:	aa 95       	dec	r26
 692:	e1 f7       	brne	.-8      	; 0x68c <rf12_setpower+0xc>
 694:	70 70       	andi	r23, 0x00	; 0
 696:	86 2b       	or	r24, r22
 698:	97 2b       	or	r25, r23
 69a:	89 df       	rcall	.-238    	; 0x5ae <rf12_trans>
 69c:	08 95       	ret

0000069e <rf12_ready>:
 69e:	92 98       	cbi	0x12, 2	; 18
 6a0:	94 98       	cbi	0x12, 4	; 18
 6a2:	00 00       	nop
 6a4:	00 00       	nop
 6a6:	24 e6       	ldi	r18, 0x64	; 100
 6a8:	30 e0       	ldi	r19, 0x00	; 0
 6aa:	40 ed       	ldi	r20, 0xD0	; 208
 6ac:	57 e0       	ldi	r21, 0x07	; 7
 6ae:	05 c0       	rjmp	.+10     	; 0x6ba <rf12_ready+0x1c>
 6b0:	21 50       	subi	r18, 0x01	; 1
 6b2:	30 40       	sbci	r19, 0x00	; 0
 6b4:	ca 01       	movw	r24, r20
 6b6:	01 97       	sbiw	r24, 0x01	; 1
 6b8:	f1 f7       	brne	.-4      	; 0x6b6 <rf12_ready+0x18>
 6ba:	85 99       	sbic	0x10, 5	; 16
 6bc:	03 c0       	rjmp	.+6      	; 0x6c4 <rf12_ready+0x26>
 6be:	21 15       	cp	r18, r1
 6c0:	31 05       	cpc	r19, r1
 6c2:	b1 f7       	brne	.-20     	; 0x6b0 <rf12_ready+0x12>
 6c4:	c4 9a       	sbi	0x18, 4	; 24
 6c6:	08 95       	ret

000006c8 <rf12_readytrans>:
 6c8:	0f 93       	push	r16
 6ca:	1f 93       	push	r17
 6cc:	8c 01       	movw	r16, r24
 6ce:	e7 df       	rcall	.-50     	; 0x69e <rf12_ready>
 6d0:	c8 01       	movw	r24, r16
 6d2:	6d df       	rcall	.-294    	; 0x5ae <rf12_trans>
 6d4:	1f 91       	pop	r17
 6d6:	0f 91       	pop	r16
 6d8:	08 95       	ret

000006da <rf12_txdata_start>:
 6da:	cf 93       	push	r28
 6dc:	df 93       	push	r29
 6de:	80 e0       	ldi	r24, 0x00	; 0
 6e0:	90 e0       	ldi	r25, 0x00	; 0
 6e2:	65 df       	rcall	.-310    	; 0x5ae <rf12_trans>
 6e4:	88 e3       	ldi	r24, 0x38	; 56
 6e6:	92 e8       	ldi	r25, 0x82	; 130
 6e8:	ef df       	rcall	.-34     	; 0x6c8 <rf12_readytrans>
 6ea:	80 e0       	ldi	r24, 0x00	; 0
 6ec:	90 e0       	ldi	r25, 0x00	; 0
 6ee:	ec df       	rcall	.-40     	; 0x6c8 <rf12_readytrans>
 6f0:	c0 e0       	ldi	r28, 0x00	; 0
 6f2:	d0 e0       	ldi	r29, 0x00	; 0
 6f4:	8a ea       	ldi	r24, 0xAA	; 170
 6f6:	98 eb       	ldi	r25, 0xB8	; 184
 6f8:	e7 df       	rcall	.-50     	; 0x6c8 <rf12_readytrans>
 6fa:	21 96       	adiw	r28, 0x01	; 1
 6fc:	c5 30       	cpi	r28, 0x05	; 5
 6fe:	d1 05       	cpc	r29, r1
 700:	c9 f7       	brne	.-14     	; 0x6f4 <rf12_txdata_start+0x1a>
 702:	8d e2       	ldi	r24, 0x2D	; 45
 704:	98 eb       	ldi	r25, 0xB8	; 184
 706:	e0 df       	rcall	.-64     	; 0x6c8 <rf12_readytrans>
 708:	84 ed       	ldi	r24, 0xD4	; 212
 70a:	98 eb       	ldi	r25, 0xB8	; 184
 70c:	dd df       	rcall	.-70     	; 0x6c8 <rf12_readytrans>
 70e:	80 e0       	ldi	r24, 0x00	; 0
 710:	90 e0       	ldi	r25, 0x00	; 0
 712:	da df       	rcall	.-76     	; 0x6c8 <rf12_readytrans>
 714:	df 91       	pop	r29
 716:	cf 91       	pop	r28
 718:	08 95       	ret

0000071a <rf12_txdata_send>:
 71a:	0f 93       	push	r16
 71c:	1f 93       	push	r17
 71e:	cf 93       	push	r28
 720:	df 93       	push	r29
 722:	18 2f       	mov	r17, r24
 724:	06 2f       	mov	r16, r22
 726:	28 2f       	mov	r18, r24
 728:	39 2f       	mov	r19, r25
 72a:	e9 01       	movw	r28, r18
 72c:	04 c0       	rjmp	.+8      	; 0x736 <rf12_txdata_send+0x1c>
 72e:	89 91       	ld	r24, Y+
 730:	90 e0       	ldi	r25, 0x00	; 0
 732:	98 6b       	ori	r25, 0xB8	; 184
 734:	c9 df       	rcall	.-110    	; 0x6c8 <rf12_readytrans>
 736:	9e 01       	movw	r18, r28
 738:	21 1b       	sub	r18, r17
 73a:	20 17       	cp	r18, r16
 73c:	c0 f3       	brcs	.-16     	; 0x72e <rf12_txdata_send+0x14>
 73e:	df 91       	pop	r29
 740:	cf 91       	pop	r28
 742:	1f 91       	pop	r17
 744:	0f 91       	pop	r16
 746:	08 95       	ret

00000748 <rf12_txdata_end>:
 748:	88 e0       	ldi	r24, 0x08	; 8
 74a:	92 e8       	ldi	r25, 0x82	; 130
 74c:	bd df       	rcall	.-134    	; 0x6c8 <rf12_readytrans>
 74e:	08 95       	ret

00000750 <rf12_txdata>:
 750:	ff 92       	push	r15
 752:	0f 93       	push	r16
 754:	1f 93       	push	r17
 756:	8c 01       	movw	r16, r24
 758:	f6 2e       	mov	r15, r22
 75a:	bf df       	rcall	.-130    	; 0x6da <rf12_txdata_start>
 75c:	81 ef       	ldi	r24, 0xF1	; 241
 75e:	90 e0       	ldi	r25, 0x00	; 0
 760:	64 e0       	ldi	r22, 0x04	; 4
 762:	db df       	rcall	.-74     	; 0x71a <rf12_txdata_send>
 764:	c8 01       	movw	r24, r16
 766:	6f 2d       	mov	r22, r15
 768:	d8 df       	rcall	.-80     	; 0x71a <rf12_txdata_send>
 76a:	ee df       	rcall	.-36     	; 0x748 <rf12_txdata_end>
 76c:	1f 91       	pop	r17
 76e:	0f 91       	pop	r16
 770:	ff 90       	pop	r15
 772:	08 95       	ret

00000774 <rf12_txdataa>:
 774:	df 92       	push	r13
 776:	ef 92       	push	r14
 778:	ff 92       	push	r15
 77a:	0f 93       	push	r16
 77c:	1f 93       	push	r17
 77e:	8c 01       	movw	r16, r24
 780:	7b 01       	movw	r14, r22
 782:	d4 2e       	mov	r13, r20
 784:	aa df       	rcall	.-172    	; 0x6da <rf12_txdata_start>
 786:	c8 01       	movw	r24, r16
 788:	64 e0       	ldi	r22, 0x04	; 4
 78a:	c7 df       	rcall	.-114    	; 0x71a <rf12_txdata_send>
 78c:	c7 01       	movw	r24, r14
 78e:	6d 2d       	mov	r22, r13
 790:	c4 df       	rcall	.-120    	; 0x71a <rf12_txdata_send>
 792:	da df       	rcall	.-76     	; 0x748 <rf12_txdata_end>
 794:	1f 91       	pop	r17
 796:	0f 91       	pop	r16
 798:	ff 90       	pop	r15
 79a:	ef 90       	pop	r14
 79c:	df 90       	pop	r13
 79e:	08 95       	ret

000007a0 <rf12_rxdata>:
 7a0:	ff 92       	push	r15
 7a2:	0f 93       	push	r16
 7a4:	1f 93       	push	r17
 7a6:	cf 93       	push	r28
 7a8:	df 93       	push	r29
 7aa:	8c 01       	movw	r16, r24
 7ac:	f6 2e       	mov	r15, r22
 7ae:	88 ec       	ldi	r24, 0xC8	; 200
 7b0:	92 e8       	ldi	r25, 0x82	; 130
 7b2:	fd de       	rcall	.-518    	; 0x5ae <rf12_trans>
 7b4:	81 e8       	ldi	r24, 0x81	; 129
 7b6:	9a ec       	ldi	r25, 0xCA	; 202
 7b8:	fa de       	rcall	.-524    	; 0x5ae <rf12_trans>
 7ba:	83 e8       	ldi	r24, 0x83	; 131
 7bc:	9a ec       	ldi	r25, 0xCA	; 202
 7be:	f7 de       	rcall	.-530    	; 0x5ae <rf12_trans>
 7c0:	e8 01       	movw	r28, r16
 7c2:	04 c0       	rjmp	.+8      	; 0x7cc <rf12_rxdata+0x2c>
 7c4:	80 e0       	ldi	r24, 0x00	; 0
 7c6:	90 eb       	ldi	r25, 0xB0	; 176
 7c8:	7f df       	rcall	.-258    	; 0x6c8 <rf12_readytrans>
 7ca:	89 93       	st	Y+, r24
 7cc:	9e 01       	movw	r18, r28
 7ce:	20 1b       	sub	r18, r16
 7d0:	2f 15       	cp	r18, r15
 7d2:	c0 f3       	brcs	.-16     	; 0x7c4 <rf12_rxdata+0x24>
 7d4:	88 e0       	ldi	r24, 0x08	; 8
 7d6:	92 e8       	ldi	r25, 0x82	; 130
 7d8:	ea de       	rcall	.-556    	; 0x5ae <rf12_trans>
 7da:	df 91       	pop	r29
 7dc:	cf 91       	pop	r28
 7de:	1f 91       	pop	r17
 7e0:	0f 91       	pop	r16
 7e2:	ff 90       	pop	r15
 7e4:	08 95       	ret

000007e6 <rf12_preinit>:
 7e6:	fc 01       	movw	r30, r24
 7e8:	80 81       	ld	r24, Z
 7ea:	91 81       	ldd	r25, Z+1	; 0x01
 7ec:	a2 81       	ldd	r26, Z+2	; 0x02
 7ee:	b3 81       	ldd	r27, Z+3	; 0x03
 7f0:	80 93 f1 00 	sts	0x00F1, r24
 7f4:	90 93 f2 00 	sts	0x00F2, r25
 7f8:	a0 93 f3 00 	sts	0x00F3, r26
 7fc:	b0 93 f4 00 	sts	0x00F4, r27
 800:	8c e1       	ldi	r24, 0x1C	; 28
 802:	81 bb       	out	0x11, r24	; 17
 804:	80 e1       	ldi	r24, 0x10	; 16
 806:	82 bb       	out	0x12, r24	; 18
 808:	80 e0       	ldi	r24, 0x00	; 0
 80a:	90 e0       	ldi	r25, 0x00	; 0
 80c:	20 e2       	ldi	r18, 0x20	; 32
 80e:	3e e4       	ldi	r19, 0x4E	; 78
 810:	f9 01       	movw	r30, r18
 812:	31 97       	sbiw	r30, 0x01	; 1
 814:	f1 f7       	brne	.-4      	; 0x812 <rf12_preinit+0x2c>
 816:	01 96       	adiw	r24, 0x01	; 1
 818:	84 36       	cpi	r24, 0x64	; 100
 81a:	91 05       	cpc	r25, r1
 81c:	c9 f7       	brne	.-14     	; 0x810 <rf12_preinit+0x2a>
 81e:	08 95       	ret

00000820 <i2c_init>:
 820:	11 b8       	out	0x01, r1	; 1
 822:	80 e2       	ldi	r24, 0x20	; 32
 824:	80 b9       	out	0x00, r24	; 0
 826:	08 95       	ret

00000828 <i2c_start>:
 828:	98 2f       	mov	r25, r24
 82a:	84 ea       	ldi	r24, 0xA4	; 164
 82c:	86 bf       	out	0x36, r24	; 54
 82e:	06 b6       	in	r0, 0x36	; 54
 830:	07 fe       	sbrs	r0, 7
 832:	fd cf       	rjmp	.-6      	; 0x82e <i2c_start+0x6>
 834:	81 b1       	in	r24, 0x01	; 1
 836:	88 7f       	andi	r24, 0xF8	; 248
 838:	88 30       	cpi	r24, 0x08	; 8
 83a:	21 f0       	breq	.+8      	; 0x844 <i2c_start+0x1c>
 83c:	80 31       	cpi	r24, 0x10	; 16
 83e:	11 f0       	breq	.+4      	; 0x844 <i2c_start+0x1c>
 840:	81 e0       	ldi	r24, 0x01	; 1
 842:	08 95       	ret
 844:	93 b9       	out	0x03, r25	; 3
 846:	84 e8       	ldi	r24, 0x84	; 132
 848:	86 bf       	out	0x36, r24	; 54
 84a:	06 b6       	in	r0, 0x36	; 54
 84c:	07 fe       	sbrs	r0, 7
 84e:	fd cf       	rjmp	.-6      	; 0x84a <i2c_start+0x22>
 850:	91 b1       	in	r25, 0x01	; 1
 852:	98 7f       	andi	r25, 0xF8	; 248
 854:	98 31       	cpi	r25, 0x18	; 24
 856:	11 f4       	brne	.+4      	; 0x85c <i2c_start+0x34>
 858:	80 e0       	ldi	r24, 0x00	; 0
 85a:	08 95       	ret
 85c:	80 e0       	ldi	r24, 0x00	; 0
 85e:	90 34       	cpi	r25, 0x40	; 64
 860:	09 f0       	breq	.+2      	; 0x864 <i2c_start+0x3c>
 862:	81 e0       	ldi	r24, 0x01	; 1
 864:	08 95       	ret

00000866 <i2c_start_wait>:
 866:	44 ea       	ldi	r20, 0xA4	; 164
 868:	34 e8       	ldi	r19, 0x84	; 132
 86a:	24 e9       	ldi	r18, 0x94	; 148
 86c:	46 bf       	out	0x36, r20	; 54
 86e:	06 b6       	in	r0, 0x36	; 54
 870:	07 fe       	sbrs	r0, 7
 872:	fd cf       	rjmp	.-6      	; 0x86e <i2c_start_wait+0x8>
 874:	91 b1       	in	r25, 0x01	; 1
 876:	98 7f       	andi	r25, 0xF8	; 248
 878:	98 30       	cpi	r25, 0x08	; 8
 87a:	11 f0       	breq	.+4      	; 0x880 <i2c_start_wait+0x1a>
 87c:	90 31       	cpi	r25, 0x10	; 16
 87e:	b1 f7       	brne	.-20     	; 0x86c <i2c_start_wait+0x6>
 880:	83 b9       	out	0x03, r24	; 3
 882:	36 bf       	out	0x36, r19	; 54
 884:	06 b6       	in	r0, 0x36	; 54
 886:	07 fe       	sbrs	r0, 7
 888:	fd cf       	rjmp	.-6      	; 0x884 <i2c_start_wait+0x1e>
 88a:	91 b1       	in	r25, 0x01	; 1
 88c:	98 7f       	andi	r25, 0xF8	; 248
 88e:	90 32       	cpi	r25, 0x20	; 32
 890:	11 f0       	breq	.+4      	; 0x896 <i2c_start_wait+0x30>
 892:	98 35       	cpi	r25, 0x58	; 88
 894:	29 f4       	brne	.+10     	; 0x8a0 <i2c_start_wait+0x3a>
 896:	26 bf       	out	0x36, r18	; 54
 898:	06 b6       	in	r0, 0x36	; 54
 89a:	04 fc       	sbrc	r0, 4
 89c:	fd cf       	rjmp	.-6      	; 0x898 <i2c_start_wait+0x32>
 89e:	e6 cf       	rjmp	.-52     	; 0x86c <i2c_start_wait+0x6>
 8a0:	08 95       	ret

000008a2 <i2c_rep_start>:
 8a2:	c2 df       	rcall	.-124    	; 0x828 <i2c_start>
 8a4:	08 95       	ret

000008a6 <i2c_stop>:
 8a6:	84 e9       	ldi	r24, 0x94	; 148
 8a8:	86 bf       	out	0x36, r24	; 54
 8aa:	06 b6       	in	r0, 0x36	; 54
 8ac:	04 fc       	sbrc	r0, 4
 8ae:	fd cf       	rjmp	.-6      	; 0x8aa <i2c_stop+0x4>
 8b0:	08 95       	ret

000008b2 <i2c_write>:
 8b2:	83 b9       	out	0x03, r24	; 3
 8b4:	84 e8       	ldi	r24, 0x84	; 132
 8b6:	86 bf       	out	0x36, r24	; 54
 8b8:	06 b6       	in	r0, 0x36	; 54
 8ba:	07 fe       	sbrs	r0, 7
 8bc:	fd cf       	rjmp	.-6      	; 0x8b8 <i2c_write+0x6>
 8be:	81 b1       	in	r24, 0x01	; 1
 8c0:	90 e0       	ldi	r25, 0x00	; 0
 8c2:	88 7f       	andi	r24, 0xF8	; 248
 8c4:	88 32       	cpi	r24, 0x28	; 40
 8c6:	09 f0       	breq	.+2      	; 0x8ca <i2c_write+0x18>
 8c8:	91 e0       	ldi	r25, 0x01	; 1
 8ca:	89 2f       	mov	r24, r25
 8cc:	08 95       	ret

000008ce <i2c_readAck>:
 8ce:	84 ec       	ldi	r24, 0xC4	; 196
 8d0:	86 bf       	out	0x36, r24	; 54
 8d2:	06 b6       	in	r0, 0x36	; 54
 8d4:	07 fe       	sbrs	r0, 7
 8d6:	fd cf       	rjmp	.-6      	; 0x8d2 <i2c_readAck+0x4>
 8d8:	83 b1       	in	r24, 0x03	; 3
 8da:	08 95       	ret

000008dc <i2c_readNak>:
 8dc:	84 e8       	ldi	r24, 0x84	; 132
 8de:	86 bf       	out	0x36, r24	; 54
 8e0:	06 b6       	in	r0, 0x36	; 54
 8e2:	07 fe       	sbrs	r0, 7
 8e4:	fd cf       	rjmp	.-6      	; 0x8e0 <i2c_readNak+0x4>
 8e6:	83 b1       	in	r24, 0x03	; 3
 8e8:	08 95       	ret

000008ea <__vector_11>:
 8ea:	1f 92       	push	r1
 8ec:	0f 92       	push	r0
 8ee:	0f b6       	in	r0, 0x3f	; 63
 8f0:	0f 92       	push	r0
 8f2:	11 24       	eor	r1, r1
 8f4:	2f 93       	push	r18
 8f6:	8f 93       	push	r24
 8f8:	9f 93       	push	r25
 8fa:	ef 93       	push	r30
 8fc:	ff 93       	push	r31
 8fe:	9b b1       	in	r25, 0x0b	; 11
 900:	2c b1       	in	r18, 0x0c	; 12
 902:	e0 91 ce 00 	lds	r30, 0x00CE
 906:	ef 5f       	subi	r30, 0xFF	; 255
 908:	ef 71       	andi	r30, 0x1F	; 31
 90a:	80 91 cf 00 	lds	r24, 0x00CF
 90e:	e8 17       	cp	r30, r24
 910:	11 f4       	brne	.+4      	; 0x916 <__vector_11+0x2c>
 912:	82 e0       	ldi	r24, 0x02	; 2
 914:	08 c0       	rjmp	.+16     	; 0x926 <__vector_11+0x3c>
 916:	89 2f       	mov	r24, r25
 918:	88 71       	andi	r24, 0x18	; 24
 91a:	e0 93 ce 00 	sts	0x00CE, r30
 91e:	f0 e0       	ldi	r31, 0x00	; 0
 920:	e4 55       	subi	r30, 0x54	; 84
 922:	ff 4f       	sbci	r31, 0xFF	; 255
 924:	20 83       	st	Z, r18
 926:	80 93 d0 00 	sts	0x00D0, r24
 92a:	ff 91       	pop	r31
 92c:	ef 91       	pop	r30
 92e:	9f 91       	pop	r25
 930:	8f 91       	pop	r24
 932:	2f 91       	pop	r18
 934:	0f 90       	pop	r0
 936:	0f be       	out	0x3f, r0	; 63
 938:	0f 90       	pop	r0
 93a:	1f 90       	pop	r1
 93c:	18 95       	reti

0000093e <__vector_12>:
 93e:	1f 92       	push	r1
 940:	0f 92       	push	r0
 942:	0f b6       	in	r0, 0x3f	; 63
 944:	0f 92       	push	r0
 946:	11 24       	eor	r1, r1
 948:	8f 93       	push	r24
 94a:	9f 93       	push	r25
 94c:	ef 93       	push	r30
 94e:	ff 93       	push	r31
 950:	90 91 cc 00 	lds	r25, 0x00CC
 954:	80 91 cd 00 	lds	r24, 0x00CD
 958:	98 17       	cp	r25, r24
 95a:	61 f0       	breq	.+24     	; 0x974 <__vector_12+0x36>
 95c:	e0 91 cd 00 	lds	r30, 0x00CD
 960:	ef 5f       	subi	r30, 0xFF	; 255
 962:	ef 71       	andi	r30, 0x1F	; 31
 964:	e0 93 cd 00 	sts	0x00CD, r30
 968:	f0 e0       	ldi	r31, 0x00	; 0
 96a:	e4 57       	subi	r30, 0x74	; 116
 96c:	ff 4f       	sbci	r31, 0xFF	; 255
 96e:	80 81       	ld	r24, Z
 970:	8c b9       	out	0x0c, r24	; 12
 972:	01 c0       	rjmp	.+2      	; 0x976 <__vector_12+0x38>
 974:	55 98       	cbi	0x0a, 5	; 10
 976:	ff 91       	pop	r31
 978:	ef 91       	pop	r30
 97a:	9f 91       	pop	r25
 97c:	8f 91       	pop	r24
 97e:	0f 90       	pop	r0
 980:	0f be       	out	0x3f, r0	; 63
 982:	0f 90       	pop	r0
 984:	1f 90       	pop	r1
 986:	18 95       	reti

00000988 <uart_init>:
 988:	9c 01       	movw	r18, r24
 98a:	10 92 cc 00 	sts	0x00CC, r1
 98e:	10 92 cd 00 	sts	0x00CD, r1
 992:	10 92 ce 00 	sts	0x00CE, r1
 996:	10 92 cf 00 	sts	0x00CF, r1
 99a:	97 ff       	sbrs	r25, 7
 99c:	03 c0       	rjmp	.+6      	; 0x9a4 <uart_init+0x1c>
 99e:	82 e0       	ldi	r24, 0x02	; 2
 9a0:	8b b9       	out	0x0b, r24	; 11
 9a2:	3f 77       	andi	r19, 0x7F	; 127
 9a4:	30 bd       	out	0x20, r19	; 32
 9a6:	29 b9       	out	0x09, r18	; 9
 9a8:	88 e9       	ldi	r24, 0x98	; 152
 9aa:	8a b9       	out	0x0a, r24	; 10
 9ac:	86 e8       	ldi	r24, 0x86	; 134
 9ae:	80 bd       	out	0x20, r24	; 32
 9b0:	08 95       	ret

000009b2 <uart_getc>:
 9b2:	90 91 ce 00 	lds	r25, 0x00CE
 9b6:	80 91 cf 00 	lds	r24, 0x00CF
 9ba:	98 17       	cp	r25, r24
 9bc:	19 f4       	brne	.+6      	; 0x9c4 <uart_getc+0x12>
 9be:	20 e0       	ldi	r18, 0x00	; 0
 9c0:	31 e0       	ldi	r19, 0x01	; 1
 9c2:	12 c0       	rjmp	.+36     	; 0x9e8 <uart_getc+0x36>
 9c4:	e0 91 cf 00 	lds	r30, 0x00CF
 9c8:	ef 5f       	subi	r30, 0xFF	; 255
 9ca:	ef 71       	andi	r30, 0x1F	; 31
 9cc:	e0 93 cf 00 	sts	0x00CF, r30
 9d0:	f0 e0       	ldi	r31, 0x00	; 0
 9d2:	e4 55       	subi	r30, 0x54	; 84
 9d4:	ff 4f       	sbci	r31, 0xFF	; 255
 9d6:	30 81       	ld	r19, Z
 9d8:	20 91 d0 00 	lds	r18, 0x00D0
 9dc:	92 2f       	mov	r25, r18
 9de:	80 e0       	ldi	r24, 0x00	; 0
 9e0:	ac 01       	movw	r20, r24
 9e2:	43 0f       	add	r20, r19
 9e4:	51 1d       	adc	r21, r1
 9e6:	9a 01       	movw	r18, r20
 9e8:	c9 01       	movw	r24, r18
 9ea:	08 95       	ret

000009ec <uart_putc>:
 9ec:	28 2f       	mov	r18, r24
 9ee:	90 91 cc 00 	lds	r25, 0x00CC
 9f2:	9f 5f       	subi	r25, 0xFF	; 255
 9f4:	9f 71       	andi	r25, 0x1F	; 31
 9f6:	80 91 cd 00 	lds	r24, 0x00CD
 9fa:	98 17       	cp	r25, r24
 9fc:	e1 f3       	breq	.-8      	; 0x9f6 <uart_putc+0xa>
 9fe:	e9 2f       	mov	r30, r25
 a00:	f0 e0       	ldi	r31, 0x00	; 0
 a02:	e4 57       	subi	r30, 0x74	; 116
 a04:	ff 4f       	sbci	r31, 0xFF	; 255
 a06:	20 83       	st	Z, r18
 a08:	90 93 cc 00 	sts	0x00CC, r25
 a0c:	55 9a       	sbi	0x0a, 5	; 10
 a0e:	08 95       	ret

00000a10 <uart_puts>:
 a10:	dc 01       	movw	r26, r24
 a12:	11 c0       	rjmp	.+34     	; 0xa36 <uart_puts+0x26>
 a14:	90 91 cc 00 	lds	r25, 0x00CC
 a18:	9f 5f       	subi	r25, 0xFF	; 255
 a1a:	9f 71       	andi	r25, 0x1F	; 31
 a1c:	80 91 cd 00 	lds	r24, 0x00CD
 a20:	98 17       	cp	r25, r24
 a22:	e1 f3       	breq	.-8      	; 0xa1c <uart_puts+0xc>
 a24:	11 96       	adiw	r26, 0x01	; 1
 a26:	e9 2f       	mov	r30, r25
 a28:	f0 e0       	ldi	r31, 0x00	; 0
 a2a:	e4 57       	subi	r30, 0x74	; 116
 a2c:	ff 4f       	sbci	r31, 0xFF	; 255
 a2e:	20 83       	st	Z, r18
 a30:	90 93 cc 00 	sts	0x00CC, r25
 a34:	55 9a       	sbi	0x0a, 5	; 10
 a36:	2c 91       	ld	r18, X
 a38:	22 23       	and	r18, r18
 a3a:	61 f7       	brne	.-40     	; 0xa14 <uart_puts+0x4>
 a3c:	08 95       	ret

00000a3e <uart_puts_p>:
 a3e:	ac 01       	movw	r20, r24
 a40:	10 c0       	rjmp	.+32     	; 0xa62 <uart_puts_p+0x24>
 a42:	20 91 cc 00 	lds	r18, 0x00CC
 a46:	2f 5f       	subi	r18, 0xFF	; 255
 a48:	2f 71       	andi	r18, 0x1F	; 31
 a4a:	80 91 cd 00 	lds	r24, 0x00CD
 a4e:	28 17       	cp	r18, r24
 a50:	e1 f3       	breq	.-8      	; 0xa4a <uart_puts_p+0xc>
 a52:	e2 2f       	mov	r30, r18
 a54:	f0 e0       	ldi	r31, 0x00	; 0
 a56:	e4 57       	subi	r30, 0x74	; 116
 a58:	ff 4f       	sbci	r31, 0xFF	; 255
 a5a:	90 83       	st	Z, r25
 a5c:	20 93 cc 00 	sts	0x00CC, r18
 a60:	55 9a       	sbi	0x0a, 5	; 10
 a62:	fa 01       	movw	r30, r20
 a64:	4f 5f       	subi	r20, 0xFF	; 255
 a66:	5f 4f       	sbci	r21, 0xFF	; 255
 a68:	94 91       	lpm	r25, Z+
 a6a:	99 23       	and	r25, r25
 a6c:	51 f7       	brne	.-44     	; 0xa42 <uart_puts_p+0x4>
 a6e:	08 95       	ret

00000a70 <__mulsi3>:
 a70:	62 9f       	mul	r22, r18
 a72:	d0 01       	movw	r26, r0
 a74:	73 9f       	mul	r23, r19
 a76:	f0 01       	movw	r30, r0
 a78:	82 9f       	mul	r24, r18
 a7a:	e0 0d       	add	r30, r0
 a7c:	f1 1d       	adc	r31, r1
 a7e:	64 9f       	mul	r22, r20
 a80:	e0 0d       	add	r30, r0
 a82:	f1 1d       	adc	r31, r1
 a84:	92 9f       	mul	r25, r18
 a86:	f0 0d       	add	r31, r0
 a88:	83 9f       	mul	r24, r19
 a8a:	f0 0d       	add	r31, r0
 a8c:	74 9f       	mul	r23, r20
 a8e:	f0 0d       	add	r31, r0
 a90:	65 9f       	mul	r22, r21
 a92:	f0 0d       	add	r31, r0
 a94:	99 27       	eor	r25, r25
 a96:	72 9f       	mul	r23, r18
 a98:	b0 0d       	add	r27, r0
 a9a:	e1 1d       	adc	r30, r1
 a9c:	f9 1f       	adc	r31, r25
 a9e:	63 9f       	mul	r22, r19
 aa0:	b0 0d       	add	r27, r0
 aa2:	e1 1d       	adc	r30, r1
 aa4:	f9 1f       	adc	r31, r25
 aa6:	bd 01       	movw	r22, r26
 aa8:	cf 01       	movw	r24, r30
 aaa:	11 24       	eor	r1, r1
 aac:	08 95       	ret

00000aae <__udivmodhi4>:
 aae:	aa 1b       	sub	r26, r26
 ab0:	bb 1b       	sub	r27, r27
 ab2:	51 e1       	ldi	r21, 0x11	; 17
 ab4:	07 c0       	rjmp	.+14     	; 0xac4 <__udivmodhi4_ep>

00000ab6 <__udivmodhi4_loop>:
 ab6:	aa 1f       	adc	r26, r26
 ab8:	bb 1f       	adc	r27, r27
 aba:	a6 17       	cp	r26, r22
 abc:	b7 07       	cpc	r27, r23
 abe:	10 f0       	brcs	.+4      	; 0xac4 <__udivmodhi4_ep>
 ac0:	a6 1b       	sub	r26, r22
 ac2:	b7 0b       	sbc	r27, r23

00000ac4 <__udivmodhi4_ep>:
 ac4:	88 1f       	adc	r24, r24
 ac6:	99 1f       	adc	r25, r25
 ac8:	5a 95       	dec	r21
 aca:	a9 f7       	brne	.-22     	; 0xab6 <__udivmodhi4_loop>
 acc:	80 95       	com	r24
 ace:	90 95       	com	r25
 ad0:	bc 01       	movw	r22, r24
 ad2:	cd 01       	movw	r24, r26
 ad4:	08 95       	ret

00000ad6 <__udivmodsi4>:
 ad6:	a1 e2       	ldi	r26, 0x21	; 33
 ad8:	1a 2e       	mov	r1, r26
 ada:	aa 1b       	sub	r26, r26
 adc:	bb 1b       	sub	r27, r27
 ade:	fd 01       	movw	r30, r26
 ae0:	0d c0       	rjmp	.+26     	; 0xafc <__udivmodsi4_ep>

00000ae2 <__udivmodsi4_loop>:
 ae2:	aa 1f       	adc	r26, r26
 ae4:	bb 1f       	adc	r27, r27
 ae6:	ee 1f       	adc	r30, r30
 ae8:	ff 1f       	adc	r31, r31
 aea:	a2 17       	cp	r26, r18
 aec:	b3 07       	cpc	r27, r19
 aee:	e4 07       	cpc	r30, r20
 af0:	f5 07       	cpc	r31, r21
 af2:	20 f0       	brcs	.+8      	; 0xafc <__udivmodsi4_ep>
 af4:	a2 1b       	sub	r26, r18
 af6:	b3 0b       	sbc	r27, r19
 af8:	e4 0b       	sbc	r30, r20
 afa:	f5 0b       	sbc	r31, r21

00000afc <__udivmodsi4_ep>:
 afc:	66 1f       	adc	r22, r22
 afe:	77 1f       	adc	r23, r23
 b00:	88 1f       	adc	r24, r24
 b02:	99 1f       	adc	r25, r25
 b04:	1a 94       	dec	r1
 b06:	69 f7       	brne	.-38     	; 0xae2 <__udivmodsi4_loop>
 b08:	60 95       	com	r22
 b0a:	70 95       	com	r23
 b0c:	80 95       	com	r24
 b0e:	90 95       	com	r25
 b10:	9b 01       	movw	r18, r22
 b12:	ac 01       	movw	r20, r24
 b14:	bd 01       	movw	r22, r26
 b16:	cf 01       	movw	r24, r30
 b18:	08 95       	ret

00000b1a <__divmodsi4>:
 b1a:	97 fb       	bst	r25, 7
 b1c:	09 2e       	mov	r0, r25
 b1e:	05 26       	eor	r0, r21
 b20:	0e d0       	rcall	.+28     	; 0xb3e <__divmodsi4_neg1>
 b22:	57 fd       	sbrc	r21, 7
 b24:	04 d0       	rcall	.+8      	; 0xb2e <__divmodsi4_neg2>
 b26:	d7 df       	rcall	.-82     	; 0xad6 <__udivmodsi4>
 b28:	0a d0       	rcall	.+20     	; 0xb3e <__divmodsi4_neg1>
 b2a:	00 1c       	adc	r0, r0
 b2c:	38 f4       	brcc	.+14     	; 0xb3c <__divmodsi4_exit>

00000b2e <__divmodsi4_neg2>:
 b2e:	50 95       	com	r21
 b30:	40 95       	com	r20
 b32:	30 95       	com	r19
 b34:	21 95       	neg	r18
 b36:	3f 4f       	sbci	r19, 0xFF	; 255
 b38:	4f 4f       	sbci	r20, 0xFF	; 255
 b3a:	5f 4f       	sbci	r21, 0xFF	; 255

00000b3c <__divmodsi4_exit>:
 b3c:	08 95       	ret

00000b3e <__divmodsi4_neg1>:
 b3e:	f6 f7       	brtc	.-4      	; 0xb3c <__divmodsi4_exit>
 b40:	90 95       	com	r25
 b42:	80 95       	com	r24
 b44:	70 95       	com	r23
 b46:	61 95       	neg	r22
 b48:	7f 4f       	sbci	r23, 0xFF	; 255
 b4a:	8f 4f       	sbci	r24, 0xFF	; 255
 b4c:	9f 4f       	sbci	r25, 0xFF	; 255
 b4e:	08 95       	ret

00000b50 <_exit>:
 b50:	f8 94       	cli

00000b52 <__stop_program>:
 b52:	ff cf       	rjmp	.-2      	; 0xb52 <__stop_program>
