
wordclock.elf:     file format elf32-avr

Sections:
Idx Name          Size      VMA       LMA       File off  Algn
  0 .text         000027ec  00000000  00000000  00000094  2**1
                  CONTENTS, ALLOC, LOAD, READONLY, CODE
  1 .data         00000330  00800060  000027ec  00002880  2**0
                  CONTENTS, ALLOC, LOAD, DATA
  2 .bss          0000004a  00800390  00800390  00002bb0  2**0
                  ALLOC
  3 .stab         00000c84  00000000  00000000  00002bb0  2**2
                  CONTENTS, READONLY, DEBUGGING
  4 .stabstr      000000e9  00000000  00000000  00003834  2**0
                  CONTENTS, READONLY, DEBUGGING
  5 .debug_aranges 00000060  00000000  00000000  0000391d  2**0
                  CONTENTS, READONLY, DEBUGGING
  6 .debug_pubnames 00000059  00000000  00000000  0000397d  2**0
                  CONTENTS, READONLY, DEBUGGING
  7 .debug_info   00000666  00000000  00000000  000039d6  2**0
                  CONTENTS, READONLY, DEBUGGING
  8 .debug_abbrev 0000037c  00000000  00000000  0000403c  2**0
                  CONTENTS, READONLY, DEBUGGING
  9 .debug_line   0000063f  00000000  00000000  000043b8  2**0
                  CONTENTS, READONLY, DEBUGGING
 10 .debug_frame  00000060  00000000  00000000  000049f8  2**2
                  CONTENTS, READONLY, DEBUGGING
 11 .debug_str    00000172  00000000  00000000  00004a58  2**0
                  CONTENTS, READONLY, DEBUGGING
 12 .debug_loc    000004cf  00000000  00000000  00004bca  2**0
                  CONTENTS, READONLY, DEBUGGING
 13 .debug_ranges 00000060  00000000  00000000  00005099  2**0
                  CONTENTS, READONLY, DEBUGGING

Disassembly of section .text:

00000000 <__vectors>:
       0:	0c 94 66 00 	jmp	0xcc	; 0xcc <__ctors_end>
       4:	0c 94 83 00 	jmp	0x106	; 0x106 <__bad_interrupt>
       8:	0c 94 83 00 	jmp	0x106	; 0x106 <__bad_interrupt>
       c:	0c 94 83 00 	jmp	0x106	; 0x106 <__bad_interrupt>
      10:	0c 94 83 00 	jmp	0x106	; 0x106 <__bad_interrupt>
      14:	0c 94 83 00 	jmp	0x106	; 0x106 <__bad_interrupt>
      18:	0c 94 83 00 	jmp	0x106	; 0x106 <__bad_interrupt>
      1c:	0c 94 83 00 	jmp	0x106	; 0x106 <__bad_interrupt>
      20:	0c 94 83 00 	jmp	0x106	; 0x106 <__bad_interrupt>
      24:	0c 94 83 00 	jmp	0x106	; 0x106 <__bad_interrupt>
      28:	0c 94 83 00 	jmp	0x106	; 0x106 <__bad_interrupt>
      2c:	0c 94 83 00 	jmp	0x106	; 0x106 <__bad_interrupt>
      30:	0c 94 83 00 	jmp	0x106	; 0x106 <__bad_interrupt>
      34:	0c 94 d7 06 	jmp	0xdae	; 0xdae <__vector_13>
      38:	0c 94 83 00 	jmp	0x106	; 0x106 <__bad_interrupt>
      3c:	0c 94 83 00 	jmp	0x106	; 0x106 <__bad_interrupt>
      40:	0c 94 83 00 	jmp	0x106	; 0x106 <__bad_interrupt>
      44:	0c 94 83 00 	jmp	0x106	; 0x106 <__bad_interrupt>
      48:	0c 94 83 00 	jmp	0x106	; 0x106 <__bad_interrupt>
      4c:	0c 94 83 00 	jmp	0x106	; 0x106 <__bad_interrupt>
      50:	0c 94 83 00 	jmp	0x106	; 0x106 <__bad_interrupt>

00000054 <words>:
      54:	01 00 00 00 02 00 00 00 04 00 00 00 08 00 00 00     ................
      64:	10 00 00 00 20 00 00 00 40 00 00 00 80 00 00 00     .... ...@.......
      74:	00 01 00 00 00 02 00 00 00 04 00 00 00 18 00 00     ................
      84:	00 30 00 00 00 40 00 00 00 80 00 00 00 00 01 00     .0...@..........
      94:	00 00 02 00 00 00 04 00 00 00 08 00 00 00 10 00     ................
      a4:	00 00 20 00 00 00 40 00 00 00 80 00 00 00 00 01     .. ...@.........
      b4:	00 00 00 02 00 00 00 04 00 00 00 08 00 00 00 10     ................
      c4:	00 00 00 20 00 00 00 40                             ... ...@

000000cc <__ctors_end>:
      cc:	11 24       	eor	r1, r1
      ce:	1f be       	out	0x3f, r1	; 63
      d0:	cf e5       	ldi	r28, 0x5F	; 95
      d2:	d8 e0       	ldi	r29, 0x08	; 8
      d4:	de bf       	out	0x3e, r29	; 62
      d6:	cd bf       	out	0x3d, r28	; 61

000000d8 <__do_copy_data>:
      d8:	13 e0       	ldi	r17, 0x03	; 3
      da:	a0 e6       	ldi	r26, 0x60	; 96
      dc:	b0 e0       	ldi	r27, 0x00	; 0
      de:	ec ee       	ldi	r30, 0xEC	; 236
      e0:	f7 e2       	ldi	r31, 0x27	; 39
      e2:	02 c0       	rjmp	.+4      	; 0xe8 <.do_copy_data_start>

000000e4 <.do_copy_data_loop>:
      e4:	05 90       	lpm	r0, Z+
      e6:	0d 92       	st	X+, r0

000000e8 <.do_copy_data_start>:
      e8:	a0 39       	cpi	r26, 0x90	; 144
      ea:	b1 07       	cpc	r27, r17
      ec:	d9 f7       	brne	.-10     	; 0xe4 <.do_copy_data_loop>

000000ee <__do_clear_bss>:
      ee:	13 e0       	ldi	r17, 0x03	; 3
      f0:	a0 e9       	ldi	r26, 0x90	; 144
      f2:	b3 e0       	ldi	r27, 0x03	; 3
      f4:	01 c0       	rjmp	.+2      	; 0xf8 <.do_clear_bss_start>

000000f6 <.do_clear_bss_loop>:
      f6:	1d 92       	st	X+, r1

000000f8 <.do_clear_bss_start>:
      f8:	aa 3d       	cpi	r26, 0xDA	; 218
      fa:	b1 07       	cpc	r27, r17
      fc:	e1 f7       	brne	.-8      	; 0xf6 <.do_clear_bss_loop>
      fe:	0e 94 45 08 	call	0x108a	; 0x108a <main>
     102:	0c 94 f4 13 	jmp	0x27e8	; 0x27e8 <_exit>

00000106 <__bad_interrupt>:
     106:	0c 94 00 00 	jmp	0	; 0x0 <__vectors>

0000010a <i2c_master_init>:
     10a:	80 91 90 03 	lds	r24, 0x0390
     10e:	88 23       	and	r24, r24
     110:	31 f4       	brne	.+12     	; 0x11e <i2c_master_init+0x14>
     112:	11 b8       	out	0x01, r1	; 1
     114:	8c e0       	ldi	r24, 0x0C	; 12
     116:	80 b9       	out	0x00, r24	; 0
     118:	81 e0       	ldi	r24, 0x01	; 1
     11a:	80 93 90 03 	sts	0x0390, r24
     11e:	80 e0       	ldi	r24, 0x00	; 0
     120:	08 95       	ret

00000122 <i2c_master_start>:
     122:	98 2f       	mov	r25, r24
     124:	fb 01       	movw	r30, r22
     126:	84 ea       	ldi	r24, 0xA4	; 164
     128:	86 bf       	out	0x36, r24	; 54
     12a:	06 b6       	in	r0, 0x36	; 54
     12c:	07 fe       	sbrs	r0, 7
     12e:	fd cf       	rjmp	.-6      	; 0x12a <i2c_master_start+0x8>
     130:	81 b1       	in	r24, 0x01	; 1
     132:	88 7f       	andi	r24, 0xF8	; 248
     134:	88 30       	cpi	r24, 0x08	; 8
     136:	11 f0       	breq	.+4      	; 0x13c <i2c_master_start+0x1a>
     138:	80 31       	cpi	r24, 0x10	; 16
     13a:	61 f4       	brne	.+24     	; 0x154 <i2c_master_start+0x32>
     13c:	93 b9       	out	0x03, r25	; 3
     13e:	84 e8       	ldi	r24, 0x84	; 132
     140:	86 bf       	out	0x36, r24	; 54
     142:	06 b6       	in	r0, 0x36	; 54
     144:	07 fe       	sbrs	r0, 7
     146:	fd cf       	rjmp	.-6      	; 0x142 <i2c_master_start+0x20>
     148:	81 b1       	in	r24, 0x01	; 1
     14a:	88 7f       	andi	r24, 0xF8	; 248
     14c:	88 31       	cpi	r24, 0x18	; 24
     14e:	29 f0       	breq	.+10     	; 0x15a <i2c_master_start+0x38>
     150:	80 34       	cpi	r24, 0x40	; 64
     152:	19 f0       	breq	.+6      	; 0x15a <i2c_master_start+0x38>
     154:	80 83       	st	Z, r24
     156:	81 e0       	ldi	r24, 0x01	; 1
     158:	08 95       	ret
     15a:	80 e0       	ldi	r24, 0x00	; 0
     15c:	08 95       	ret

0000015e <i2c_master_rep_start>:
     15e:	0e 94 91 00 	call	0x122	; 0x122 <i2c_master_start>
     162:	08 95       	ret

00000164 <i2c_master_stop>:
     164:	84 e9       	ldi	r24, 0x94	; 148
     166:	86 bf       	out	0x36, r24	; 54
     168:	06 b6       	in	r0, 0x36	; 54
     16a:	04 fc       	sbrc	r0, 4
     16c:	fd cf       	rjmp	.-6      	; 0x168 <i2c_master_stop+0x4>
     16e:	08 95       	ret

00000170 <i2c_master_write>:
     170:	fb 01       	movw	r30, r22
     172:	83 b9       	out	0x03, r24	; 3
     174:	84 e8       	ldi	r24, 0x84	; 132
     176:	86 bf       	out	0x36, r24	; 54
     178:	06 b6       	in	r0, 0x36	; 54
     17a:	07 fe       	sbrs	r0, 7
     17c:	fd cf       	rjmp	.-6      	; 0x178 <i2c_master_write+0x8>
     17e:	81 b1       	in	r24, 0x01	; 1
     180:	88 7f       	andi	r24, 0xF8	; 248
     182:	88 32       	cpi	r24, 0x28	; 40
     184:	11 f4       	brne	.+4      	; 0x18a <i2c_master_write+0x1a>
     186:	80 e0       	ldi	r24, 0x00	; 0
     188:	08 95       	ret
     18a:	80 83       	st	Z, r24
     18c:	81 e0       	ldi	r24, 0x01	; 1
     18e:	08 95       	ret

00000190 <i2c_master_read_ack>:
     190:	84 ec       	ldi	r24, 0xC4	; 196
     192:	86 bf       	out	0x36, r24	; 54
     194:	06 b6       	in	r0, 0x36	; 54
     196:	07 fe       	sbrs	r0, 7
     198:	fd cf       	rjmp	.-6      	; 0x194 <i2c_master_read_ack+0x4>
     19a:	83 b1       	in	r24, 0x03	; 3
     19c:	08 95       	ret

0000019e <i2c_master_read_nak>:
     19e:	84 e8       	ldi	r24, 0x84	; 132
     1a0:	86 bf       	out	0x36, r24	; 54
     1a2:	06 b6       	in	r0, 0x36	; 54
     1a4:	07 fe       	sbrs	r0, 7
     1a6:	fd cf       	rjmp	.-6      	; 0x1a2 <i2c_master_read_nak+0x4>
     1a8:	83 b1       	in	r24, 0x03	; 3
     1aa:	08 95       	ret

000001ac <i2c_master_start_wait>:
     1ac:	8f 92       	push	r8
     1ae:	9f 92       	push	r9
     1b0:	af 92       	push	r10
     1b2:	bf 92       	push	r11
     1b4:	cf 92       	push	r12
     1b6:	df 92       	push	r13
     1b8:	ef 92       	push	r14
     1ba:	ff 92       	push	r15
     1bc:	0f 93       	push	r16
     1be:	1f 93       	push	r17
     1c0:	df 93       	push	r29
     1c2:	cf 93       	push	r28
     1c4:	cd b7       	in	r28, 0x3d	; 61
     1c6:	de b7       	in	r29, 0x3e	; 62
     1c8:	c4 56       	subi	r28, 0x64	; 100
     1ca:	d0 40       	sbci	r29, 0x00	; 0
     1cc:	0f b6       	in	r0, 0x3f	; 63
     1ce:	f8 94       	cli
     1d0:	de bf       	out	0x3e, r29	; 62
     1d2:	0f be       	out	0x3f, r0	; 63
     1d4:	cd bf       	out	0x3d, r28	; 61
     1d6:	b8 2e       	mov	r11, r24
     1d8:	44 ea       	ldi	r20, 0xA4	; 164
     1da:	84 2e       	mov	r8, r20
     1dc:	34 e8       	ldi	r19, 0x84	; 132
     1de:	93 2e       	mov	r9, r19
     1e0:	24 e9       	ldi	r18, 0x94	; 148
     1e2:	a2 2e       	mov	r10, r18
     1e4:	8e 01       	movw	r16, r28
     1e6:	0f 5f       	subi	r16, 0xFF	; 255
     1e8:	1f 4f       	sbci	r17, 0xFF	; 255
     1ea:	93 e7       	ldi	r25, 0x73	; 115
     1ec:	c9 2e       	mov	r12, r25
     1ee:	90 e0       	ldi	r25, 0x00	; 0
     1f0:	d9 2e       	mov	r13, r25
     1f2:	80 e6       	ldi	r24, 0x60	; 96
     1f4:	e8 2e       	mov	r14, r24
     1f6:	80 e0       	ldi	r24, 0x00	; 0
     1f8:	f8 2e       	mov	r15, r24
     1fa:	86 be       	out	0x36, r8	; 54
     1fc:	06 b6       	in	r0, 0x36	; 54
     1fe:	07 fe       	sbrs	r0, 7
     200:	fd cf       	rjmp	.-6      	; 0x1fc <i2c_master_start_wait+0x50>
     202:	81 b1       	in	r24, 0x01	; 1
     204:	88 7f       	andi	r24, 0xF8	; 248
     206:	88 30       	cpi	r24, 0x08	; 8
     208:	89 f0       	breq	.+34     	; 0x22c <i2c_master_start_wait+0x80>
     20a:	80 31       	cpi	r24, 0x10	; 16
     20c:	79 f0       	breq	.+30     	; 0x22c <i2c_master_start_wait+0x80>
     20e:	00 d0       	rcall	.+0      	; 0x210 <i2c_master_start_wait+0x64>
     210:	00 d0       	rcall	.+0      	; 0x212 <i2c_master_start_wait+0x66>
     212:	00 d0       	rcall	.+0      	; 0x214 <i2c_master_start_wait+0x68>
     214:	ed b7       	in	r30, 0x3d	; 61
     216:	fe b7       	in	r31, 0x3e	; 62
     218:	31 96       	adiw	r30, 0x01	; 1
     21a:	ad b7       	in	r26, 0x3d	; 61
     21c:	be b7       	in	r27, 0x3e	; 62
     21e:	12 96       	adiw	r26, 0x02	; 2
     220:	1c 93       	st	X, r17
     222:	0e 93       	st	-X, r16
     224:	11 97       	sbiw	r26, 0x01	; 1
     226:	f3 82       	std	Z+3, r15	; 0x03
     228:	e2 82       	std	Z+2, r14	; 0x02
     22a:	1d c0       	rjmp	.+58     	; 0x266 <i2c_master_start_wait+0xba>
     22c:	b3 b8       	out	0x03, r11	; 3
     22e:	96 be       	out	0x36, r9	; 54
     230:	06 b6       	in	r0, 0x36	; 54
     232:	07 fe       	sbrs	r0, 7
     234:	fd cf       	rjmp	.-6      	; 0x230 <i2c_master_start_wait+0x84>
     236:	81 b1       	in	r24, 0x01	; 1
     238:	88 7f       	andi	r24, 0xF8	; 248
     23a:	80 32       	cpi	r24, 0x20	; 32
     23c:	11 f0       	breq	.+4      	; 0x242 <i2c_master_start_wait+0x96>
     23e:	88 35       	cpi	r24, 0x58	; 88
     240:	11 f5       	brne	.+68     	; 0x286 <i2c_master_start_wait+0xda>
     242:	a6 be       	out	0x36, r10	; 54
     244:	06 b6       	in	r0, 0x36	; 54
     246:	04 fc       	sbrc	r0, 4
     248:	fd cf       	rjmp	.-6      	; 0x244 <i2c_master_start_wait+0x98>
     24a:	00 d0       	rcall	.+0      	; 0x24c <i2c_master_start_wait+0xa0>
     24c:	00 d0       	rcall	.+0      	; 0x24e <i2c_master_start_wait+0xa2>
     24e:	00 d0       	rcall	.+0      	; 0x250 <i2c_master_start_wait+0xa4>
     250:	ed b7       	in	r30, 0x3d	; 61
     252:	fe b7       	in	r31, 0x3e	; 62
     254:	31 96       	adiw	r30, 0x01	; 1
     256:	ad b7       	in	r26, 0x3d	; 61
     258:	be b7       	in	r27, 0x3e	; 62
     25a:	12 96       	adiw	r26, 0x02	; 2
     25c:	1c 93       	st	X, r17
     25e:	0e 93       	st	-X, r16
     260:	11 97       	sbiw	r26, 0x01	; 1
     262:	d3 82       	std	Z+3, r13	; 0x03
     264:	c2 82       	std	Z+2, r12	; 0x02
     266:	84 83       	std	Z+4, r24	; 0x04
     268:	15 82       	std	Z+5, r1	; 0x05
     26a:	0e 94 1c 11 	call	0x2238	; 0x2238 <sprintf>
     26e:	8d b7       	in	r24, 0x3d	; 61
     270:	9e b7       	in	r25, 0x3e	; 62
     272:	06 96       	adiw	r24, 0x06	; 6
     274:	0f b6       	in	r0, 0x3f	; 63
     276:	f8 94       	cli
     278:	9e bf       	out	0x3e, r25	; 62
     27a:	0f be       	out	0x3f, r0	; 63
     27c:	8d bf       	out	0x3d, r24	; 61
     27e:	c8 01       	movw	r24, r16
     280:	0e 94 9a 06 	call	0xd34	; 0xd34 <uartPuts>
     284:	ba cf       	rjmp	.-140    	; 0x1fa <i2c_master_start_wait+0x4e>
     286:	cc 59       	subi	r28, 0x9C	; 156
     288:	df 4f       	sbci	r29, 0xFF	; 255
     28a:	0f b6       	in	r0, 0x3f	; 63
     28c:	f8 94       	cli
     28e:	de bf       	out	0x3e, r29	; 62
     290:	0f be       	out	0x3f, r0	; 63
     292:	cd bf       	out	0x3d, r28	; 61
     294:	cf 91       	pop	r28
     296:	df 91       	pop	r29
     298:	1f 91       	pop	r17
     29a:	0f 91       	pop	r16
     29c:	ff 90       	pop	r15
     29e:	ef 90       	pop	r14
     2a0:	df 90       	pop	r13
     2a2:	cf 90       	pop	r12
     2a4:	bf 90       	pop	r11
     2a6:	af 90       	pop	r10
     2a8:	9f 90       	pop	r9
     2aa:	8f 90       	pop	r8
     2ac:	08 95       	ret

000002ae <bcdtoi>:
     2ae:	28 2f       	mov	r18, r24
     2b0:	22 95       	swap	r18
     2b2:	2f 70       	andi	r18, 0x0F	; 15
     2b4:	9a e0       	ldi	r25, 0x0A	; 10
     2b6:	29 9f       	mul	r18, r25
     2b8:	90 01       	movw	r18, r0
     2ba:	11 24       	eor	r1, r1
     2bc:	8f 70       	andi	r24, 0x0F	; 15
     2be:	82 0f       	add	r24, r18
     2c0:	08 95       	ret

000002c2 <itobcd>:
     2c2:	38 2f       	mov	r19, r24
     2c4:	8d ec       	ldi	r24, 0xCD	; 205
     2c6:	38 9f       	mul	r19, r24
     2c8:	c0 01       	movw	r24, r0
     2ca:	11 24       	eor	r1, r1
     2cc:	29 2f       	mov	r18, r25
     2ce:	26 95       	lsr	r18
     2d0:	26 95       	lsr	r18
     2d2:	26 95       	lsr	r18
     2d4:	86 ef       	ldi	r24, 0xF6	; 246
     2d6:	9f ef       	ldi	r25, 0xFF	; 255
     2d8:	28 9f       	mul	r18, r24
     2da:	80 2d       	mov	r24, r0
     2dc:	11 24       	eor	r1, r1
     2de:	83 0f       	add	r24, r19
     2e0:	22 95       	swap	r18
     2e2:	20 7f       	andi	r18, 0xF0	; 240
     2e4:	82 2b       	or	r24, r18
     2e6:	08 95       	ret

000002e8 <i2c_rtc_get_status>:
     2e8:	80 91 93 03 	lds	r24, 0x0393
     2ec:	08 95       	ret

000002ee <add_year>:
     2ee:	fc 01       	movw	r30, r24
     2f0:	80 81       	ld	r24, Z
     2f2:	8f 5f       	subi	r24, 0xFF	; 255
     2f4:	80 83       	st	Z, r24
     2f6:	08 95       	ret

000002f8 <sub_year>:
     2f8:	fc 01       	movw	r30, r24
     2fa:	80 81       	ld	r24, Z
     2fc:	81 50       	subi	r24, 0x01	; 1
     2fe:	80 83       	st	Z, r24
     300:	08 95       	ret

00000302 <add_month>:
     302:	fc 01       	movw	r30, r24
     304:	81 81       	ldd	r24, Z+1	; 0x01
     306:	8f 5f       	subi	r24, 0xFF	; 255
     308:	81 83       	std	Z+1, r24	; 0x01
     30a:	8d 30       	cpi	r24, 0x0D	; 13
     30c:	28 f0       	brcs	.+10     	; 0x318 <add_month+0x16>
     30e:	81 e0       	ldi	r24, 0x01	; 1
     310:	81 83       	std	Z+1, r24	; 0x01
     312:	80 81       	ld	r24, Z
     314:	8f 5f       	subi	r24, 0xFF	; 255
     316:	80 83       	st	Z, r24
     318:	08 95       	ret

0000031a <sub_month>:
     31a:	fc 01       	movw	r30, r24
     31c:	81 81       	ldd	r24, Z+1	; 0x01
     31e:	81 50       	subi	r24, 0x01	; 1
     320:	81 83       	std	Z+1, r24	; 0x01
     322:	88 23       	and	r24, r24
     324:	29 f4       	brne	.+10     	; 0x330 <sub_month+0x16>
     326:	8c e0       	ldi	r24, 0x0C	; 12
     328:	81 83       	std	Z+1, r24	; 0x01
     32a:	80 81       	ld	r24, Z
     32c:	81 50       	subi	r24, 0x01	; 1
     32e:	80 83       	st	Z, r24
     330:	08 95       	ret

00000332 <add_day>:
     332:	fc 01       	movw	r30, r24
     334:	32 81       	ldd	r19, Z+2	; 0x02
     336:	3f 5f       	subi	r19, 0xFF	; 255
     338:	32 83       	std	Z+2, r19	; 0x02
     33a:	81 81       	ldd	r24, Z+1	; 0x01
     33c:	86 30       	cpi	r24, 0x06	; 6
     33e:	59 f0       	breq	.+22     	; 0x356 <add_day+0x24>
     340:	87 30       	cpi	r24, 0x07	; 7
     342:	28 f4       	brcc	.+10     	; 0x34e <add_day+0x1c>
     344:	82 30       	cpi	r24, 0x02	; 2
     346:	59 f0       	breq	.+22     	; 0x35e <add_day+0x2c>
     348:	84 30       	cpi	r24, 0x04	; 4
     34a:	39 f4       	brne	.+14     	; 0x35a <add_day+0x28>
     34c:	04 c0       	rjmp	.+8      	; 0x356 <add_day+0x24>
     34e:	89 30       	cpi	r24, 0x09	; 9
     350:	11 f0       	breq	.+4      	; 0x356 <add_day+0x24>
     352:	8b 30       	cpi	r24, 0x0B	; 11
     354:	11 f4       	brne	.+4      	; 0x35a <add_day+0x28>
     356:	8e e1       	ldi	r24, 0x1E	; 30
     358:	12 c0       	rjmp	.+36     	; 0x37e <add_day+0x4c>
     35a:	8f e1       	ldi	r24, 0x1F	; 31
     35c:	10 c0       	rjmp	.+32     	; 0x37e <add_day+0x4c>
     35e:	20 81       	ld	r18, Z
     360:	82 2f       	mov	r24, r18
     362:	90 e0       	ldi	r25, 0x00	; 0
     364:	83 70       	andi	r24, 0x03	; 3
     366:	90 70       	andi	r25, 0x00	; 0
     368:	89 2b       	or	r24, r25
     36a:	41 f4       	brne	.+16     	; 0x37c <add_day+0x4a>
     36c:	82 2f       	mov	r24, r18
     36e:	64 e6       	ldi	r22, 0x64	; 100
     370:	0e 94 ac 10 	call	0x2158	; 0x2158 <__udivmodqi4>
     374:	99 23       	and	r25, r25
     376:	11 f0       	breq	.+4      	; 0x37c <add_day+0x4a>
     378:	8d e1       	ldi	r24, 0x1D	; 29
     37a:	01 c0       	rjmp	.+2      	; 0x37e <add_day+0x4c>
     37c:	8c e1       	ldi	r24, 0x1C	; 28
     37e:	83 17       	cp	r24, r19
     380:	58 f4       	brcc	.+22     	; 0x398 <add_day+0x66>
     382:	91 e0       	ldi	r25, 0x01	; 1
     384:	92 83       	std	Z+2, r25	; 0x02
     386:	81 81       	ldd	r24, Z+1	; 0x01
     388:	8f 5f       	subi	r24, 0xFF	; 255
     38a:	81 83       	std	Z+1, r24	; 0x01
     38c:	8d 30       	cpi	r24, 0x0D	; 13
     38e:	20 f0       	brcs	.+8      	; 0x398 <add_day+0x66>
     390:	91 83       	std	Z+1, r25	; 0x01
     392:	80 81       	ld	r24, Z
     394:	8f 5f       	subi	r24, 0xFF	; 255
     396:	80 83       	st	Z, r24
     398:	08 95       	ret

0000039a <sub_day>:
     39a:	fc 01       	movw	r30, r24
     39c:	32 81       	ldd	r19, Z+2	; 0x02
     39e:	31 50       	subi	r19, 0x01	; 1
     3a0:	32 83       	std	Z+2, r19	; 0x02
     3a2:	81 81       	ldd	r24, Z+1	; 0x01
     3a4:	90 e0       	ldi	r25, 0x00	; 0
     3a6:	01 97       	sbiw	r24, 0x01	; 1
     3a8:	86 30       	cpi	r24, 0x06	; 6
     3aa:	91 05       	cpc	r25, r1
     3ac:	71 f0       	breq	.+28     	; 0x3ca <sub_day+0x30>
     3ae:	87 30       	cpi	r24, 0x07	; 7
     3b0:	91 05       	cpc	r25, r1
     3b2:	34 f4       	brge	.+12     	; 0x3c0 <sub_day+0x26>
     3b4:	82 30       	cpi	r24, 0x02	; 2
     3b6:	91 05       	cpc	r25, r1
     3b8:	61 f0       	breq	.+24     	; 0x3d2 <sub_day+0x38>
     3ba:	04 97       	sbiw	r24, 0x04	; 4
     3bc:	41 f4       	brne	.+16     	; 0x3ce <sub_day+0x34>
     3be:	05 c0       	rjmp	.+10     	; 0x3ca <sub_day+0x30>
     3c0:	89 30       	cpi	r24, 0x09	; 9
     3c2:	91 05       	cpc	r25, r1
     3c4:	11 f0       	breq	.+4      	; 0x3ca <sub_day+0x30>
     3c6:	0b 97       	sbiw	r24, 0x0b	; 11
     3c8:	11 f4       	brne	.+4      	; 0x3ce <sub_day+0x34>
     3ca:	8e e1       	ldi	r24, 0x1E	; 30
     3cc:	12 c0       	rjmp	.+36     	; 0x3f2 <sub_day+0x58>
     3ce:	8f e1       	ldi	r24, 0x1F	; 31
     3d0:	10 c0       	rjmp	.+32     	; 0x3f2 <sub_day+0x58>
     3d2:	20 81       	ld	r18, Z
     3d4:	82 2f       	mov	r24, r18
     3d6:	90 e0       	ldi	r25, 0x00	; 0
     3d8:	83 70       	andi	r24, 0x03	; 3
     3da:	90 70       	andi	r25, 0x00	; 0
     3dc:	89 2b       	or	r24, r25
     3de:	41 f4       	brne	.+16     	; 0x3f0 <sub_day+0x56>
     3e0:	82 2f       	mov	r24, r18
     3e2:	64 e6       	ldi	r22, 0x64	; 100
     3e4:	0e 94 ac 10 	call	0x2158	; 0x2158 <__udivmodqi4>
     3e8:	99 23       	and	r25, r25
     3ea:	11 f0       	breq	.+4      	; 0x3f0 <sub_day+0x56>
     3ec:	8d e1       	ldi	r24, 0x1D	; 29
     3ee:	01 c0       	rjmp	.+2      	; 0x3f2 <sub_day+0x58>
     3f0:	8c e1       	ldi	r24, 0x1C	; 28
     3f2:	33 23       	and	r19, r19
     3f4:	59 f4       	brne	.+22     	; 0x40c <sub_day+0x72>
     3f6:	82 83       	std	Z+2, r24	; 0x02
     3f8:	81 81       	ldd	r24, Z+1	; 0x01
     3fa:	81 50       	subi	r24, 0x01	; 1
     3fc:	81 83       	std	Z+1, r24	; 0x01
     3fe:	88 23       	and	r24, r24
     400:	29 f4       	brne	.+10     	; 0x40c <sub_day+0x72>
     402:	8c e0       	ldi	r24, 0x0C	; 12
     404:	81 83       	std	Z+1, r24	; 0x01
     406:	80 81       	ld	r24, Z
     408:	81 50       	subi	r24, 0x01	; 1
     40a:	80 83       	st	Z, r24
     40c:	08 95       	ret

0000040e <add_hour>:
     40e:	fc 01       	movw	r30, r24
     410:	83 81       	ldd	r24, Z+3	; 0x03
     412:	8f 5f       	subi	r24, 0xFF	; 255
     414:	83 83       	std	Z+3, r24	; 0x03
     416:	88 31       	cpi	r24, 0x18	; 24
     418:	20 f0       	brcs	.+8      	; 0x422 <add_hour+0x14>
     41a:	13 82       	std	Z+3, r1	; 0x03
     41c:	cf 01       	movw	r24, r30
     41e:	0e 94 99 01 	call	0x332	; 0x332 <add_day>
     422:	08 95       	ret

00000424 <sub_hour>:
     424:	fc 01       	movw	r30, r24
     426:	83 81       	ldd	r24, Z+3	; 0x03
     428:	88 23       	and	r24, r24
     42a:	31 f4       	brne	.+12     	; 0x438 <sub_hour+0x14>
     42c:	87 e1       	ldi	r24, 0x17	; 23
     42e:	83 83       	std	Z+3, r24	; 0x03
     430:	cf 01       	movw	r24, r30
     432:	0e 94 cd 01 	call	0x39a	; 0x39a <sub_day>
     436:	08 95       	ret
     438:	81 50       	subi	r24, 0x01	; 1
     43a:	83 83       	std	Z+3, r24	; 0x03
     43c:	08 95       	ret

0000043e <add_minute>:
     43e:	fc 01       	movw	r30, r24
     440:	84 81       	ldd	r24, Z+4	; 0x04
     442:	8f 5f       	subi	r24, 0xFF	; 255
     444:	84 83       	std	Z+4, r24	; 0x04
     446:	8c 33       	cpi	r24, 0x3C	; 60
     448:	20 f0       	brcs	.+8      	; 0x452 <add_minute+0x14>
     44a:	14 82       	std	Z+4, r1	; 0x04
     44c:	cf 01       	movw	r24, r30
     44e:	0e 94 07 02 	call	0x40e	; 0x40e <add_hour>
     452:	08 95       	ret

00000454 <sub_minute>:
     454:	fc 01       	movw	r30, r24
     456:	84 81       	ldd	r24, Z+4	; 0x04
     458:	88 23       	and	r24, r24
     45a:	31 f4       	brne	.+12     	; 0x468 <sub_minute+0x14>
     45c:	8b e3       	ldi	r24, 0x3B	; 59
     45e:	84 83       	std	Z+4, r24	; 0x04
     460:	cf 01       	movw	r24, r30
     462:	0e 94 12 02 	call	0x424	; 0x424 <sub_hour>
     466:	08 95       	ret
     468:	81 50       	subi	r24, 0x01	; 1
     46a:	84 83       	std	Z+4, r24	; 0x04
     46c:	08 95       	ret

0000046e <i2c_rtc_sram_read>:
     46e:	ef 92       	push	r14
     470:	ff 92       	push	r15
     472:	0f 93       	push	r16
     474:	1f 93       	push	r17
     476:	cf 93       	push	r28
     478:	df 93       	push	r29
     47a:	18 2f       	mov	r17, r24
     47c:	f6 2e       	mov	r15, r22
     47e:	e7 2e       	mov	r14, r23
     480:	04 2f       	mov	r16, r20
     482:	80 91 92 03 	lds	r24, 0x0392
     486:	88 23       	and	r24, r24
     488:	91 f1       	breq	.+100    	; 0x4ee <i2c_rtc_sram_read+0x80>
     48a:	44 23       	and	r20, r20
     48c:	81 f1       	breq	.+96     	; 0x4ee <i2c_rtc_sram_read+0x80>
     48e:	81 2f       	mov	r24, r17
     490:	90 e0       	ldi	r25, 0x00	; 0
     492:	84 0f       	add	r24, r20
     494:	91 1d       	adc	r25, r1
     496:	81 34       	cpi	r24, 0x41	; 65
     498:	91 05       	cpc	r25, r1
     49a:	4c f5       	brge	.+82     	; 0x4ee <i2c_rtc_sram_read+0x80>
     49c:	80 ed       	ldi	r24, 0xD0	; 208
     49e:	0e 94 d6 00 	call	0x1ac	; 0x1ac <i2c_master_start_wait>
     4a2:	81 2f       	mov	r24, r17
     4a4:	63 e9       	ldi	r22, 0x93	; 147
     4a6:	73 e0       	ldi	r23, 0x03	; 3
     4a8:	0e 94 b8 00 	call	0x170	; 0x170 <i2c_master_write>
     4ac:	88 23       	and	r24, r24
     4ae:	d9 f4       	brne	.+54     	; 0x4e6 <i2c_rtc_sram_read+0x78>
     4b0:	81 ed       	ldi	r24, 0xD1	; 209
     4b2:	63 e9       	ldi	r22, 0x93	; 147
     4b4:	73 e0       	ldi	r23, 0x03	; 3
     4b6:	0e 94 af 00 	call	0x15e	; 0x15e <i2c_master_rep_start>
     4ba:	88 23       	and	r24, r24
     4bc:	a1 f4       	brne	.+40     	; 0x4e6 <i2c_rtc_sram_read+0x78>
     4be:	cf 2d       	mov	r28, r15
     4c0:	de 2d       	mov	r29, r14
     4c2:	10 2f       	mov	r17, r16
     4c4:	7e 01       	movw	r14, r28
     4c6:	05 c0       	rjmp	.+10     	; 0x4d2 <i2c_rtc_sram_read+0x64>
     4c8:	0e 94 c8 00 	call	0x190	; 0x190 <i2c_master_read_ack>
     4cc:	f7 01       	movw	r30, r14
     4ce:	81 93       	st	Z+, r24
     4d0:	7f 01       	movw	r14, r30
     4d2:	11 50       	subi	r17, 0x01	; 1
     4d4:	c9 f7       	brne	.-14     	; 0x4c8 <i2c_rtc_sram_read+0x5a>
     4d6:	0e 94 cf 00 	call	0x19e	; 0x19e <i2c_master_read_nak>
     4da:	01 50       	subi	r16, 0x01	; 1
     4dc:	c0 0f       	add	r28, r16
     4de:	d1 1d       	adc	r29, r1
     4e0:	88 83       	st	Y, r24
     4e2:	11 e0       	ldi	r17, 0x01	; 1
     4e4:	01 c0       	rjmp	.+2      	; 0x4e8 <i2c_rtc_sram_read+0x7a>
     4e6:	10 e0       	ldi	r17, 0x00	; 0
     4e8:	0e 94 b2 00 	call	0x164	; 0x164 <i2c_master_stop>
     4ec:	01 c0       	rjmp	.+2      	; 0x4f0 <i2c_rtc_sram_read+0x82>
     4ee:	10 e0       	ldi	r17, 0x00	; 0
     4f0:	81 2f       	mov	r24, r17
     4f2:	df 91       	pop	r29
     4f4:	cf 91       	pop	r28
     4f6:	1f 91       	pop	r17
     4f8:	0f 91       	pop	r16
     4fa:	ff 90       	pop	r15
     4fc:	ef 90       	pop	r14
     4fe:	08 95       	ret

00000500 <i2c_rtc_read>:
     500:	7f 92       	push	r7
     502:	8f 92       	push	r8
     504:	9f 92       	push	r9
     506:	af 92       	push	r10
     508:	bf 92       	push	r11
     50a:	cf 92       	push	r12
     50c:	df 92       	push	r13
     50e:	ef 92       	push	r14
     510:	ff 92       	push	r15
     512:	0f 93       	push	r16
     514:	1f 93       	push	r17
     516:	df 93       	push	r29
     518:	cf 93       	push	r28
     51a:	cd b7       	in	r28, 0x3d	; 61
     51c:	de b7       	in	r29, 0x3e	; 62
     51e:	27 97       	sbiw	r28, 0x07	; 7
     520:	0f b6       	in	r0, 0x3f	; 63
     522:	f8 94       	cli
     524:	de bf       	out	0x3e, r29	; 62
     526:	0f be       	out	0x3f, r0	; 63
     528:	cd bf       	out	0x3d, r28	; 61
     52a:	6c 01       	movw	r12, r24
     52c:	e6 2e       	mov	r14, r22
     52e:	80 91 92 03 	lds	r24, 0x0392
     532:	88 23       	and	r24, r24
     534:	11 f4       	brne	.+4      	; 0x53a <i2c_rtc_read+0x3a>
     536:	77 24       	eor	r7, r7
     538:	b2 c1       	rjmp	.+868    	; 0x89e <__stack+0x3f>
     53a:	80 e0       	ldi	r24, 0x00	; 0
     53c:	be 01       	movw	r22, r28
     53e:	6f 5f       	subi	r22, 0xFF	; 255
     540:	7f 4f       	sbci	r23, 0xFF	; 255
     542:	47 e0       	ldi	r20, 0x07	; 7
     544:	0e 94 37 02 	call	0x46e	; 0x46e <i2c_rtc_sram_read>
     548:	88 23       	and	r24, r24
     54a:	11 f4       	brne	.+4      	; 0x550 <i2c_rtc_read+0x50>
     54c:	77 24       	eor	r7, r7
     54e:	74 c0       	rjmp	.+232    	; 0x638 <i2c_rtc_read+0x138>
     550:	4f 81       	ldd	r20, Y+7	; 0x07
     552:	84 2f       	mov	r24, r20
     554:	82 95       	swap	r24
     556:	8f 70       	andi	r24, 0x0F	; 15
     558:	3a e0       	ldi	r19, 0x0A	; 10
     55a:	83 9f       	mul	r24, r19
     55c:	c0 01       	movw	r24, r0
     55e:	11 24       	eor	r1, r1
     560:	4f 70       	andi	r20, 0x0F	; 15
     562:	48 0f       	add	r20, r24
     564:	d6 01       	movw	r26, r12
     566:	4c 93       	st	X, r20
     568:	2e 81       	ldd	r18, Y+6	; 0x06
     56a:	82 2f       	mov	r24, r18
     56c:	82 95       	swap	r24
     56e:	8f 70       	andi	r24, 0x0F	; 15
     570:	83 9f       	mul	r24, r19
     572:	c0 01       	movw	r24, r0
     574:	11 24       	eor	r1, r1
     576:	12 2f       	mov	r17, r18
     578:	1f 70       	andi	r17, 0x0F	; 15
     57a:	18 0f       	add	r17, r24
     57c:	11 96       	adiw	r26, 0x01	; 1
     57e:	1c 93       	st	X, r17
     580:	11 97       	sbiw	r26, 0x01	; 1
     582:	2d 81       	ldd	r18, Y+5	; 0x05
     584:	82 2f       	mov	r24, r18
     586:	82 95       	swap	r24
     588:	8f 70       	andi	r24, 0x0F	; 15
     58a:	83 9f       	mul	r24, r19
     58c:	c0 01       	movw	r24, r0
     58e:	11 24       	eor	r1, r1
     590:	02 2f       	mov	r16, r18
     592:	0f 70       	andi	r16, 0x0F	; 15
     594:	08 0f       	add	r16, r24
     596:	12 96       	adiw	r26, 0x02	; 2
     598:	0c 93       	st	X, r16
     59a:	12 97       	sbiw	r26, 0x02	; 2
     59c:	2b 81       	ldd	r18, Y+3	; 0x03
     59e:	82 2f       	mov	r24, r18
     5a0:	82 95       	swap	r24
     5a2:	8f 70       	andi	r24, 0x0F	; 15
     5a4:	83 9f       	mul	r24, r19
     5a6:	c0 01       	movw	r24, r0
     5a8:	11 24       	eor	r1, r1
     5aa:	2f 70       	andi	r18, 0x0F	; 15
     5ac:	28 0f       	add	r18, r24
     5ae:	13 96       	adiw	r26, 0x03	; 3
     5b0:	2c 93       	st	X, r18
     5b2:	13 97       	sbiw	r26, 0x03	; 3
     5b4:	2a 81       	ldd	r18, Y+2	; 0x02
     5b6:	82 2f       	mov	r24, r18
     5b8:	82 95       	swap	r24
     5ba:	8f 70       	andi	r24, 0x0F	; 15
     5bc:	83 9f       	mul	r24, r19
     5be:	c0 01       	movw	r24, r0
     5c0:	11 24       	eor	r1, r1
     5c2:	2f 70       	andi	r18, 0x0F	; 15
     5c4:	28 0f       	add	r18, r24
     5c6:	14 96       	adiw	r26, 0x04	; 4
     5c8:	2c 93       	st	X, r18
     5ca:	14 97       	sbiw	r26, 0x04	; 4
     5cc:	29 81       	ldd	r18, Y+1	; 0x01
     5ce:	82 2f       	mov	r24, r18
     5d0:	82 95       	swap	r24
     5d2:	8f 70       	andi	r24, 0x0F	; 15
     5d4:	83 9f       	mul	r24, r19
     5d6:	c0 01       	movw	r24, r0
     5d8:	11 24       	eor	r1, r1
     5da:	2f 70       	andi	r18, 0x0F	; 15
     5dc:	28 0f       	add	r18, r24
     5de:	15 96       	adiw	r26, 0x05	; 5
     5e0:	2c 93       	st	X, r18
     5e2:	e1 2f       	mov	r30, r17
     5e4:	f0 e0       	ldi	r31, 0x00	; 0
     5e6:	e6 56       	subi	r30, 0x66	; 102
     5e8:	ff 4f       	sbci	r31, 0xFF	; 255
     5ea:	e0 81       	ld	r30, Z
     5ec:	24 2f       	mov	r18, r20
     5ee:	30 e0       	ldi	r19, 0x00	; 0
     5f0:	46 95       	lsr	r20
     5f2:	46 95       	lsr	r20
     5f4:	c9 01       	movw	r24, r18
     5f6:	84 0f       	add	r24, r20
     5f8:	91 1d       	adc	r25, r1
     5fa:	67 e0       	ldi	r22, 0x07	; 7
     5fc:	70 e0       	ldi	r23, 0x00	; 0
     5fe:	0e 94 cc 10 	call	0x2198	; 0x2198 <__divmodhi4>
     602:	48 2f       	mov	r20, r24
     604:	23 70       	andi	r18, 0x03	; 3
     606:	30 70       	andi	r19, 0x00	; 0
     608:	23 2b       	or	r18, r19
     60a:	19 f4       	brne	.+6      	; 0x612 <i2c_rtc_read+0x112>
     60c:	13 30       	cpi	r17, 0x03	; 3
     60e:	08 f4       	brcc	.+2      	; 0x612 <i2c_rtc_read+0x112>
     610:	4a 5f       	subi	r20, 0xFA	; 250
     612:	80 2f       	mov	r24, r16
     614:	67 e0       	ldi	r22, 0x07	; 7
     616:	0e 94 ac 10 	call	0x2158	; 0x2158 <__udivmodqi4>
     61a:	89 2f       	mov	r24, r25
     61c:	90 e0       	ldi	r25, 0x00	; 0
     61e:	06 96       	adiw	r24, 0x06	; 6
     620:	8e 0f       	add	r24, r30
     622:	91 1d       	adc	r25, r1
     624:	84 0f       	add	r24, r20
     626:	91 1d       	adc	r25, r1
     628:	67 e0       	ldi	r22, 0x07	; 7
     62a:	70 e0       	ldi	r23, 0x00	; 0
     62c:	0e 94 cc 10 	call	0x2198	; 0x2198 <__divmodhi4>
     630:	f6 01       	movw	r30, r12
     632:	86 83       	std	Z+6, r24	; 0x06
     634:	77 24       	eor	r7, r7
     636:	73 94       	inc	r7
     638:	ee 20       	and	r14, r14
     63a:	09 f4       	brne	.+2      	; 0x63e <i2c_rtc_read+0x13e>
     63c:	30 c1       	rjmp	.+608    	; 0x89e <__stack+0x3f>
     63e:	d6 01       	movw	r26, r12
     640:	11 96       	adiw	r26, 0x01	; 1
     642:	ec 91       	ld	r30, X
     644:	8e 2f       	mov	r24, r30
     646:	90 e0       	ldi	r25, 0x00	; 0
     648:	fc 01       	movw	r30, r24
     64a:	ee 0f       	add	r30, r30
     64c:	ff 1f       	adc	r31, r31
     64e:	df 01       	movw	r26, r30
     650:	a9 55       	subi	r26, 0x59	; 89
     652:	bf 4f       	sbci	r27, 0xFF	; 255
     654:	0d 91       	ld	r16, X+
     656:	1c 91       	ld	r17, X
     658:	ef 53       	subi	r30, 0x3F	; 63
     65a:	ff 4f       	sbci	r31, 0xFF	; 255
     65c:	e0 80       	ld	r14, Z
     65e:	f1 80       	ldd	r15, Z+1	; 0x01
     660:	5c 01       	movw	r10, r24
     662:	08 94       	sec
     664:	a1 1c       	adc	r10, r1
     666:	b1 1c       	adc	r11, r1
     668:	f6 01       	movw	r30, r12
     66a:	22 81       	ldd	r18, Z+2	; 0x02
     66c:	30 e0       	ldi	r19, 0x00	; 0
     66e:	aa 0c       	add	r10, r10
     670:	bb 1c       	adc	r11, r11
     672:	f5 01       	movw	r30, r10
     674:	e9 55       	subi	r30, 0x59	; 89
     676:	ff 4f       	sbci	r31, 0xFF	; 255
     678:	80 81       	ld	r24, Z
     67a:	91 81       	ldd	r25, Z+1	; 0x01
     67c:	80 1b       	sub	r24, r16
     67e:	91 0b       	sbc	r25, r17
     680:	ac 01       	movw	r20, r24
     682:	42 9f       	mul	r20, r18
     684:	c0 01       	movw	r24, r0
     686:	43 9f       	mul	r20, r19
     688:	90 0d       	add	r25, r0
     68a:	52 9f       	mul	r21, r18
     68c:	90 0d       	add	r25, r0
     68e:	11 24       	eor	r1, r1
     690:	6f e1       	ldi	r22, 0x1F	; 31
     692:	70 e0       	ldi	r23, 0x00	; 0
     694:	0e 94 cc 10 	call	0x2198	; 0x2198 <__divmodhi4>
     698:	4b 01       	movw	r8, r22
     69a:	80 0e       	add	r8, r16
     69c:	91 1e       	adc	r9, r17
     69e:	81 ec       	ldi	r24, 0xC1	; 193
     6a0:	90 e0       	ldi	r25, 0x00	; 0
     6a2:	a8 0e       	add	r10, r24
     6a4:	b9 1e       	adc	r11, r25
     6a6:	d5 01       	movw	r26, r10
     6a8:	8d 91       	ld	r24, X+
     6aa:	9c 91       	ld	r25, X
     6ac:	8e 19       	sub	r24, r14
     6ae:	9f 09       	sbc	r25, r15
     6b0:	fc 01       	movw	r30, r24
     6b2:	e2 9f       	mul	r30, r18
     6b4:	c0 01       	movw	r24, r0
     6b6:	e3 9f       	mul	r30, r19
     6b8:	90 0d       	add	r25, r0
     6ba:	f2 9f       	mul	r31, r18
     6bc:	90 0d       	add	r25, r0
     6be:	11 24       	eor	r1, r1
     6c0:	6f e1       	ldi	r22, 0x1F	; 31
     6c2:	70 e0       	ldi	r23, 0x00	; 0
     6c4:	0e 94 cc 10 	call	0x2198	; 0x2198 <__divmodhi4>
     6c8:	fb 01       	movw	r30, r22
     6ca:	ee 0d       	add	r30, r14
     6cc:	ff 1d       	adc	r31, r15
     6ce:	c4 01       	movw	r24, r8
     6d0:	64 e6       	ldi	r22, 0x64	; 100
     6d2:	70 e0       	ldi	r23, 0x00	; 0
     6d4:	0e 94 cc 10 	call	0x2198	; 0x2198 <__divmodhi4>
     6d8:	d6 01       	movw	r26, r12
     6da:	19 96       	adiw	r26, 0x09	; 9
     6dc:	6c 93       	st	X, r22
     6de:	cf 01       	movw	r24, r30
     6e0:	64 e6       	ldi	r22, 0x64	; 100
     6e2:	70 e0       	ldi	r23, 0x00	; 0
     6e4:	0e 94 cc 10 	call	0x2198	; 0x2198 <__divmodhi4>
     6e8:	d6 01       	movw	r26, r12
     6ea:	1b 96       	adiw	r26, 0x0b	; 11
     6ec:	6c 93       	st	X, r22
     6ee:	c4 01       	movw	r24, r8
     6f0:	64 e6       	ldi	r22, 0x64	; 100
     6f2:	70 e0       	ldi	r23, 0x00	; 0
     6f4:	0e 94 cc 10 	call	0x2198	; 0x2198 <__divmodhi4>
     6f8:	2c e3       	ldi	r18, 0x3C	; 60
     6fa:	30 e0       	ldi	r19, 0x00	; 0
     6fc:	ac 01       	movw	r20, r24
     6fe:	42 9f       	mul	r20, r18
     700:	c0 01       	movw	r24, r0
     702:	43 9f       	mul	r20, r19
     704:	90 0d       	add	r25, r0
     706:	52 9f       	mul	r21, r18
     708:	90 0d       	add	r25, r0
     70a:	11 24       	eor	r1, r1
     70c:	64 e6       	ldi	r22, 0x64	; 100
     70e:	70 e0       	ldi	r23, 0x00	; 0
     710:	0e 94 cc 10 	call	0x2198	; 0x2198 <__divmodhi4>
     714:	d6 01       	movw	r26, r12
     716:	1a 96       	adiw	r26, 0x0a	; 10
     718:	6c 93       	st	X, r22
     71a:	cf 01       	movw	r24, r30
     71c:	64 e6       	ldi	r22, 0x64	; 100
     71e:	70 e0       	ldi	r23, 0x00	; 0
     720:	0e 94 cc 10 	call	0x2198	; 0x2198 <__divmodhi4>
     724:	ac 01       	movw	r20, r24
     726:	42 9f       	mul	r20, r18
     728:	c0 01       	movw	r24, r0
     72a:	43 9f       	mul	r20, r19
     72c:	90 0d       	add	r25, r0
     72e:	52 9f       	mul	r21, r18
     730:	90 0d       	add	r25, r0
     732:	11 24       	eor	r1, r1
     734:	64 e6       	ldi	r22, 0x64	; 100
     736:	70 e0       	ldi	r23, 0x00	; 0
     738:	0e 94 cc 10 	call	0x2198	; 0x2198 <__divmodhi4>
     73c:	d6 01       	movw	r26, r12
     73e:	1c 96       	adiw	r26, 0x0c	; 12
     740:	6c 93       	st	X, r22
     742:	1c 97       	sbiw	r26, 0x0c	; 12
     744:	14 96       	adiw	r26, 0x04	; 4
     746:	8c 91       	ld	r24, X
     748:	24 e6       	ldi	r18, 0x64	; 100
     74a:	82 9f       	mul	r24, r18
     74c:	c0 01       	movw	r24, r0
     74e:	11 24       	eor	r1, r1
     750:	6c e3       	ldi	r22, 0x3C	; 60
     752:	70 e0       	ldi	r23, 0x00	; 0
     754:	0e 94 cc 10 	call	0x2198	; 0x2198 <__divmodhi4>
     758:	d6 01       	movw	r26, r12
     75a:	13 96       	adiw	r26, 0x03	; 3
     75c:	8c 91       	ld	r24, X
     75e:	13 97       	sbiw	r26, 0x03	; 3
     760:	82 9f       	mul	r24, r18
     762:	c0 01       	movw	r24, r0
     764:	11 24       	eor	r1, r1
     766:	68 0f       	add	r22, r24
     768:	79 1f       	adc	r23, r25
     76a:	68 15       	cp	r22, r8
     76c:	79 05       	cpc	r23, r9
     76e:	2c f4       	brge	.+10     	; 0x77a <i2c_rtc_read+0x27a>
     770:	18 96       	adiw	r26, 0x08	; 8
     772:	1c 92       	st	X, r1
     774:	00 e0       	ldi	r16, 0x00	; 0
     776:	10 e0       	ldi	r17, 0x00	; 0
     778:	3f c0       	rjmp	.+126    	; 0x7f8 <i2c_rtc_read+0x2f8>
     77a:	c4 01       	movw	r24, r8
     77c:	8c 59       	subi	r24, 0x9C	; 156
     77e:	9f 4f       	sbci	r25, 0xFF	; 255
     780:	68 17       	cp	r22, r24
     782:	79 07       	cpc	r23, r25
     784:	1c f4       	brge	.+6      	; 0x78c <i2c_rtc_read+0x28c>
     786:	68 19       	sub	r22, r8
     788:	79 09       	sbc	r23, r9
     78a:	0f c0       	rjmp	.+30     	; 0x7aa <i2c_rtc_read+0x2aa>
     78c:	6e 17       	cp	r22, r30
     78e:	7f 07       	cpc	r23, r31
     790:	24 f4       	brge	.+8      	; 0x79a <i2c_rtc_read+0x29a>
     792:	d6 01       	movw	r26, r12
     794:	18 96       	adiw	r26, 0x08	; 8
     796:	2c 93       	st	X, r18
     798:	ed cf       	rjmp	.-38     	; 0x774 <i2c_rtc_read+0x274>
     79a:	cf 01       	movw	r24, r30
     79c:	8c 59       	subi	r24, 0x9C	; 156
     79e:	9f 4f       	sbci	r25, 0xFF	; 255
     7a0:	68 17       	cp	r22, r24
     7a2:	79 07       	cpc	r23, r25
     7a4:	2c f4       	brge	.+10     	; 0x7b0 <i2c_rtc_read+0x2b0>
     7a6:	6e 1b       	sub	r22, r30
     7a8:	7f 0b       	sbc	r23, r31
     7aa:	f6 01       	movw	r30, r12
     7ac:	60 87       	std	Z+8, r22	; 0x08
     7ae:	e2 cf       	rjmp	.-60     	; 0x774 <i2c_rtc_read+0x274>
     7b0:	d6 01       	movw	r26, r12
     7b2:	de cf       	rjmp	.-68     	; 0x770 <i2c_rtc_read+0x270>
     7b4:	12 16       	cp	r1, r18
     7b6:	6c f4       	brge	.+26     	; 0x7d2 <i2c_rtc_read+0x2d2>
     7b8:	c6 01       	movw	r24, r12
     7ba:	0e 94 07 02 	call	0x40e	; 0x40e <add_hour>
     7be:	f6 01       	movw	r30, r12
     7c0:	81 85       	ldd	r24, Z+9	; 0x09
     7c2:	8f 5f       	subi	r24, 0xFF	; 255
     7c4:	81 87       	std	Z+9, r24	; 0x09
     7c6:	83 85       	ldd	r24, Z+11	; 0x0b
     7c8:	8f 5f       	subi	r24, 0xFF	; 255
     7ca:	83 87       	std	Z+11, r24	; 0x0b
     7cc:	0f 5f       	subi	r16, 0xFF	; 255
     7ce:	1f 4f       	sbci	r17, 0xFF	; 255
     7d0:	13 c0       	rjmp	.+38     	; 0x7f8 <i2c_rtc_read+0x2f8>
     7d2:	c6 01       	movw	r24, r12
     7d4:	0e 94 12 02 	call	0x424	; 0x424 <sub_hour>
     7d8:	d6 01       	movw	r26, r12
     7da:	19 96       	adiw	r26, 0x09	; 9
     7dc:	8c 91       	ld	r24, X
     7de:	19 97       	sbiw	r26, 0x09	; 9
     7e0:	81 50       	subi	r24, 0x01	; 1
     7e2:	19 96       	adiw	r26, 0x09	; 9
     7e4:	8c 93       	st	X, r24
     7e6:	19 97       	sbiw	r26, 0x09	; 9
     7e8:	1b 96       	adiw	r26, 0x0b	; 11
     7ea:	8c 91       	ld	r24, X
     7ec:	1b 97       	sbiw	r26, 0x0b	; 11
     7ee:	81 50       	subi	r24, 0x01	; 1
     7f0:	1b 96       	adiw	r26, 0x0b	; 11
     7f2:	8c 93       	st	X, r24
     7f4:	01 50       	subi	r16, 0x01	; 1
     7f6:	10 40       	sbci	r17, 0x00	; 0
     7f8:	20 91 91 03 	lds	r18, 0x0391
     7fc:	82 2f       	mov	r24, r18
     7fe:	99 27       	eor	r25, r25
     800:	87 fd       	sbrc	r24, 7
     802:	90 95       	com	r25
     804:	08 17       	cp	r16, r24
     806:	19 07       	cpc	r17, r25
     808:	a9 f6       	brne	.-86     	; 0x7b4 <i2c_rtc_read+0x2b4>
     80a:	f6 01       	movw	r30, r12
     80c:	21 81       	ldd	r18, Z+1	; 0x01
     80e:	82 2f       	mov	r24, r18
     810:	83 50       	subi	r24, 0x03	; 3
     812:	88 30       	cpi	r24, 0x08	; 8
     814:	c8 f4       	brcc	.+50     	; 0x848 <i2c_rtc_read+0x348>
     816:	82 2f       	mov	r24, r18
     818:	84 50       	subi	r24, 0x04	; 4
     81a:	86 30       	cpi	r24, 0x06	; 6
     81c:	b8 f0       	brcs	.+46     	; 0x84c <i2c_rtc_read+0x34c>
     81e:	d6 01       	movw	r26, r12
     820:	16 96       	adiw	r26, 0x06	; 6
     822:	3c 91       	ld	r19, X
     824:	16 97       	sbiw	r26, 0x06	; 6
     826:	12 96       	adiw	r26, 0x02	; 2
     828:	8c 91       	ld	r24, X
     82a:	12 97       	sbiw	r26, 0x02	; 2
     82c:	90 e0       	ldi	r25, 0x00	; 0
     82e:	83 1b       	sub	r24, r19
     830:	91 09       	sbc	r25, r1
     832:	49 97       	sbiw	r24, 0x19	; 25
     834:	04 f1       	brlt	.+64     	; 0x876 <__stack+0x17>
     836:	33 23       	and	r19, r19
     838:	21 f4       	brne	.+8      	; 0x842 <i2c_rtc_read+0x342>
     83a:	13 96       	adiw	r26, 0x03	; 3
     83c:	8c 91       	ld	r24, X
     83e:	83 30       	cpi	r24, 0x03	; 3
     840:	d0 f0       	brcs	.+52     	; 0x876 <__stack+0x17>
     842:	2a 30       	cpi	r18, 0x0A	; 10
     844:	19 f4       	brne	.+6      	; 0x84c <i2c_rtc_read+0x34c>
     846:	f6 01       	movw	r30, r12
     848:	17 82       	std	Z+7, r1	; 0x07
     84a:	29 c0       	rjmp	.+82     	; 0x89e <__stack+0x3f>
     84c:	d6 01       	movw	r26, r12
     84e:	19 96       	adiw	r26, 0x09	; 9
     850:	8c 91       	ld	r24, X
     852:	19 97       	sbiw	r26, 0x09	; 9
     854:	8f 5f       	subi	r24, 0xFF	; 255
     856:	19 96       	adiw	r26, 0x09	; 9
     858:	8c 93       	st	X, r24
     85a:	19 97       	sbiw	r26, 0x09	; 9
     85c:	1b 96       	adiw	r26, 0x0b	; 11
     85e:	8c 91       	ld	r24, X
     860:	1b 97       	sbiw	r26, 0x0b	; 11
     862:	8f 5f       	subi	r24, 0xFF	; 255
     864:	1b 96       	adiw	r26, 0x0b	; 11
     866:	8c 93       	st	X, r24
     868:	c6 01       	movw	r24, r12
     86a:	0e 94 07 02 	call	0x40e	; 0x40e <add_hour>
     86e:	81 e0       	ldi	r24, 0x01	; 1
     870:	f6 01       	movw	r30, r12
     872:	87 83       	std	Z+7, r24	; 0x07
     874:	14 c0       	rjmp	.+40     	; 0x89e <__stack+0x3f>
     876:	23 30       	cpi	r18, 0x03	; 3
     878:	21 f4       	brne	.+8      	; 0x882 <__stack+0x23>
     87a:	d6 01       	movw	r26, r12
     87c:	17 96       	adiw	r26, 0x07	; 7
     87e:	1c 92       	st	X, r1
     880:	0e c0       	rjmp	.+28     	; 0x89e <__stack+0x3f>
     882:	f6 01       	movw	r30, r12
     884:	81 85       	ldd	r24, Z+9	; 0x09
     886:	8f 5f       	subi	r24, 0xFF	; 255
     888:	81 87       	std	Z+9, r24	; 0x09
     88a:	83 85       	ldd	r24, Z+11	; 0x0b
     88c:	8f 5f       	subi	r24, 0xFF	; 255
     88e:	83 87       	std	Z+11, r24	; 0x0b
     890:	c6 01       	movw	r24, r12
     892:	0e 94 07 02 	call	0x40e	; 0x40e <add_hour>
     896:	81 e0       	ldi	r24, 0x01	; 1
     898:	d6 01       	movw	r26, r12
     89a:	17 96       	adiw	r26, 0x07	; 7
     89c:	8c 93       	st	X, r24
     89e:	87 2d       	mov	r24, r7
     8a0:	27 96       	adiw	r28, 0x07	; 7
     8a2:	0f b6       	in	r0, 0x3f	; 63
     8a4:	f8 94       	cli
     8a6:	de bf       	out	0x3e, r29	; 62
     8a8:	0f be       	out	0x3f, r0	; 63
     8aa:	cd bf       	out	0x3d, r28	; 61
     8ac:	cf 91       	pop	r28
     8ae:	df 91       	pop	r29
     8b0:	1f 91       	pop	r17
     8b2:	0f 91       	pop	r16
     8b4:	ff 90       	pop	r15
     8b6:	ef 90       	pop	r14
     8b8:	df 90       	pop	r13
     8ba:	cf 90       	pop	r12
     8bc:	bf 90       	pop	r11
     8be:	af 90       	pop	r10
     8c0:	9f 90       	pop	r9
     8c2:	8f 90       	pop	r8
     8c4:	7f 90       	pop	r7
     8c6:	08 95       	ret

000008c8 <read_byte>:
     8c8:	80 5f       	subi	r24, 0xF0	; 240
     8ca:	41 e0       	ldi	r20, 0x01	; 1
     8cc:	0e 94 37 02 	call	0x46e	; 0x46e <i2c_rtc_sram_read>
     8d0:	08 95       	ret

000008d2 <i2c_rtc_sram_write>:
     8d2:	ef 92       	push	r14
     8d4:	ff 92       	push	r15
     8d6:	0f 93       	push	r16
     8d8:	1f 93       	push	r17
     8da:	cf 93       	push	r28
     8dc:	df 93       	push	r29
     8de:	08 2f       	mov	r16, r24
     8e0:	f6 2e       	mov	r15, r22
     8e2:	e7 2e       	mov	r14, r23
     8e4:	14 2f       	mov	r17, r20
     8e6:	80 91 92 03 	lds	r24, 0x0392
     8ea:	88 23       	and	r24, r24
     8ec:	41 f1       	breq	.+80     	; 0x93e <i2c_rtc_sram_write+0x6c>
     8ee:	44 23       	and	r20, r20
     8f0:	31 f1       	breq	.+76     	; 0x93e <i2c_rtc_sram_write+0x6c>
     8f2:	80 2f       	mov	r24, r16
     8f4:	90 e0       	ldi	r25, 0x00	; 0
     8f6:	84 0f       	add	r24, r20
     8f8:	91 1d       	adc	r25, r1
     8fa:	81 34       	cpi	r24, 0x41	; 65
     8fc:	91 05       	cpc	r25, r1
     8fe:	fc f4       	brge	.+62     	; 0x93e <i2c_rtc_sram_write+0x6c>
     900:	80 ed       	ldi	r24, 0xD0	; 208
     902:	0e 94 d6 00 	call	0x1ac	; 0x1ac <i2c_master_start_wait>
     906:	80 2f       	mov	r24, r16
     908:	63 e9       	ldi	r22, 0x93	; 147
     90a:	73 e0       	ldi	r23, 0x03	; 3
     90c:	0e 94 b8 00 	call	0x170	; 0x170 <i2c_master_write>
     910:	88 23       	and	r24, r24
     912:	89 f4       	brne	.+34     	; 0x936 <i2c_rtc_sram_write+0x64>
     914:	8f 2d       	mov	r24, r15
     916:	9e 2d       	mov	r25, r14
     918:	9c 01       	movw	r18, r24
     91a:	e9 01       	movw	r28, r18
     91c:	88 81       	ld	r24, Y
     91e:	63 e9       	ldi	r22, 0x93	; 147
     920:	73 e0       	ldi	r23, 0x03	; 3
     922:	0e 94 b8 00 	call	0x170	; 0x170 <i2c_master_write>
     926:	11 50       	subi	r17, 0x01	; 1
     928:	88 23       	and	r24, r24
     92a:	29 f4       	brne	.+10     	; 0x936 <i2c_rtc_sram_write+0x64>
     92c:	21 96       	adiw	r28, 0x01	; 1
     92e:	11 23       	and	r17, r17
     930:	a9 f7       	brne	.-22     	; 0x91c <i2c_rtc_sram_write+0x4a>
     932:	11 e0       	ldi	r17, 0x01	; 1
     934:	01 c0       	rjmp	.+2      	; 0x938 <i2c_rtc_sram_write+0x66>
     936:	10 e0       	ldi	r17, 0x00	; 0
     938:	0e 94 b2 00 	call	0x164	; 0x164 <i2c_master_stop>
     93c:	01 c0       	rjmp	.+2      	; 0x940 <i2c_rtc_sram_write+0x6e>
     93e:	10 e0       	ldi	r17, 0x00	; 0
     940:	81 2f       	mov	r24, r17
     942:	df 91       	pop	r29
     944:	cf 91       	pop	r28
     946:	1f 91       	pop	r17
     948:	0f 91       	pop	r16
     94a:	ff 90       	pop	r15
     94c:	ef 90       	pop	r14
     94e:	08 95       	ret

00000950 <i2c_rtc_init>:
     950:	ef 92       	push	r14
     952:	ff 92       	push	r15
     954:	0f 93       	push	r16
     956:	1f 93       	push	r17
     958:	df 93       	push	r29
     95a:	cf 93       	push	r28
     95c:	00 d0       	rcall	.+0      	; 0x95e <i2c_rtc_init+0xe>
     95e:	cd b7       	in	r28, 0x3d	; 61
     960:	de b7       	in	r29, 0x3e	; 62
     962:	8c 01       	movw	r16, r24
     964:	7b 01       	movw	r14, r22
     966:	8f ef       	ldi	r24, 0xFF	; 255
     968:	fb 01       	movw	r30, r22
     96a:	80 83       	st	Z, r24
     96c:	0e 94 85 00 	call	0x10a	; 0x10a <i2c_master_init>
     970:	f8 01       	movw	r30, r16
     972:	80 83       	st	Z, r24
     974:	88 23       	and	r24, r24
     976:	c9 f4       	brne	.+50     	; 0x9aa <i2c_rtc_init+0x5a>
     978:	81 e0       	ldi	r24, 0x01	; 1
     97a:	80 93 92 03 	sts	0x0392, r24
     97e:	80 e8       	ldi	r24, 0x80	; 128
     980:	80 93 94 03 	sts	0x0394, r24
     984:	80 91 94 03 	lds	r24, 0x0394
     988:	8a 83       	std	Y+2, r24	; 0x02
     98a:	87 e0       	ldi	r24, 0x07	; 7
     98c:	be 01       	movw	r22, r28
     98e:	6e 5f       	subi	r22, 0xFE	; 254
     990:	7f 4f       	sbci	r23, 0xFF	; 255
     992:	41 e0       	ldi	r20, 0x01	; 1
     994:	0e 94 69 04 	call	0x8d2	; 0x8d2 <i2c_rtc_sram_write>
     998:	88 23       	and	r24, r24
     99a:	11 f5       	brne	.+68     	; 0x9e0 <i2c_rtc_init+0x90>
     99c:	83 e0       	ldi	r24, 0x03	; 3
     99e:	f8 01       	movw	r30, r16
     9a0:	80 83       	st	Z, r24
     9a2:	80 91 93 03 	lds	r24, 0x0393
     9a6:	f7 01       	movw	r30, r14
     9a8:	80 83       	st	Z, r24
     9aa:	80 e0       	ldi	r24, 0x00	; 0
     9ac:	10 c0       	rjmp	.+32     	; 0x9ce <i2c_rtc_init+0x7e>
     9ae:	89 81       	ldd	r24, Y+1	; 0x01
     9b0:	87 ff       	sbrs	r24, 7
     9b2:	07 c0       	rjmp	.+14     	; 0x9c2 <i2c_rtc_init+0x72>
     9b4:	8f 77       	andi	r24, 0x7F	; 127
     9b6:	89 83       	std	Y+1, r24	; 0x01
     9b8:	80 e0       	ldi	r24, 0x00	; 0
     9ba:	b8 01       	movw	r22, r16
     9bc:	41 e0       	ldi	r20, 0x01	; 1
     9be:	0e 94 69 04 	call	0x8d2	; 0x8d2 <i2c_rtc_sram_write>
     9c2:	81 e0       	ldi	r24, 0x01	; 1
     9c4:	61 e9       	ldi	r22, 0x91	; 145
     9c6:	73 e0       	ldi	r23, 0x03	; 3
     9c8:	0e 94 64 04 	call	0x8c8	; 0x8c8 <read_byte>
     9cc:	81 e0       	ldi	r24, 0x01	; 1
     9ce:	0f 90       	pop	r0
     9d0:	0f 90       	pop	r0
     9d2:	cf 91       	pop	r28
     9d4:	df 91       	pop	r29
     9d6:	1f 91       	pop	r17
     9d8:	0f 91       	pop	r16
     9da:	ff 90       	pop	r15
     9dc:	ef 90       	pop	r14
     9de:	08 95       	ret
     9e0:	80 e0       	ldi	r24, 0x00	; 0
     9e2:	8e 01       	movw	r16, r28
     9e4:	0f 5f       	subi	r16, 0xFF	; 255
     9e6:	1f 4f       	sbci	r17, 0xFF	; 255
     9e8:	b8 01       	movw	r22, r16
     9ea:	41 e0       	ldi	r20, 0x01	; 1
     9ec:	0e 94 37 02 	call	0x46e	; 0x46e <i2c_rtc_sram_read>
     9f0:	88 23       	and	r24, r24
     9f2:	e9 f6       	brne	.-70     	; 0x9ae <i2c_rtc_init+0x5e>
     9f4:	e6 cf       	rjmp	.-52     	; 0x9c2 <i2c_rtc_init+0x72>

000009f6 <i2c_rtc_write>:
     9f6:	df 93       	push	r29
     9f8:	cf 93       	push	r28
     9fa:	cd b7       	in	r28, 0x3d	; 61
     9fc:	de b7       	in	r29, 0x3e	; 62
     9fe:	27 97       	sbiw	r28, 0x07	; 7
     a00:	0f b6       	in	r0, 0x3f	; 63
     a02:	f8 94       	cli
     a04:	de bf       	out	0x3e, r29	; 62
     a06:	0f be       	out	0x3f, r0	; 63
     a08:	cd bf       	out	0x3d, r28	; 61
     a0a:	fc 01       	movw	r30, r24
     a0c:	80 91 92 03 	lds	r24, 0x0392
     a10:	88 23       	and	r24, r24
     a12:	09 f4       	brne	.+2      	; 0xa16 <i2c_rtc_write+0x20>
     a14:	77 c0       	rjmp	.+238    	; 0xb04 <i2c_rtc_write+0x10e>
     a16:	65 81       	ldd	r22, Z+5	; 0x05
     a18:	4d ec       	ldi	r20, 0xCD	; 205
     a1a:	64 9f       	mul	r22, r20
     a1c:	c0 01       	movw	r24, r0
     a1e:	11 24       	eor	r1, r1
     a20:	96 95       	lsr	r25
     a22:	96 95       	lsr	r25
     a24:	96 95       	lsr	r25
     a26:	26 ef       	ldi	r18, 0xF6	; 246
     a28:	3f ef       	ldi	r19, 0xFF	; 255
     a2a:	92 9f       	mul	r25, r18
     a2c:	80 2d       	mov	r24, r0
     a2e:	11 24       	eor	r1, r1
     a30:	86 0f       	add	r24, r22
     a32:	92 95       	swap	r25
     a34:	90 7f       	andi	r25, 0xF0	; 240
     a36:	89 2b       	or	r24, r25
     a38:	89 83       	std	Y+1, r24	; 0x01
     a3a:	64 81       	ldd	r22, Z+4	; 0x04
     a3c:	64 9f       	mul	r22, r20
     a3e:	c0 01       	movw	r24, r0
     a40:	11 24       	eor	r1, r1
     a42:	96 95       	lsr	r25
     a44:	96 95       	lsr	r25
     a46:	96 95       	lsr	r25
     a48:	92 9f       	mul	r25, r18
     a4a:	80 2d       	mov	r24, r0
     a4c:	11 24       	eor	r1, r1
     a4e:	86 0f       	add	r24, r22
     a50:	92 95       	swap	r25
     a52:	90 7f       	andi	r25, 0xF0	; 240
     a54:	89 2b       	or	r24, r25
     a56:	8a 83       	std	Y+2, r24	; 0x02
     a58:	63 81       	ldd	r22, Z+3	; 0x03
     a5a:	64 9f       	mul	r22, r20
     a5c:	c0 01       	movw	r24, r0
     a5e:	11 24       	eor	r1, r1
     a60:	96 95       	lsr	r25
     a62:	96 95       	lsr	r25
     a64:	96 95       	lsr	r25
     a66:	92 9f       	mul	r25, r18
     a68:	80 2d       	mov	r24, r0
     a6a:	11 24       	eor	r1, r1
     a6c:	86 0f       	add	r24, r22
     a6e:	92 95       	swap	r25
     a70:	90 7f       	andi	r25, 0xF0	; 240
     a72:	89 2b       	or	r24, r25
     a74:	8b 83       	std	Y+3, r24	; 0x03
     a76:	66 81       	ldd	r22, Z+6	; 0x06
     a78:	64 9f       	mul	r22, r20
     a7a:	c0 01       	movw	r24, r0
     a7c:	11 24       	eor	r1, r1
     a7e:	96 95       	lsr	r25
     a80:	96 95       	lsr	r25
     a82:	96 95       	lsr	r25
     a84:	92 9f       	mul	r25, r18
     a86:	80 2d       	mov	r24, r0
     a88:	11 24       	eor	r1, r1
     a8a:	86 0f       	add	r24, r22
     a8c:	92 95       	swap	r25
     a8e:	90 7f       	andi	r25, 0xF0	; 240
     a90:	89 2b       	or	r24, r25
     a92:	8f 5f       	subi	r24, 0xFF	; 255
     a94:	8c 83       	std	Y+4, r24	; 0x04
     a96:	62 81       	ldd	r22, Z+2	; 0x02
     a98:	64 9f       	mul	r22, r20
     a9a:	c0 01       	movw	r24, r0
     a9c:	11 24       	eor	r1, r1
     a9e:	96 95       	lsr	r25
     aa0:	96 95       	lsr	r25
     aa2:	96 95       	lsr	r25
     aa4:	92 9f       	mul	r25, r18
     aa6:	80 2d       	mov	r24, r0
     aa8:	11 24       	eor	r1, r1
     aaa:	86 0f       	add	r24, r22
     aac:	92 95       	swap	r25
     aae:	90 7f       	andi	r25, 0xF0	; 240
     ab0:	89 2b       	or	r24, r25
     ab2:	8d 83       	std	Y+5, r24	; 0x05
     ab4:	61 81       	ldd	r22, Z+1	; 0x01
     ab6:	64 9f       	mul	r22, r20
     ab8:	c0 01       	movw	r24, r0
     aba:	11 24       	eor	r1, r1
     abc:	96 95       	lsr	r25
     abe:	96 95       	lsr	r25
     ac0:	96 95       	lsr	r25
     ac2:	92 9f       	mul	r25, r18
     ac4:	80 2d       	mov	r24, r0
     ac6:	11 24       	eor	r1, r1
     ac8:	86 0f       	add	r24, r22
     aca:	92 95       	swap	r25
     acc:	90 7f       	andi	r25, 0xF0	; 240
     ace:	89 2b       	or	r24, r25
     ad0:	8e 83       	std	Y+6, r24	; 0x06
     ad2:	90 81       	ld	r25, Z
     ad4:	94 9f       	mul	r25, r20
     ad6:	a0 01       	movw	r20, r0
     ad8:	11 24       	eor	r1, r1
     ada:	85 2f       	mov	r24, r21
     adc:	86 95       	lsr	r24
     ade:	86 95       	lsr	r24
     ae0:	86 95       	lsr	r24
     ae2:	82 9f       	mul	r24, r18
     ae4:	20 2d       	mov	r18, r0
     ae6:	11 24       	eor	r1, r1
     ae8:	29 0f       	add	r18, r25
     aea:	82 95       	swap	r24
     aec:	80 7f       	andi	r24, 0xF0	; 240
     aee:	28 2b       	or	r18, r24
     af0:	2f 83       	std	Y+7, r18	; 0x07
     af2:	80 e0       	ldi	r24, 0x00	; 0
     af4:	be 01       	movw	r22, r28
     af6:	6f 5f       	subi	r22, 0xFF	; 255
     af8:	7f 4f       	sbci	r23, 0xFF	; 255
     afa:	47 e0       	ldi	r20, 0x07	; 7
     afc:	0e 94 69 04 	call	0x8d2	; 0x8d2 <i2c_rtc_sram_write>
     b00:	81 11       	cpse	r24, r1
     b02:	81 e0       	ldi	r24, 0x01	; 1
     b04:	27 96       	adiw	r28, 0x07	; 7
     b06:	0f b6       	in	r0, 0x3f	; 63
     b08:	f8 94       	cli
     b0a:	de bf       	out	0x3e, r29	; 62
     b0c:	0f be       	out	0x3f, r0	; 63
     b0e:	cd bf       	out	0x3d, r28	; 61
     b10:	cf 91       	pop	r28
     b12:	df 91       	pop	r29
     b14:	08 95       	ret

00000b16 <save_byte>:
     b16:	df 93       	push	r29
     b18:	cf 93       	push	r28
     b1a:	0f 92       	push	r0
     b1c:	cd b7       	in	r28, 0x3d	; 61
     b1e:	de b7       	in	r29, 0x3e	; 62
     b20:	69 83       	std	Y+1, r22	; 0x01
     b22:	80 5f       	subi	r24, 0xF0	; 240
     b24:	be 01       	movw	r22, r28
     b26:	6f 5f       	subi	r22, 0xFF	; 255
     b28:	7f 4f       	sbci	r23, 0xFF	; 255
     b2a:	41 e0       	ldi	r20, 0x01	; 1
     b2c:	0e 94 69 04 	call	0x8d2	; 0x8d2 <i2c_rtc_sram_write>
     b30:	0f 90       	pop	r0
     b32:	cf 91       	pop	r28
     b34:	df 91       	pop	r29
     b36:	08 95       	ret

00000b38 <set_offset>:
     b38:	0f 93       	push	r16
     b3a:	1f 93       	push	r17
     b3c:	df 93       	push	r29
     b3e:	cf 93       	push	r28
     b40:	cd b7       	in	r28, 0x3d	; 61
     b42:	de b7       	in	r29, 0x3e	; 62
     b44:	c4 56       	subi	r28, 0x64	; 100
     b46:	d0 40       	sbci	r29, 0x00	; 0
     b48:	0f b6       	in	r0, 0x3f	; 63
     b4a:	f8 94       	cli
     b4c:	de bf       	out	0x3e, r29	; 62
     b4e:	0f be       	out	0x3f, r0	; 63
     b50:	cd bf       	out	0x3d, r28	; 61
     b52:	68 2f       	mov	r22, r24
     b54:	28 2f       	mov	r18, r24
     b56:	30 e0       	ldi	r19, 0x00	; 0
     b58:	80 91 91 03 	lds	r24, 0x0391
     b5c:	99 27       	eor	r25, r25
     b5e:	87 fd       	sbrc	r24, 7
     b60:	90 95       	com	r25
     b62:	28 17       	cp	r18, r24
     b64:	39 07       	cpc	r19, r25
     b66:	61 f1       	breq	.+88     	; 0xbc0 <set_offset+0x88>
     b68:	60 93 91 03 	sts	0x0391, r22
     b6c:	81 e0       	ldi	r24, 0x01	; 1
     b6e:	0e 94 8b 05 	call	0xb16	; 0xb16 <save_byte>
     b72:	00 d0       	rcall	.+0      	; 0xb74 <set_offset+0x3c>
     b74:	00 d0       	rcall	.+0      	; 0xb76 <set_offset+0x3e>
     b76:	00 d0       	rcall	.+0      	; 0xb78 <set_offset+0x40>
     b78:	ed b7       	in	r30, 0x3d	; 61
     b7a:	fe b7       	in	r31, 0x3e	; 62
     b7c:	31 96       	adiw	r30, 0x01	; 1
     b7e:	8e 01       	movw	r16, r28
     b80:	0f 5f       	subi	r16, 0xFF	; 255
     b82:	1f 4f       	sbci	r17, 0xFF	; 255
     b84:	ad b7       	in	r26, 0x3d	; 61
     b86:	be b7       	in	r27, 0x3e	; 62
     b88:	12 96       	adiw	r26, 0x02	; 2
     b8a:	1c 93       	st	X, r17
     b8c:	0e 93       	st	-X, r16
     b8e:	11 97       	sbiw	r26, 0x01	; 1
     b90:	86 e8       	ldi	r24, 0x86	; 134
     b92:	90 e0       	ldi	r25, 0x00	; 0
     b94:	93 83       	std	Z+3, r25	; 0x03
     b96:	82 83       	std	Z+2, r24	; 0x02
     b98:	80 91 91 03 	lds	r24, 0x0391
     b9c:	99 27       	eor	r25, r25
     b9e:	87 fd       	sbrc	r24, 7
     ba0:	90 95       	com	r25
     ba2:	95 83       	std	Z+5, r25	; 0x05
     ba4:	84 83       	std	Z+4, r24	; 0x04
     ba6:	0e 94 1c 11 	call	0x2238	; 0x2238 <sprintf>
     baa:	8d b7       	in	r24, 0x3d	; 61
     bac:	9e b7       	in	r25, 0x3e	; 62
     bae:	06 96       	adiw	r24, 0x06	; 6
     bb0:	0f b6       	in	r0, 0x3f	; 63
     bb2:	f8 94       	cli
     bb4:	9e bf       	out	0x3e, r25	; 62
     bb6:	0f be       	out	0x3f, r0	; 63
     bb8:	8d bf       	out	0x3d, r24	; 61
     bba:	c8 01       	movw	r24, r16
     bbc:	0e 94 9a 06 	call	0xd34	; 0xd34 <uartPuts>
     bc0:	cc 59       	subi	r28, 0x9C	; 156
     bc2:	df 4f       	sbci	r29, 0xFF	; 255
     bc4:	0f b6       	in	r0, 0x3f	; 63
     bc6:	f8 94       	cli
     bc8:	de bf       	out	0x3e, r29	; 62
     bca:	0f be       	out	0x3f, r0	; 63
     bcc:	cd bf       	out	0x3d, r28	; 61
     bce:	cf 91       	pop	r28
     bd0:	df 91       	pop	r29
     bd2:	1f 91       	pop	r17
     bd4:	0f 91       	pop	r16
     bd6:	08 95       	ret

00000bd8 <ldr_init>:
     bd8:	df 93       	push	r29
     bda:	cf 93       	push	r28
     bdc:	0f 92       	push	r0
     bde:	cd b7       	in	r28, 0x3d	; 61
     be0:	de b7       	in	r29, 0x3e	; 62
     be2:	80 e6       	ldi	r24, 0x60	; 96
     be4:	87 b9       	out	0x07, r24	; 7
     be6:	85 e8       	ldi	r24, 0x85	; 133
     be8:	86 b9       	out	0x06, r24	; 6
     bea:	36 9a       	sbi	0x06, 6	; 6
     bec:	36 99       	sbic	0x06, 6	; 6
     bee:	fe cf       	rjmp	.-4      	; 0xbec <ldr_init+0x14>
     bf0:	85 b1       	in	r24, 0x05	; 5
     bf2:	89 83       	std	Y+1, r24	; 0x01
     bf4:	20 e0       	ldi	r18, 0x00	; 0
     bf6:	30 e0       	ldi	r19, 0x00	; 0
     bf8:	89 81       	ldd	r24, Y+1	; 0x01
     bfa:	f9 01       	movw	r30, r18
     bfc:	ea 56       	subi	r30, 0x6A	; 106
     bfe:	fc 4f       	sbci	r31, 0xFC	; 252
     c00:	80 83       	st	Z, r24
     c02:	2f 5f       	subi	r18, 0xFF	; 255
     c04:	3f 4f       	sbci	r19, 0xFF	; 255
     c06:	20 34       	cpi	r18, 0x40	; 64
     c08:	31 05       	cpc	r19, r1
     c0a:	b1 f7       	brne	.-20     	; 0xbf8 <ldr_init+0x20>
     c0c:	89 81       	ldd	r24, Y+1	; 0x01
     c0e:	90 e0       	ldi	r25, 0x00	; 0
     c10:	90 93 d7 03 	sts	0x03D7, r25
     c14:	80 93 d6 03 	sts	0x03D6, r24
     c18:	80 91 d6 03 	lds	r24, 0x03D6
     c1c:	90 91 d7 03 	lds	r25, 0x03D7
     c20:	26 e0       	ldi	r18, 0x06	; 6
     c22:	88 0f       	add	r24, r24
     c24:	99 1f       	adc	r25, r25
     c26:	2a 95       	dec	r18
     c28:	e1 f7       	brne	.-8      	; 0xc22 <ldr_init+0x4a>
     c2a:	90 93 d7 03 	sts	0x03D7, r25
     c2e:	80 93 d6 03 	sts	0x03D6, r24
     c32:	36 9a       	sbi	0x06, 6	; 6
     c34:	0f 90       	pop	r0
     c36:	cf 91       	pop	r28
     c38:	df 91       	pop	r29
     c3a:	08 95       	ret

00000c3c <ldr_get_brightness>:
     c3c:	80 91 d6 03 	lds	r24, 0x03D6
     c40:	90 91 d7 03 	lds	r25, 0x03D7
     c44:	36 e0       	ldi	r19, 0x06	; 6
     c46:	96 95       	lsr	r25
     c48:	87 95       	ror	r24
     c4a:	3a 95       	dec	r19
     c4c:	e1 f7       	brne	.-8      	; 0xc46 <ldr_get_brightness+0xa>
     c4e:	80 95       	com	r24
     c50:	08 95       	ret

00000c52 <ldr_read>:
     c52:	36 99       	sbic	0x06, 6	; 6
     c54:	22 c0       	rjmp	.+68     	; 0xc9a <ldr_read+0x48>
     c56:	45 b1       	in	r20, 0x05	; 5
     c58:	80 91 d6 03 	lds	r24, 0x03D6
     c5c:	90 91 d7 03 	lds	r25, 0x03D7
     c60:	30 91 95 03 	lds	r19, 0x0395
     c64:	e3 2f       	mov	r30, r19
     c66:	f0 e0       	ldi	r31, 0x00	; 0
     c68:	ea 56       	subi	r30, 0x6A	; 106
     c6a:	fc 4f       	sbci	r31, 0xFC	; 252
     c6c:	20 81       	ld	r18, Z
     c6e:	82 1b       	sub	r24, r18
     c70:	91 09       	sbc	r25, r1
     c72:	90 93 d7 03 	sts	0x03D7, r25
     c76:	80 93 d6 03 	sts	0x03D6, r24
     c7a:	40 83       	st	Z, r20
     c7c:	80 91 d6 03 	lds	r24, 0x03D6
     c80:	90 91 d7 03 	lds	r25, 0x03D7
     c84:	84 0f       	add	r24, r20
     c86:	91 1d       	adc	r25, r1
     c88:	90 93 d7 03 	sts	0x03D7, r25
     c8c:	80 93 d6 03 	sts	0x03D6, r24
     c90:	3f 5f       	subi	r19, 0xFF	; 255
     c92:	3f 73       	andi	r19, 0x3F	; 63
     c94:	30 93 95 03 	sts	0x0395, r19
     c98:	36 9a       	sbi	0x06, 6	; 6
     c9a:	08 95       	ret

00000c9c <InitPWM>:
     c9c:	8c ef       	ldi	r24, 0xFC	; 252
     c9e:	81 bb       	out	0x11, r24	; 17
     ca0:	81 ea       	ldi	r24, 0xA1	; 161
     ca2:	8f bd       	out	0x2f, r24	; 47
     ca4:	81 e0       	ldi	r24, 0x01	; 1
     ca6:	8e bd       	out	0x2e, r24	; 46
     ca8:	81 e6       	ldi	r24, 0x61	; 97
     caa:	85 bd       	out	0x25, r24	; 37
     cac:	8d e7       	ldi	r24, 0x7D	; 125
     cae:	83 bf       	out	0x33, r24	; 51
     cb0:	89 b7       	in	r24, 0x39	; 57
     cb2:	83 7c       	andi	r24, 0xC3	; 195
     cb4:	89 bf       	out	0x39, r24	; 57
     cb6:	08 95       	ret

00000cb8 <SetPWMOutput>:
     cb8:	8a bd       	out	0x2a, r24	; 42
     cba:	98 2f       	mov	r25, r24
     cbc:	90 95       	com	r25
     cbe:	98 bd       	out	0x28, r25	; 40
     cc0:	8c bf       	out	0x3c, r24	; 60
     cc2:	83 bd       	out	0x23, r24	; 35
     cc4:	08 95       	ret

00000cc6 <SetColor>:
     cc6:	ff 92       	push	r15
     cc8:	0f 93       	push	r16
     cca:	1f 93       	push	r17
     ccc:	08 2f       	mov	r16, r24
     cce:	10 e0       	ldi	r17, 0x00	; 0
     cd0:	70 e0       	ldi	r23, 0x00	; 0
     cd2:	60 9f       	mul	r22, r16
     cd4:	c0 01       	movw	r24, r0
     cd6:	61 9f       	mul	r22, r17
     cd8:	90 0d       	add	r25, r0
     cda:	70 9f       	mul	r23, r16
     cdc:	90 0d       	add	r25, r0
     cde:	11 24       	eor	r1, r1
     ce0:	6f ef       	ldi	r22, 0xFF	; 255
     ce2:	70 e0       	ldi	r23, 0x00	; 0
     ce4:	0e 94 b8 10 	call	0x2170	; 0x2170 <__udivmodhi4>
     ce8:	f6 2e       	mov	r15, r22
     cea:	e4 2f       	mov	r30, r20
     cec:	f0 e0       	ldi	r31, 0x00	; 0
     cee:	e0 9f       	mul	r30, r16
     cf0:	c0 01       	movw	r24, r0
     cf2:	e1 9f       	mul	r30, r17
     cf4:	90 0d       	add	r25, r0
     cf6:	f0 9f       	mul	r31, r16
     cf8:	90 0d       	add	r25, r0
     cfa:	11 24       	eor	r1, r1
     cfc:	6f ef       	ldi	r22, 0xFF	; 255
     cfe:	70 e0       	ldi	r23, 0x00	; 0
     d00:	0e 94 b8 10 	call	0x2170	; 0x2170 <__udivmodhi4>
     d04:	46 2f       	mov	r20, r22
     d06:	30 e0       	ldi	r19, 0x00	; 0
     d08:	20 9f       	mul	r18, r16
     d0a:	c0 01       	movw	r24, r0
     d0c:	21 9f       	mul	r18, r17
     d0e:	90 0d       	add	r25, r0
     d10:	30 9f       	mul	r19, r16
     d12:	90 0d       	add	r25, r0
     d14:	11 24       	eor	r1, r1
     d16:	6f ef       	ldi	r22, 0xFF	; 255
     d18:	70 e0       	ldi	r23, 0x00	; 0
     d1a:	0e 94 b8 10 	call	0x2170	; 0x2170 <__udivmodhi4>
     d1e:	f8 bc       	out	0x28, r15	; 40
     d20:	4a bd       	out	0x2a, r20	; 42
     d22:	63 bd       	out	0x23, r22	; 35
     d24:	1f 91       	pop	r17
     d26:	0f 91       	pop	r16
     d28:	ff 90       	pop	r15
     d2a:	08 95       	ret

00000d2c <uartPutc>:
     d2c:	5d 9b       	sbis	0x0b, 5	; 11
     d2e:	fe cf       	rjmp	.-4      	; 0xd2c <uartPutc>
     d30:	8c b9       	out	0x0c, r24	; 12
     d32:	08 95       	ret

00000d34 <uartPuts>:
     d34:	fc 01       	movw	r30, r24
     d36:	04 c0       	rjmp	.+8      	; 0xd40 <uartPuts+0xc>
     d38:	5d 9b       	sbis	0x0b, 5	; 11
     d3a:	fe cf       	rjmp	.-4      	; 0xd38 <uartPuts+0x4>
     d3c:	8c b9       	out	0x0c, r24	; 12
     d3e:	31 96       	adiw	r30, 0x01	; 1
     d40:	80 81       	ld	r24, Z
     d42:	88 23       	and	r24, r24
     d44:	c9 f7       	brne	.-14     	; 0xd38 <uartPuts+0x4>
     d46:	08 95       	ret

00000d48 <shift32_output>:
     d48:	9b 01       	movw	r18, r22
     d4a:	ac 01       	movw	r20, r24
     d4c:	85 2f       	mov	r24, r21
     d4e:	99 27       	eor	r25, r25
     d50:	aa 27       	eor	r26, r26
     d52:	bb 27       	eor	r27, r27
     d54:	8f b9       	out	0x0f, r24	; 15
     d56:	77 9b       	sbis	0x0e, 7	; 14
     d58:	fe cf       	rjmp	.-4      	; 0xd56 <shift32_output+0xe>
     d5a:	ca 01       	movw	r24, r20
     d5c:	aa 27       	eor	r26, r26
     d5e:	bb 27       	eor	r27, r27
     d60:	8f b9       	out	0x0f, r24	; 15
     d62:	77 9b       	sbis	0x0e, 7	; 14
     d64:	fe cf       	rjmp	.-4      	; 0xd62 <shift32_output+0x1a>
     d66:	bb 27       	eor	r27, r27
     d68:	a5 2f       	mov	r26, r21
     d6a:	94 2f       	mov	r25, r20
     d6c:	83 2f       	mov	r24, r19
     d6e:	8f b9       	out	0x0f, r24	; 15
     d70:	77 9b       	sbis	0x0e, 7	; 14
     d72:	fe cf       	rjmp	.-4      	; 0xd70 <shift32_output+0x28>
     d74:	2f b9       	out	0x0f, r18	; 15
     d76:	77 9b       	sbis	0x0e, 7	; 14
     d78:	fe cf       	rjmp	.-4      	; 0xd76 <shift32_output+0x2e>
     d7a:	c4 98       	cbi	0x18, 4	; 24
     d7c:	c4 9a       	sbi	0x18, 4	; 24
     d7e:	08 95       	ret

00000d80 <shift_init>:
     d80:	87 b3       	in	r24, 0x17	; 23
     d82:	80 6b       	ori	r24, 0xB0	; 176
     d84:	87 bb       	out	0x17, r24	; 23
     d86:	be 98       	cbi	0x17, 6	; 23
     d88:	88 b3       	in	r24, 0x18	; 24
     d8a:	80 65       	ori	r24, 0x50	; 80
     d8c:	88 bb       	out	0x18, r24	; 24
     d8e:	8b e5       	ldi	r24, 0x5B	; 91
     d90:	8d b9       	out	0x0d, r24	; 13
     d92:	70 9a       	sbi	0x0e, 0	; 14
     d94:	6f ef       	ldi	r22, 0xFF	; 255
     d96:	7f ef       	ldi	r23, 0xFF	; 255
     d98:	8f ef       	ldi	r24, 0xFF	; 255
     d9a:	9f ef       	ldi	r25, 0xFF	; 255
     d9c:	0e 94 a4 06 	call	0xd48	; 0xd48 <shift32_output>
     da0:	6f ef       	ldi	r22, 0xFF	; 255
     da2:	7f ef       	ldi	r23, 0xFF	; 255
     da4:	8f ef       	ldi	r24, 0xFF	; 255
     da6:	9f ef       	ldi	r25, 0xFF	; 255
     da8:	0e 94 a4 06 	call	0xd48	; 0xd48 <shift32_output>
     dac:	08 95       	ret

00000dae <__vector_13>:
     dae:	1f 92       	push	r1
     db0:	0f 92       	push	r0
     db2:	0f b6       	in	r0, 0x3f	; 63
     db4:	0f 92       	push	r0
     db6:	11 24       	eor	r1, r1
     db8:	8f 93       	push	r24
     dba:	9f 93       	push	r25
     dbc:	ef 93       	push	r30
     dbe:	ff 93       	push	r31
     dc0:	9c b1       	in	r25, 0x0c	; 12
     dc2:	80 91 d8 03 	lds	r24, 0x03D8
     dc6:	88 23       	and	r24, r24
     dc8:	f9 f4       	brne	.+62     	; 0xe08 <__vector_13+0x5a>
     dca:	9a 30       	cpi	r25, 0x0A	; 10
     dcc:	91 f0       	breq	.+36     	; 0xdf2 <__vector_13+0x44>
     dce:	9d 30       	cpi	r25, 0x0D	; 13
     dd0:	81 f0       	breq	.+32     	; 0xdf2 <__vector_13+0x44>
     dd2:	80 91 d9 03 	lds	r24, 0x03D9
     dd6:	83 36       	cpi	r24, 0x63	; 99
     dd8:	60 f4       	brcc	.+24     	; 0xdf2 <__vector_13+0x44>
     dda:	e0 91 d9 03 	lds	r30, 0x03D9
     dde:	f0 e0       	ldi	r31, 0x00	; 0
     de0:	e8 50       	subi	r30, 0x08	; 8
     de2:	fd 4f       	sbci	r31, 0xFD	; 253
     de4:	90 83       	st	Z, r25
     de6:	80 91 d9 03 	lds	r24, 0x03D9
     dea:	8f 5f       	subi	r24, 0xFF	; 255
     dec:	80 93 d9 03 	sts	0x03D9, r24
     df0:	0b c0       	rjmp	.+22     	; 0xe08 <__vector_13+0x5a>
     df2:	e0 91 d9 03 	lds	r30, 0x03D9
     df6:	f0 e0       	ldi	r31, 0x00	; 0
     df8:	e8 50       	subi	r30, 0x08	; 8
     dfa:	fd 4f       	sbci	r31, 0xFD	; 253
     dfc:	10 82       	st	Z, r1
     dfe:	10 92 d9 03 	sts	0x03D9, r1
     e02:	81 e0       	ldi	r24, 0x01	; 1
     e04:	80 93 d8 03 	sts	0x03D8, r24
     e08:	ff 91       	pop	r31
     e0a:	ef 91       	pop	r30
     e0c:	9f 91       	pop	r25
     e0e:	8f 91       	pop	r24
     e10:	0f 90       	pop	r0
     e12:	0f be       	out	0x3f, r0	; 63
     e14:	0f 90       	pop	r0
     e16:	1f 90       	pop	r1
     e18:	18 95       	reti

00000e1a <hex2dez_c>:
     e1a:	98 2f       	mov	r25, r24
     e1c:	80 53       	subi	r24, 0x30	; 48
     e1e:	8a 30       	cpi	r24, 0x0A	; 10
     e20:	28 f4       	brcc	.+10     	; 0xe2c <hex2dez_c+0x12>
     e22:	29 2f       	mov	r18, r25
     e24:	30 e0       	ldi	r19, 0x00	; 0
     e26:	20 53       	subi	r18, 0x30	; 48
     e28:	30 40       	sbci	r19, 0x00	; 0
     e2a:	14 c0       	rjmp	.+40     	; 0xe54 <hex2dez_c+0x3a>
     e2c:	89 2f       	mov	r24, r25
     e2e:	81 54       	subi	r24, 0x41	; 65
     e30:	86 30       	cpi	r24, 0x06	; 6
     e32:	28 f4       	brcc	.+10     	; 0xe3e <hex2dez_c+0x24>
     e34:	29 2f       	mov	r18, r25
     e36:	30 e0       	ldi	r19, 0x00	; 0
     e38:	27 53       	subi	r18, 0x37	; 55
     e3a:	30 40       	sbci	r19, 0x00	; 0
     e3c:	0b c0       	rjmp	.+22     	; 0xe54 <hex2dez_c+0x3a>
     e3e:	89 2f       	mov	r24, r25
     e40:	81 56       	subi	r24, 0x61	; 97
     e42:	86 30       	cpi	r24, 0x06	; 6
     e44:	18 f0       	brcs	.+6      	; 0xe4c <hex2dez_c+0x32>
     e46:	2f ef       	ldi	r18, 0xFF	; 255
     e48:	3f ef       	ldi	r19, 0xFF	; 255
     e4a:	04 c0       	rjmp	.+8      	; 0xe54 <hex2dez_c+0x3a>
     e4c:	29 2f       	mov	r18, r25
     e4e:	30 e0       	ldi	r19, 0x00	; 0
     e50:	27 55       	subi	r18, 0x57	; 87
     e52:	30 40       	sbci	r19, 0x00	; 0
     e54:	c9 01       	movw	r24, r18
     e56:	08 95       	ret

00000e58 <hex2dez>:
     e58:	fc 01       	movw	r30, r24
     e5a:	90 81       	ld	r25, Z
     e5c:	89 2f       	mov	r24, r25
     e5e:	80 53       	subi	r24, 0x30	; 48
     e60:	8a 30       	cpi	r24, 0x0A	; 10
     e62:	28 f4       	brcc	.+10     	; 0xe6e <hex2dez+0x16>
     e64:	29 2f       	mov	r18, r25
     e66:	30 e0       	ldi	r19, 0x00	; 0
     e68:	20 53       	subi	r18, 0x30	; 48
     e6a:	30 40       	sbci	r19, 0x00	; 0
     e6c:	14 c0       	rjmp	.+40     	; 0xe96 <hex2dez+0x3e>
     e6e:	89 2f       	mov	r24, r25
     e70:	81 54       	subi	r24, 0x41	; 65
     e72:	86 30       	cpi	r24, 0x06	; 6
     e74:	28 f4       	brcc	.+10     	; 0xe80 <hex2dez+0x28>
     e76:	29 2f       	mov	r18, r25
     e78:	30 e0       	ldi	r19, 0x00	; 0
     e7a:	27 53       	subi	r18, 0x37	; 55
     e7c:	30 40       	sbci	r19, 0x00	; 0
     e7e:	0b c0       	rjmp	.+22     	; 0xe96 <hex2dez+0x3e>
     e80:	89 2f       	mov	r24, r25
     e82:	81 56       	subi	r24, 0x61	; 97
     e84:	86 30       	cpi	r24, 0x06	; 6
     e86:	18 f0       	brcs	.+6      	; 0xe8e <hex2dez+0x36>
     e88:	2f ef       	ldi	r18, 0xFF	; 255
     e8a:	3f ef       	ldi	r19, 0xFF	; 255
     e8c:	04 c0       	rjmp	.+8      	; 0xe96 <hex2dez+0x3e>
     e8e:	29 2f       	mov	r18, r25
     e90:	30 e0       	ldi	r19, 0x00	; 0
     e92:	27 55       	subi	r18, 0x57	; 87
     e94:	30 40       	sbci	r19, 0x00	; 0
     e96:	91 81       	ldd	r25, Z+1	; 0x01
     e98:	89 2f       	mov	r24, r25
     e9a:	80 53       	subi	r24, 0x30	; 48
     e9c:	8a 30       	cpi	r24, 0x0A	; 10
     e9e:	20 f4       	brcc	.+8      	; 0xea8 <hex2dez+0x50>
     ea0:	89 2f       	mov	r24, r25
     ea2:	90 e0       	ldi	r25, 0x00	; 0
     ea4:	c0 97       	sbiw	r24, 0x30	; 48
     ea6:	13 c0       	rjmp	.+38     	; 0xece <hex2dez+0x76>
     ea8:	89 2f       	mov	r24, r25
     eaa:	81 54       	subi	r24, 0x41	; 65
     eac:	86 30       	cpi	r24, 0x06	; 6
     eae:	20 f4       	brcc	.+8      	; 0xeb8 <hex2dez+0x60>
     eb0:	89 2f       	mov	r24, r25
     eb2:	90 e0       	ldi	r25, 0x00	; 0
     eb4:	c7 97       	sbiw	r24, 0x37	; 55
     eb6:	0b c0       	rjmp	.+22     	; 0xece <hex2dez+0x76>
     eb8:	89 2f       	mov	r24, r25
     eba:	81 56       	subi	r24, 0x61	; 97
     ebc:	86 30       	cpi	r24, 0x06	; 6
     ebe:	18 f0       	brcs	.+6      	; 0xec6 <hex2dez+0x6e>
     ec0:	8f ef       	ldi	r24, 0xFF	; 255
     ec2:	9f ef       	ldi	r25, 0xFF	; 255
     ec4:	04 c0       	rjmp	.+8      	; 0xece <hex2dez+0x76>
     ec6:	89 2f       	mov	r24, r25
     ec8:	90 e0       	ldi	r25, 0x00	; 0
     eca:	87 55       	subi	r24, 0x57	; 87
     ecc:	90 40       	sbci	r25, 0x00	; 0
     ece:	37 fd       	sbrc	r19, 7
     ed0:	0a c0       	rjmp	.+20     	; 0xee6 <hex2dez+0x8e>
     ed2:	97 fd       	sbrc	r25, 7
     ed4:	08 c0       	rjmp	.+16     	; 0xee6 <hex2dez+0x8e>
     ed6:	74 e0       	ldi	r23, 0x04	; 4
     ed8:	22 0f       	add	r18, r18
     eda:	33 1f       	adc	r19, r19
     edc:	7a 95       	dec	r23
     ede:	e1 f7       	brne	.-8      	; 0xed8 <hex2dez+0x80>
     ee0:	28 0f       	add	r18, r24
     ee2:	39 1f       	adc	r19, r25
     ee4:	02 c0       	rjmp	.+4      	; 0xeea <hex2dez+0x92>
     ee6:	2f ef       	ldi	r18, 0xFF	; 255
     ee8:	3f ef       	ldi	r19, 0xFF	; 255
     eea:	c9 01       	movw	r24, r18
     eec:	08 95       	ret

00000eee <TimeInfo>:
     eee:	6f 92       	push	r6
     ef0:	7f 92       	push	r7
     ef2:	8f 92       	push	r8
     ef4:	9f 92       	push	r9
     ef6:	af 92       	push	r10
     ef8:	bf 92       	push	r11
     efa:	cf 92       	push	r12
     efc:	df 92       	push	r13
     efe:	ef 92       	push	r14
     f00:	ff 92       	push	r15
     f02:	0f 93       	push	r16
     f04:	1f 93       	push	r17
     f06:	df 93       	push	r29
     f08:	cf 93       	push	r28
     f0a:	cd b7       	in	r28, 0x3d	; 61
     f0c:	de b7       	in	r29, 0x3e	; 62
     f0e:	c1 57       	subi	r28, 0x71	; 113
     f10:	d0 40       	sbci	r29, 0x00	; 0
     f12:	0f b6       	in	r0, 0x3f	; 63
     f14:	f8 94       	cli
     f16:	de bf       	out	0x3e, r29	; 62
     f18:	0f be       	out	0x3f, r0	; 63
     f1a:	cd bf       	out	0x3d, r28	; 61
     f1c:	fe 01       	movw	r30, r28
     f1e:	eb 59       	subi	r30, 0x9B	; 155
     f20:	ff 4f       	sbci	r31, 0xFF	; 255
     f22:	bc 2c       	mov	r11, r12
     f24:	c0 82       	st	Z, r12
     f26:	cd 2c       	mov	r12, r13
     f28:	d1 82       	std	Z+1, r13	; 0x01
     f2a:	de 2c       	mov	r13, r14
     f2c:	e2 82       	std	Z+2, r14	; 0x02
     f2e:	ef 2c       	mov	r14, r15
     f30:	f3 82       	std	Z+3, r15	; 0x03
     f32:	f0 2e       	mov	r15, r16
     f34:	04 83       	std	Z+4, r16	; 0x04
     f36:	b1 2f       	mov	r27, r17
     f38:	15 83       	std	Z+5, r17	; 0x05
     f3a:	26 83       	std	Z+6, r18	; 0x06
     f3c:	13 2f       	mov	r17, r19
     f3e:	37 83       	std	Z+7, r19	; 0x07
     f40:	40 87       	std	Z+8, r20	; 0x08
     f42:	35 2f       	mov	r19, r21
     f44:	51 87       	std	Z+9, r21	; 0x09
     f46:	26 2f       	mov	r18, r22
     f48:	62 87       	std	Z+10, r22	; 0x0a
     f4a:	97 2f       	mov	r25, r23
     f4c:	73 87       	std	Z+11, r23	; 0x0b
     f4e:	84 87       	std	Z+12, r24	; 0x0c
     f50:	5b 2f       	mov	r21, r27
     f52:	a4 2e       	mov	r10, r20
     f54:	49 01       	movw	r8, r18
     f56:	3c 01       	movw	r6, r24
     f58:	40 91 91 03 	lds	r20, 0x0391
     f5c:	11 23       	and	r17, r17
     f5e:	19 f4       	brne	.+6      	; 0xf66 <TimeInfo+0x78>
     f60:	2b ed       	ldi	r18, 0xDB	; 219
     f62:	30 e0       	ldi	r19, 0x00	; 0
     f64:	02 c0       	rjmp	.+4      	; 0xf6a <TimeInfo+0x7c>
     f66:	2c ed       	ldi	r18, 0xDC	; 220
     f68:	30 e0       	ldi	r19, 0x00	; 0
     f6a:	8d b7       	in	r24, 0x3d	; 61
     f6c:	9e b7       	in	r25, 0x3e	; 62
     f6e:	46 97       	sbiw	r24, 0x16	; 22
     f70:	0f b6       	in	r0, 0x3f	; 63
     f72:	f8 94       	cli
     f74:	9e bf       	out	0x3e, r25	; 62
     f76:	0f be       	out	0x3f, r0	; 63
     f78:	8d bf       	out	0x3d, r24	; 61
     f7a:	ed b7       	in	r30, 0x3d	; 61
     f7c:	fe b7       	in	r31, 0x3e	; 62
     f7e:	31 96       	adiw	r30, 0x01	; 1
     f80:	8e 01       	movw	r16, r28
     f82:	0f 5f       	subi	r16, 0xFF	; 255
     f84:	1f 4f       	sbci	r17, 0xFF	; 255
     f86:	ad b7       	in	r26, 0x3d	; 61
     f88:	be b7       	in	r27, 0x3e	; 62
     f8a:	12 96       	adiw	r26, 0x02	; 2
     f8c:	1c 93       	st	X, r17
     f8e:	0e 93       	st	-X, r16
     f90:	11 97       	sbiw	r26, 0x01	; 1
     f92:	80 ee       	ldi	r24, 0xE0	; 224
     f94:	90 e0       	ldi	r25, 0x00	; 0
     f96:	93 83       	std	Z+3, r25	; 0x03
     f98:	82 83       	std	Z+2, r24	; 0x02
     f9a:	e4 82       	std	Z+4, r14	; 0x04
     f9c:	15 82       	std	Z+5, r1	; 0x05
     f9e:	f6 82       	std	Z+6, r15	; 0x06
     fa0:	17 82       	std	Z+7, r1	; 0x07
     fa2:	50 87       	std	Z+8, r21	; 0x08
     fa4:	11 86       	std	Z+9, r1	; 0x09
     fa6:	84 e1       	ldi	r24, 0x14	; 20
     fa8:	91 e0       	ldi	r25, 0x01	; 1
     faa:	93 87       	std	Z+11, r25	; 0x0b
     fac:	82 87       	std	Z+10, r24	; 0x0a
     fae:	d4 86       	std	Z+12, r13	; 0x0c
     fb0:	15 86       	std	Z+13, r1	; 0x0d
     fb2:	c6 86       	std	Z+14, r12	; 0x0e
     fb4:	17 86       	std	Z+15, r1	; 0x0f
     fb6:	8b 2d       	mov	r24, r11
     fb8:	90 e0       	ldi	r25, 0x00	; 0
     fba:	80 53       	subi	r24, 0x30	; 48
     fbc:	98 4f       	sbci	r25, 0xF8	; 248
     fbe:	91 8b       	std	Z+17, r25	; 0x11
     fc0:	80 8b       	std	Z+16, r24	; 0x10
     fc2:	84 2f       	mov	r24, r20
     fc4:	99 27       	eor	r25, r25
     fc6:	87 fd       	sbrc	r24, 7
     fc8:	90 95       	com	r25
     fca:	93 8b       	std	Z+19, r25	; 0x13
     fcc:	82 8b       	std	Z+18, r24	; 0x12
     fce:	35 8b       	std	Z+21, r19	; 0x15
     fd0:	24 8b       	std	Z+20, r18	; 0x14
     fd2:	0e 94 1c 11 	call	0x2238	; 0x2238 <sprintf>
     fd6:	f8 01       	movw	r30, r16
     fd8:	8d b7       	in	r24, 0x3d	; 61
     fda:	9e b7       	in	r25, 0x3e	; 62
     fdc:	46 96       	adiw	r24, 0x16	; 22
     fde:	0f b6       	in	r0, 0x3f	; 63
     fe0:	f8 94       	cli
     fe2:	9e bf       	out	0x3e, r25	; 62
     fe4:	0f be       	out	0x3f, r0	; 63
     fe6:	8d bf       	out	0x3d, r24	; 61
     fe8:	04 c0       	rjmp	.+8      	; 0xff2 <TimeInfo+0x104>
     fea:	5d 9b       	sbis	0x0b, 5	; 11
     fec:	fe cf       	rjmp	.-4      	; 0xfea <TimeInfo+0xfc>
     fee:	8c b9       	out	0x0c, r24	; 12
     ff0:	31 96       	adiw	r30, 0x01	; 1
     ff2:	80 81       	ld	r24, Z
     ff4:	88 23       	and	r24, r24
     ff6:	c9 f7       	brne	.-14     	; 0xfea <TimeInfo+0xfc>
     ff8:	ad b7       	in	r26, 0x3d	; 61
     ffa:	be b7       	in	r27, 0x3e	; 62
     ffc:	1e 97       	sbiw	r26, 0x0e	; 14
     ffe:	0f b6       	in	r0, 0x3f	; 63
    1000:	f8 94       	cli
    1002:	be bf       	out	0x3e, r27	; 62
    1004:	0f be       	out	0x3f, r0	; 63
    1006:	ad bf       	out	0x3d, r26	; 61
    1008:	ed b7       	in	r30, 0x3d	; 61
    100a:	fe b7       	in	r31, 0x3e	; 62
    100c:	31 96       	adiw	r30, 0x01	; 1
    100e:	ce 01       	movw	r24, r28
    1010:	01 96       	adiw	r24, 0x01	; 1
    1012:	12 96       	adiw	r26, 0x02	; 2
    1014:	9c 93       	st	X, r25
    1016:	8e 93       	st	-X, r24
    1018:	11 97       	sbiw	r26, 0x01	; 1
    101a:	86 e1       	ldi	r24, 0x16	; 22
    101c:	91 e0       	ldi	r25, 0x01	; 1
    101e:	93 83       	std	Z+3, r25	; 0x03
    1020:	82 83       	std	Z+2, r24	; 0x02
    1022:	a4 82       	std	Z+4, r10	; 0x04
    1024:	15 82       	std	Z+5, r1	; 0x05
    1026:	96 82       	std	Z+6, r9	; 0x06
    1028:	17 82       	std	Z+7, r1	; 0x07
    102a:	80 86       	std	Z+8, r8	; 0x08
    102c:	11 86       	std	Z+9, r1	; 0x09
    102e:	72 86       	std	Z+10, r7	; 0x0a
    1030:	13 86       	std	Z+11, r1	; 0x0b
    1032:	64 86       	std	Z+12, r6	; 0x0c
    1034:	15 86       	std	Z+13, r1	; 0x0d
    1036:	0e 94 1c 11 	call	0x2238	; 0x2238 <sprintf>
    103a:	ed b7       	in	r30, 0x3d	; 61
    103c:	fe b7       	in	r31, 0x3e	; 62
    103e:	3e 96       	adiw	r30, 0x0e	; 14
    1040:	0f b6       	in	r0, 0x3f	; 63
    1042:	f8 94       	cli
    1044:	fe bf       	out	0x3e, r31	; 62
    1046:	0f be       	out	0x3f, r0	; 63
    1048:	ed bf       	out	0x3d, r30	; 61
    104a:	05 c0       	rjmp	.+10     	; 0x1056 <TimeInfo+0x168>
    104c:	5d 9b       	sbis	0x0b, 5	; 11
    104e:	fe cf       	rjmp	.-4      	; 0x104c <TimeInfo+0x15e>
    1050:	8c b9       	out	0x0c, r24	; 12
    1052:	0f 5f       	subi	r16, 0xFF	; 255
    1054:	1f 4f       	sbci	r17, 0xFF	; 255
    1056:	d8 01       	movw	r26, r16
    1058:	8c 91       	ld	r24, X
    105a:	88 23       	and	r24, r24
    105c:	b9 f7       	brne	.-18     	; 0x104c <TimeInfo+0x15e>
    105e:	cf 58       	subi	r28, 0x8F	; 143
    1060:	df 4f       	sbci	r29, 0xFF	; 255
    1062:	0f b6       	in	r0, 0x3f	; 63
    1064:	f8 94       	cli
    1066:	de bf       	out	0x3e, r29	; 62
    1068:	0f be       	out	0x3f, r0	; 63
    106a:	cd bf       	out	0x3d, r28	; 61
    106c:	cf 91       	pop	r28
    106e:	df 91       	pop	r29
    1070:	1f 91       	pop	r17
    1072:	0f 91       	pop	r16
    1074:	ff 90       	pop	r15
    1076:	ef 90       	pop	r14
    1078:	df 90       	pop	r13
    107a:	cf 90       	pop	r12
    107c:	bf 90       	pop	r11
    107e:	af 90       	pop	r10
    1080:	9f 90       	pop	r9
    1082:	8f 90       	pop	r8
    1084:	7f 90       	pop	r7
    1086:	6f 90       	pop	r6
    1088:	08 95       	ret

0000108a <main>:
    108a:	2f 92       	push	r2
    108c:	3f 92       	push	r3
    108e:	4f 92       	push	r4
    1090:	5f 92       	push	r5
    1092:	6f 92       	push	r6
    1094:	7f 92       	push	r7
    1096:	8f 92       	push	r8
    1098:	9f 92       	push	r9
    109a:	af 92       	push	r10
    109c:	bf 92       	push	r11
    109e:	cf 92       	push	r12
    10a0:	df 92       	push	r13
    10a2:	ef 92       	push	r14
    10a4:	ff 92       	push	r15
    10a6:	0f 93       	push	r16
    10a8:	1f 93       	push	r17
    10aa:	df 93       	push	r29
    10ac:	cf 93       	push	r28
    10ae:	cd b7       	in	r28, 0x3d	; 61
    10b0:	de b7       	in	r29, 0x3e	; 62
    10b2:	c5 5d       	subi	r28, 0xD5	; 213
    10b4:	d0 40       	sbci	r29, 0x00	; 0
    10b6:	0f b6       	in	r0, 0x3f	; 63
    10b8:	f8 94       	cli
    10ba:	de bf       	out	0x3e, r29	; 62
    10bc:	0f be       	out	0x3f, r0	; 63
    10be:	cd bf       	out	0x3d, r28	; 61
    10c0:	f8 94       	cli
    10c2:	8a b1       	in	r24, 0x0a	; 10
    10c4:	88 69       	ori	r24, 0x98	; 152
    10c6:	8a b9       	out	0x0a, r24	; 10
    10c8:	80 b5       	in	r24, 0x20	; 32
    10ca:	86 68       	ori	r24, 0x86	; 134
    10cc:	80 bd       	out	0x20, r24	; 32
    10ce:	10 bc       	out	0x20, r1	; 32
    10d0:	88 e0       	ldi	r24, 0x08	; 8
    10d2:	89 b9       	out	0x09, r24	; 9
    10d4:	e8 e3       	ldi	r30, 0x38	; 56
    10d6:	f1 e0       	ldi	r31, 0x01	; 1
    10d8:	04 c0       	rjmp	.+8      	; 0x10e2 <main+0x58>
    10da:	5d 9b       	sbis	0x0b, 5	; 11
    10dc:	fe cf       	rjmp	.-4      	; 0x10da <main+0x50>
    10de:	8c b9       	out	0x0c, r24	; 12
    10e0:	31 96       	adiw	r30, 0x01	; 1
    10e2:	80 81       	ld	r24, Z
    10e4:	88 23       	and	r24, r24
    10e6:	c9 f7       	brne	.-14     	; 0x10da <main+0x50>
    10e8:	e9 e5       	ldi	r30, 0x59	; 89
    10ea:	f1 e0       	ldi	r31, 0x01	; 1
    10ec:	04 c0       	rjmp	.+8      	; 0x10f6 <main+0x6c>
    10ee:	5d 9b       	sbis	0x0b, 5	; 11
    10f0:	fe cf       	rjmp	.-4      	; 0x10ee <main+0x64>
    10f2:	8c b9       	out	0x0c, r24	; 12
    10f4:	31 96       	adiw	r30, 0x01	; 1
    10f6:	80 81       	ld	r24, Z
    10f8:	88 23       	and	r24, r24
    10fa:	c9 f7       	brne	.-14     	; 0x10ee <main+0x64>
    10fc:	8c ef       	ldi	r24, 0xFC	; 252
    10fe:	81 bb       	out	0x11, r24	; 17
    1100:	81 ea       	ldi	r24, 0xA1	; 161
    1102:	8f bd       	out	0x2f, r24	; 47
    1104:	81 e0       	ldi	r24, 0x01	; 1
    1106:	8e bd       	out	0x2e, r24	; 46
    1108:	81 e6       	ldi	r24, 0x61	; 97
    110a:	85 bd       	out	0x25, r24	; 37
    110c:	8d e7       	ldi	r24, 0x7D	; 125
    110e:	83 bf       	out	0x33, r24	; 51
    1110:	89 b7       	in	r24, 0x39	; 57
    1112:	83 7c       	andi	r24, 0xC3	; 195
    1114:	89 bf       	out	0x39, r24	; 57
    1116:	8f ef       	ldi	r24, 0xFF	; 255
    1118:	6f ef       	ldi	r22, 0xFF	; 255
    111a:	40 e0       	ldi	r20, 0x00	; 0
    111c:	20 e0       	ldi	r18, 0x00	; 0
    111e:	0e 94 63 06 	call	0xcc6	; 0xcc6 <SetColor>
    1122:	e3 e6       	ldi	r30, 0x63	; 99
    1124:	f1 e0       	ldi	r31, 0x01	; 1
    1126:	04 c0       	rjmp	.+8      	; 0x1130 <main+0xa6>
    1128:	5d 9b       	sbis	0x0b, 5	; 11
    112a:	fe cf       	rjmp	.-4      	; 0x1128 <main+0x9e>
    112c:	8c b9       	out	0x0c, r24	; 12
    112e:	31 96       	adiw	r30, 0x01	; 1
    1130:	80 81       	ld	r24, Z
    1132:	88 23       	and	r24, r24
    1134:	c9 f7       	brne	.-14     	; 0x1128 <main+0x9e>
    1136:	0e 94 c0 06 	call	0xd80	; 0xd80 <shift_init>
    113a:	8f ef       	ldi	r24, 0xFF	; 255
    113c:	6f ef       	ldi	r22, 0xFF	; 255
    113e:	4f ef       	ldi	r20, 0xFF	; 255
    1140:	20 e0       	ldi	r18, 0x00	; 0
    1142:	0e 94 63 06 	call	0xcc6	; 0xcc6 <SetColor>
    1146:	e1 e7       	ldi	r30, 0x71	; 113
    1148:	f1 e0       	ldi	r31, 0x01	; 1
    114a:	04 c0       	rjmp	.+8      	; 0x1154 <main+0xca>
    114c:	5d 9b       	sbis	0x0b, 5	; 11
    114e:	fe cf       	rjmp	.-4      	; 0x114c <main+0xc2>
    1150:	8c b9       	out	0x0c, r24	; 12
    1152:	31 96       	adiw	r30, 0x01	; 1
    1154:	80 81       	ld	r24, Z
    1156:	88 23       	and	r24, r24
    1158:	c9 f7       	brne	.-14     	; 0x114c <main+0xc2>
    115a:	0e 94 ec 05 	call	0xbd8	; 0xbd8 <ldr_init>
    115e:	8f ef       	ldi	r24, 0xFF	; 255
    1160:	60 e0       	ldi	r22, 0x00	; 0
    1162:	4f ef       	ldi	r20, 0xFF	; 255
    1164:	2f ef       	ldi	r18, 0xFF	; 255
    1166:	0e 94 63 06 	call	0xcc6	; 0xcc6 <SetColor>
    116a:	ef e7       	ldi	r30, 0x7F	; 127
    116c:	f1 e0       	ldi	r31, 0x01	; 1
    116e:	04 c0       	rjmp	.+8      	; 0x1178 <main+0xee>
    1170:	5d 9b       	sbis	0x0b, 5	; 11
    1172:	fe cf       	rjmp	.-4      	; 0x1170 <main+0xe6>
    1174:	8c b9       	out	0x0c, r24	; 12
    1176:	31 96       	adiw	r30, 0x01	; 1
    1178:	80 81       	ld	r24, Z
    117a:	88 23       	and	r24, r24
    117c:	c9 f7       	brne	.-14     	; 0x1170 <main+0xe6>
    117e:	ce 01       	movw	r24, r28
    1180:	01 96       	adiw	r24, 0x01	; 1
    1182:	be 01       	movw	r22, r28
    1184:	6e 5f       	subi	r22, 0xFE	; 254
    1186:	7f 4f       	sbci	r23, 0xFF	; 255
    1188:	0e 94 a8 04 	call	0x950	; 0x950 <i2c_rtc_init>
    118c:	88 23       	and	r24, r24
    118e:	79 f5       	brne	.+94     	; 0x11ee <main+0x164>
    1190:	e9 e8       	ldi	r30, 0x89	; 137
    1192:	f1 e0       	ldi	r31, 0x01	; 1
    1194:	04 c0       	rjmp	.+8      	; 0x119e <main+0x114>
    1196:	5d 9b       	sbis	0x0b, 5	; 11
    1198:	fe cf       	rjmp	.-4      	; 0x1196 <main+0x10c>
    119a:	8c b9       	out	0x0c, r24	; 12
    119c:	31 96       	adiw	r30, 0x01	; 1
    119e:	80 81       	ld	r24, Z
    11a0:	88 23       	and	r24, r24
    11a2:	c9 f7       	brne	.-14     	; 0x1196 <main+0x10c>
    11a4:	00 e0       	ldi	r16, 0x00	; 0
    11a6:	10 e0       	ldi	r17, 0x00	; 0
    11a8:	20 e9       	ldi	r18, 0x90	; 144
    11aa:	e2 2e       	mov	r14, r18
    11ac:	21 e0       	ldi	r18, 0x01	; 1
    11ae:	f2 2e       	mov	r15, r18
    11b0:	8f ef       	ldi	r24, 0xFF	; 255
    11b2:	60 e0       	ldi	r22, 0x00	; 0
    11b4:	40 e0       	ldi	r20, 0x00	; 0
    11b6:	20 e0       	ldi	r18, 0x00	; 0
    11b8:	0e 94 63 06 	call	0xcc6	; 0xcc6 <SetColor>
    11bc:	88 ec       	ldi	r24, 0xC8	; 200
    11be:	90 e0       	ldi	r25, 0x00	; 0
    11c0:	f7 01       	movw	r30, r14
    11c2:	31 97       	sbiw	r30, 0x01	; 1
    11c4:	f1 f7       	brne	.-4      	; 0x11c2 <main+0x138>
    11c6:	01 97       	sbiw	r24, 0x01	; 1
    11c8:	d9 f7       	brne	.-10     	; 0x11c0 <main+0x136>
    11ca:	8f ef       	ldi	r24, 0xFF	; 255
    11cc:	6f ef       	ldi	r22, 0xFF	; 255
    11ce:	4f ef       	ldi	r20, 0xFF	; 255
    11d0:	2f ef       	ldi	r18, 0xFF	; 255
    11d2:	0e 94 63 06 	call	0xcc6	; 0xcc6 <SetColor>
    11d6:	88 ec       	ldi	r24, 0xC8	; 200
    11d8:	90 e0       	ldi	r25, 0x00	; 0
    11da:	f7 01       	movw	r30, r14
    11dc:	31 97       	sbiw	r30, 0x01	; 1
    11de:	f1 f7       	brne	.-4      	; 0x11dc <main+0x152>
    11e0:	01 97       	sbiw	r24, 0x01	; 1
    11e2:	d9 f7       	brne	.-10     	; 0x11da <main+0x150>
    11e4:	0f 5f       	subi	r16, 0xFF	; 255
    11e6:	1f 4f       	sbci	r17, 0xFF	; 255
    11e8:	0a 30       	cpi	r16, 0x0A	; 10
    11ea:	11 05       	cpc	r17, r1
    11ec:	09 f7       	brne	.-62     	; 0x11b0 <main+0x126>
    11ee:	8f ef       	ldi	r24, 0xFF	; 255
    11f0:	6f ef       	ldi	r22, 0xFF	; 255
    11f2:	4f ef       	ldi	r20, 0xFF	; 255
    11f4:	2f ef       	ldi	r18, 0xFF	; 255
    11f6:	0e 94 63 06 	call	0xcc6	; 0xcc6 <SetColor>
    11fa:	78 94       	sei
    11fc:	e7 e9       	ldi	r30, 0x97	; 151
    11fe:	f1 e0       	ldi	r31, 0x01	; 1
    1200:	04 c0       	rjmp	.+8      	; 0x120a <main+0x180>
    1202:	5d 9b       	sbis	0x0b, 5	; 11
    1204:	fe cf       	rjmp	.-4      	; 0x1202 <main+0x178>
    1206:	8c b9       	out	0x0c, r24	; 12
    1208:	31 96       	adiw	r30, 0x01	; 1
    120a:	80 81       	ld	r24, Z
    120c:	88 23       	and	r24, r24
    120e:	c9 f7       	brne	.-14     	; 0x1202 <main+0x178>
    1210:	81 e0       	ldi	r24, 0x01	; 1
    1212:	8b 83       	std	Y+3, r24	; 0x03
    1214:	82 e0       	ldi	r24, 0x02	; 2
    1216:	be 01       	movw	r22, r28
    1218:	6d 5f       	subi	r22, 0xFD	; 253
    121a:	7f 4f       	sbci	r23, 0xFF	; 255
    121c:	0e 94 64 04 	call	0x8c8	; 0x8c8 <read_byte>
    1220:	c0 54       	subi	r28, 0x40	; 64
    1222:	df 4f       	sbci	r29, 0xFF	; 255
    1224:	19 82       	std	Y+1, r1	; 0x01
    1226:	18 82       	st	Y, r1
    1228:	c0 5c       	subi	r28, 0xC0	; 192
    122a:	d0 40       	sbci	r29, 0x00	; 0
    122c:	c2 54       	subi	r28, 0x42	; 66
    122e:	df 4f       	sbci	r29, 0xFF	; 255
    1230:	19 82       	std	Y+1, r1	; 0x01
    1232:	18 82       	st	Y, r1
    1234:	ce 5b       	subi	r28, 0xBE	; 190
    1236:	d0 40       	sbci	r29, 0x00	; 0
    1238:	c4 54       	subi	r28, 0x44	; 68
    123a:	df 4f       	sbci	r29, 0xFF	; 255
    123c:	19 82       	std	Y+1, r1	; 0x01
    123e:	18 82       	st	Y, r1
    1240:	cc 5b       	subi	r28, 0xBC	; 188
    1242:	d0 40       	sbci	r29, 0x00	; 0
    1244:	01 e0       	ldi	r16, 0x01	; 1
    1246:	10 e0       	ldi	r17, 0x00	; 0
    1248:	c6 54       	subi	r28, 0x46	; 70
    124a:	df 4f       	sbci	r29, 0xFF	; 255
    124c:	19 83       	std	Y+1, r17	; 0x01
    124e:	08 83       	st	Y, r16
    1250:	ca 5b       	subi	r28, 0xBA	; 186
    1252:	d0 40       	sbci	r29, 0x00	; 0
    1254:	ca 54       	subi	r28, 0x4A	; 74
    1256:	df 4f       	sbci	r29, 0xFF	; 255
    1258:	18 82       	st	Y, r1
    125a:	19 82       	std	Y+1, r1	; 0x01
    125c:	1a 82       	std	Y+2, r1	; 0x02
    125e:	1b 82       	std	Y+3, r1	; 0x03
    1260:	c6 5b       	subi	r28, 0xB6	; 182
    1262:	d0 40       	sbci	r29, 0x00	; 0
    1264:	22 24       	eor	r2, r2
    1266:	33 24       	eor	r3, r3
    1268:	cc 54       	subi	r28, 0x4C	; 76
    126a:	df 4f       	sbci	r29, 0xFF	; 255
    126c:	19 82       	std	Y+1, r1	; 0x01
    126e:	18 82       	st	Y, r1
    1270:	c4 5b       	subi	r28, 0xB4	; 180
    1272:	d0 40       	sbci	r29, 0x00	; 0
    1274:	41 2c       	mov	r4, r1
    1276:	51 2c       	mov	r5, r1
    1278:	61 2c       	mov	r6, r1
    127a:	90 e8       	ldi	r25, 0x80	; 128
    127c:	79 2e       	mov	r7, r25
    127e:	24 e5       	ldi	r18, 0x54	; 84
    1280:	30 e0       	ldi	r19, 0x00	; 0
    1282:	f9 01       	movw	r30, r18
    1284:	45 91       	lpm	r20, Z+
    1286:	55 91       	lpm	r21, Z+
    1288:	65 91       	lpm	r22, Z+
    128a:	74 91       	lpm	r23, Z+
    128c:	2c 5f       	subi	r18, 0xFC	; 252
    128e:	3f 4f       	sbci	r19, 0xFF	; 255
    1290:	f9 01       	movw	r30, r18
    1292:	85 91       	lpm	r24, Z+
    1294:	95 91       	lpm	r25, Z+
    1296:	a5 91       	lpm	r26, Z+
    1298:	b4 91       	lpm	r27, Z+
    129a:	ce 53       	subi	r28, 0x3E	; 62
    129c:	df 4f       	sbci	r29, 0xFF	; 255
    129e:	88 83       	st	Y, r24
    12a0:	99 83       	std	Y+1, r25	; 0x01
    12a2:	aa 83       	std	Y+2, r26	; 0x02
    12a4:	bb 83       	std	Y+3, r27	; 0x03
    12a6:	c2 5c       	subi	r28, 0xC2	; 194
    12a8:	d0 40       	sbci	r29, 0x00	; 0
    12aa:	ec ea       	ldi	r30, 0xAC	; 172
    12ac:	f0 e0       	ldi	r31, 0x00	; 0
    12ae:	85 91       	lpm	r24, Z+
    12b0:	95 91       	lpm	r25, Z+
    12b2:	a5 91       	lpm	r26, Z+
    12b4:	b4 91       	lpm	r27, Z+
    12b6:	ce 53       	subi	r28, 0x3E	; 62
    12b8:	df 4f       	sbci	r29, 0xFF	; 255
    12ba:	e8 80       	ld	r14, Y
    12bc:	f9 80       	ldd	r15, Y+1	; 0x01
    12be:	0a 81       	ldd	r16, Y+2	; 0x02
    12c0:	1b 81       	ldd	r17, Y+3	; 0x03
    12c2:	c2 5c       	subi	r28, 0xC2	; 194
    12c4:	d0 40       	sbci	r29, 0x00	; 0
    12c6:	e4 2a       	or	r14, r20
    12c8:	f5 2a       	or	r15, r21
    12ca:	06 2b       	or	r16, r22
    12cc:	17 2b       	or	r17, r23
    12ce:	e8 2a       	or	r14, r24
    12d0:	f9 2a       	or	r15, r25
    12d2:	0a 2b       	or	r16, r26
    12d4:	1b 2b       	or	r17, r27
    12d6:	ce 53       	subi	r28, 0x3E	; 62
    12d8:	df 4f       	sbci	r29, 0xFF	; 255
    12da:	e8 82       	st	Y, r14
    12dc:	f9 82       	std	Y+1, r15	; 0x01
    12de:	0a 83       	std	Y+2, r16	; 0x02
    12e0:	1b 83       	std	Y+3, r17	; 0x03
    12e2:	c2 5c       	subi	r28, 0xC2	; 194
    12e4:	d0 40       	sbci	r29, 0x00	; 0
    12e6:	ec e5       	ldi	r30, 0x5C	; 92
    12e8:	f0 e0       	ldi	r31, 0x00	; 0
    12ea:	45 91       	lpm	r20, Z+
    12ec:	55 91       	lpm	r21, Z+
    12ee:	65 91       	lpm	r22, Z+
    12f0:	74 91       	lpm	r23, Z+
    12f2:	e4 e7       	ldi	r30, 0x74	; 116
    12f4:	f0 e0       	ldi	r31, 0x00	; 0
    12f6:	85 91       	lpm	r24, Z+
    12f8:	95 91       	lpm	r25, Z+
    12fa:	a5 91       	lpm	r26, Z+
    12fc:	b4 91       	lpm	r27, Z+
    12fe:	48 2b       	or	r20, r24
    1300:	59 2b       	or	r21, r25
    1302:	6a 2b       	or	r22, r26
    1304:	7b 2b       	or	r23, r27
    1306:	ca 53       	subi	r28, 0x3A	; 58
    1308:	df 4f       	sbci	r29, 0xFF	; 255
    130a:	48 83       	st	Y, r20
    130c:	59 83       	std	Y+1, r21	; 0x01
    130e:	6a 83       	std	Y+2, r22	; 0x02
    1310:	7b 83       	std	Y+3, r23	; 0x03
    1312:	c6 5c       	subi	r28, 0xC6	; 198
    1314:	d0 40       	sbci	r29, 0x00	; 0
    1316:	e0 e6       	ldi	r30, 0x60	; 96
    1318:	f0 e0       	ldi	r31, 0x00	; 0
    131a:	e5 90       	lpm	r14, Z+
    131c:	f5 90       	lpm	r15, Z+
    131e:	05 91       	lpm	r16, Z+
    1320:	14 91       	lpm	r17, Z+
    1322:	e8 2a       	or	r14, r24
    1324:	f9 2a       	or	r15, r25
    1326:	0a 2b       	or	r16, r26
    1328:	1b 2b       	or	r17, r27
    132a:	c6 53       	subi	r28, 0x36	; 54
    132c:	df 4f       	sbci	r29, 0xFF	; 255
    132e:	e8 82       	st	Y, r14
    1330:	f9 82       	std	Y+1, r15	; 0x01
    1332:	0a 83       	std	Y+2, r16	; 0x02
    1334:	1b 83       	std	Y+3, r17	; 0x03
    1336:	ca 5c       	subi	r28, 0xCA	; 202
    1338:	d0 40       	sbci	r29, 0x00	; 0
    133a:	e4 e6       	ldi	r30, 0x64	; 100
    133c:	f0 e0       	ldi	r31, 0x00	; 0
    133e:	05 91       	lpm	r16, Z+
    1340:	15 91       	lpm	r17, Z+
    1342:	25 91       	lpm	r18, Z+
    1344:	34 91       	lpm	r19, Z+
    1346:	e0 e7       	ldi	r30, 0x70	; 112
    1348:	f0 e0       	ldi	r31, 0x00	; 0
    134a:	85 91       	lpm	r24, Z+
    134c:	95 91       	lpm	r25, Z+
    134e:	a5 91       	lpm	r26, Z+
    1350:	b4 91       	lpm	r27, Z+
    1352:	08 2b       	or	r16, r24
    1354:	19 2b       	or	r17, r25
    1356:	2a 2b       	or	r18, r26
    1358:	3b 2b       	or	r19, r27
    135a:	c2 53       	subi	r28, 0x32	; 50
    135c:	df 4f       	sbci	r29, 0xFF	; 255
    135e:	08 83       	st	Y, r16
    1360:	19 83       	std	Y+1, r17	; 0x01
    1362:	2a 83       	std	Y+2, r18	; 0x02
    1364:	3b 83       	std	Y+3, r19	; 0x03
    1366:	ce 5c       	subi	r28, 0xCE	; 206
    1368:	d0 40       	sbci	r29, 0x00	; 0
    136a:	e4 eb       	ldi	r30, 0xB4	; 180
    136c:	f0 e0       	ldi	r31, 0x00	; 0
    136e:	25 91       	lpm	r18, Z+
    1370:	35 91       	lpm	r19, Z+
    1372:	45 91       	lpm	r20, Z+
    1374:	54 91       	lpm	r21, Z+
    1376:	ce 53       	subi	r28, 0x3E	; 62
    1378:	df 4f       	sbci	r29, 0xFF	; 255
    137a:	68 81       	ld	r22, Y
    137c:	79 81       	ldd	r23, Y+1	; 0x01
    137e:	8a 81       	ldd	r24, Y+2	; 0x02
    1380:	9b 81       	ldd	r25, Y+3	; 0x03
    1382:	c2 5c       	subi	r28, 0xC2	; 194
    1384:	d0 40       	sbci	r29, 0x00	; 0
    1386:	26 2b       	or	r18, r22
    1388:	37 2b       	or	r19, r23
    138a:	48 2b       	or	r20, r24
    138c:	59 2b       	or	r21, r25
    138e:	ce 52       	subi	r28, 0x2E	; 46
    1390:	df 4f       	sbci	r29, 0xFF	; 255
    1392:	28 83       	st	Y, r18
    1394:	39 83       	std	Y+1, r19	; 0x01
    1396:	4a 83       	std	Y+2, r20	; 0x02
    1398:	5b 83       	std	Y+3, r21	; 0x03
    139a:	c2 5d       	subi	r28, 0xD2	; 210
    139c:	d0 40       	sbci	r29, 0x00	; 0
    139e:	10 c0       	rjmp	.+32     	; 0x13c0 <main+0x336>
    13a0:	ca 54       	subi	r28, 0x4A	; 74
    13a2:	df 4f       	sbci	r29, 0xFF	; 255
    13a4:	88 80       	ld	r8, Y
    13a6:	99 80       	ldd	r9, Y+1	; 0x01
    13a8:	aa 80       	ldd	r10, Y+2	; 0x02
    13aa:	bb 80       	ldd	r11, Y+3	; 0x03
    13ac:	c6 5b       	subi	r28, 0xB6	; 182
    13ae:	d0 40       	sbci	r29, 0x00	; 0
    13b0:	ca 54       	subi	r28, 0x4A	; 74
    13b2:	df 4f       	sbci	r29, 0xFF	; 255
    13b4:	88 82       	st	Y, r8
    13b6:	99 82       	std	Y+1, r9	; 0x01
    13b8:	aa 82       	std	Y+2, r10	; 0x02
    13ba:	bb 82       	std	Y+3, r11	; 0x03
    13bc:	c6 5b       	subi	r28, 0xB6	; 182
    13be:	d0 40       	sbci	r29, 0x00	; 0
    13c0:	80 e4       	ldi	r24, 0x40	; 64
    13c2:	9c e9       	ldi	r25, 0x9C	; 156
    13c4:	01 97       	sbiw	r24, 0x01	; 1
    13c6:	f1 f7       	brne	.-4      	; 0x13c4 <main+0x33a>
    13c8:	08 94       	sec
    13ca:	21 1c       	adc	r2, r1
    13cc:	31 1c       	adc	r3, r1
    13ce:	0e 94 29 06 	call	0xc52	; 0xc52 <ldr_read>
    13d2:	8b 81       	ldd	r24, Y+3	; 0x03
    13d4:	88 23       	and	r24, r24
    13d6:	19 f4       	brne	.+6      	; 0x13de <main+0x354>
    13d8:	bb 24       	eor	r11, r11
    13da:	ba 94       	dec	r11
    13dc:	09 c0       	rjmp	.+18     	; 0x13f0 <main+0x366>
    13de:	0e 94 1e 06 	call	0xc3c	; 0xc3c <ldr_get_brightness>
    13e2:	b8 2e       	mov	r11, r24
    13e4:	7f e3       	ldi	r23, 0x3F	; 63
    13e6:	78 17       	cp	r23, r24
    13e8:	18 f0       	brcs	.+6      	; 0x13f0 <main+0x366>
    13ea:	b6 94       	lsr	r11
    13ec:	80 e2       	ldi	r24, 0x20	; 32
    13ee:	b8 0e       	add	r11, r24
    13f0:	8b 2d       	mov	r24, r11
    13f2:	c0 54       	subi	r28, 0x40	; 64
    13f4:	df 4f       	sbci	r29, 0xFF	; 255
    13f6:	68 81       	ld	r22, Y
    13f8:	c0 5c       	subi	r28, 0xC0	; 192
    13fa:	d0 40       	sbci	r29, 0x00	; 0
    13fc:	c2 54       	subi	r28, 0x42	; 66
    13fe:	df 4f       	sbci	r29, 0xFF	; 255
    1400:	48 81       	ld	r20, Y
    1402:	ce 5b       	subi	r28, 0xBE	; 190
    1404:	d0 40       	sbci	r29, 0x00	; 0
    1406:	c4 54       	subi	r28, 0x44	; 68
    1408:	df 4f       	sbci	r29, 0xFF	; 255
    140a:	28 81       	ld	r18, Y
    140c:	cc 5b       	subi	r28, 0xBC	; 188
    140e:	d0 40       	sbci	r29, 0x00	; 0
    1410:	0e 94 63 06 	call	0xcc6	; 0xcc6 <SetColor>
    1414:	c1 01       	movw	r24, r2
    1416:	6a e0       	ldi	r22, 0x0A	; 10
    1418:	70 e0       	ldi	r23, 0x00	; 0
    141a:	0e 94 cc 10 	call	0x2198	; 0x2198 <__divmodhi4>
    141e:	89 2b       	or	r24, r25
    1420:	09 f0       	breq	.+2      	; 0x1424 <main+0x39a>
    1422:	be cf       	rjmp	.-132    	; 0x13a0 <main+0x316>
    1424:	80 91 d8 03 	lds	r24, 0x03D8
    1428:	88 23       	and	r24, r24
    142a:	09 f4       	brne	.+2      	; 0x142e <main+0x3a4>
    142c:	2e c3       	rjmp	.+1628   	; 0x1a8a <main+0xa00>
    142e:	80 91 f8 02 	lds	r24, 0x02F8
    1432:	82 36       	cpi	r24, 0x62	; 98
    1434:	59 f1       	breq	.+86     	; 0x148c <main+0x402>
    1436:	83 36       	cpi	r24, 0x63	; 99
    1438:	b0 f4       	brcc	.+44     	; 0x1466 <main+0x3dc>
    143a:	84 34       	cpi	r24, 0x44	; 68
    143c:	09 f4       	brne	.+2      	; 0x1440 <main+0x3b6>
    143e:	fb c1       	rjmp	.+1014   	; 0x1836 <main+0x7ac>
    1440:	85 34       	cpi	r24, 0x45	; 69
    1442:	50 f4       	brcc	.+20     	; 0x1458 <main+0x3ce>
    1444:	8d 32       	cpi	r24, 0x2D	; 45
    1446:	09 f4       	brne	.+2      	; 0x144a <main+0x3c0>
    1448:	bf c1       	rjmp	.+894    	; 0x17c8 <main+0x73e>
    144a:	8f 33       	cpi	r24, 0x3F	; 63
    144c:	09 f4       	brne	.+2      	; 0x1450 <main+0x3c6>
    144e:	02 c3       	rjmp	.+1540   	; 0x1a54 <main+0x9ca>
    1450:	8b 32       	cpi	r24, 0x2B	; 43
    1452:	09 f0       	breq	.+2      	; 0x1456 <main+0x3cc>
    1454:	cb c2       	rjmp	.+1430   	; 0x19ec <main+0x962>
    1456:	ad c1       	rjmp	.+858    	; 0x17b2 <main+0x728>
    1458:	8d 34       	cpi	r24, 0x4D	; 77
    145a:	09 f4       	brne	.+2      	; 0x145e <main+0x3d4>
    145c:	35 c2       	rjmp	.+1130   	; 0x18c8 <main+0x83e>
    145e:	89 35       	cpi	r24, 0x59	; 89
    1460:	09 f0       	breq	.+2      	; 0x1464 <main+0x3da>
    1462:	c4 c2       	rjmp	.+1416   	; 0x19ec <main+0x962>
    1464:	7a c2       	rjmp	.+1268   	; 0x195a <main+0x8d0>
    1466:	8d 36       	cpi	r24, 0x6D	; 109
    1468:	09 f4       	brne	.+2      	; 0x146c <main+0x3e2>
    146a:	9c c1       	rjmp	.+824    	; 0x17a4 <main+0x71a>
    146c:	8e 36       	cpi	r24, 0x6E	; 110
    146e:	38 f4       	brcc	.+14     	; 0x147e <main+0x3f4>
    1470:	83 36       	cpi	r24, 0x63	; 99
    1472:	09 f4       	brne	.+2      	; 0x1476 <main+0x3ec>
    1474:	bd c0       	rjmp	.+378    	; 0x15f0 <main+0x566>
    1476:	88 36       	cpi	r24, 0x68	; 104
    1478:	09 f0       	breq	.+2      	; 0x147c <main+0x3f2>
    147a:	b8 c2       	rjmp	.+1392   	; 0x19ec <main+0x962>
    147c:	47 c1       	rjmp	.+654    	; 0x170c <main+0x682>
    147e:	84 37       	cpi	r24, 0x74	; 116
    1480:	09 f4       	brne	.+2      	; 0x1484 <main+0x3fa>
    1482:	ea c0       	rjmp	.+468    	; 0x1658 <main+0x5ce>
    1484:	8a 37       	cpi	r24, 0x7A	; 122
    1486:	09 f0       	breq	.+2      	; 0x148a <main+0x400>
    1488:	b1 c2       	rjmp	.+1378   	; 0x19ec <main+0x962>
    148a:	f5 c0       	rjmp	.+490    	; 0x1676 <main+0x5ec>
    148c:	80 91 f9 02 	lds	r24, 0x02F9
    1490:	8b 32       	cpi	r24, 0x2B	; 43
    1492:	21 f0       	breq	.+8      	; 0x149c <main+0x412>
    1494:	8d 32       	cpi	r24, 0x2D	; 45
    1496:	09 f0       	breq	.+2      	; 0x149a <main+0x410>
    1498:	70 c0       	rjmp	.+224    	; 0x157a <main+0x4f0>
    149a:	38 c0       	rjmp	.+112    	; 0x150c <main+0x482>
    149c:	81 e0       	ldi	r24, 0x01	; 1
    149e:	8b 83       	std	Y+3, r24	; 0x03
    14a0:	82 e0       	ldi	r24, 0x02	; 2
    14a2:	61 e0       	ldi	r22, 0x01	; 1
    14a4:	0e 94 8b 05 	call	0xb16	; 0xb16 <save_byte>
    14a8:	8b 81       	ldd	r24, Y+3	; 0x03
    14aa:	88 23       	and	r24, r24
    14ac:	19 f4       	brne	.+6      	; 0x14b4 <main+0x42a>
    14ae:	24 ea       	ldi	r18, 0xA4	; 164
    14b0:	31 e0       	ldi	r19, 0x01	; 1
    14b2:	02 c0       	rjmp	.+4      	; 0x14b8 <main+0x42e>
    14b4:	2d ea       	ldi	r18, 0xAD	; 173
    14b6:	31 e0       	ldi	r19, 0x01	; 1
    14b8:	00 d0       	rcall	.+0      	; 0x14ba <main+0x430>
    14ba:	00 d0       	rcall	.+0      	; 0x14bc <main+0x432>
    14bc:	00 d0       	rcall	.+0      	; 0x14be <main+0x434>
    14be:	ed b7       	in	r30, 0x3d	; 61
    14c0:	fe b7       	in	r31, 0x3e	; 62
    14c2:	31 96       	adiw	r30, 0x01	; 1
    14c4:	8e 01       	movw	r16, r28
    14c6:	00 5b       	subi	r16, 0xB0	; 176
    14c8:	1f 4f       	sbci	r17, 0xFF	; 255
    14ca:	ad b7       	in	r26, 0x3d	; 61
    14cc:	be b7       	in	r27, 0x3e	; 62
    14ce:	12 96       	adiw	r26, 0x02	; 2
    14d0:	1c 93       	st	X, r17
    14d2:	0e 93       	st	-X, r16
    14d4:	11 97       	sbiw	r26, 0x01	; 1
    14d6:	84 eb       	ldi	r24, 0xB4	; 180
    14d8:	91 e0       	ldi	r25, 0x01	; 1
    14da:	93 83       	std	Z+3, r25	; 0x03
    14dc:	82 83       	std	Z+2, r24	; 0x02
    14de:	35 83       	std	Z+5, r19	; 0x05
    14e0:	24 83       	std	Z+4, r18	; 0x04
    14e2:	0e 94 1c 11 	call	0x2238	; 0x2238 <sprintf>
    14e6:	f8 01       	movw	r30, r16
    14e8:	0d b7       	in	r16, 0x3d	; 61
    14ea:	1e b7       	in	r17, 0x3e	; 62
    14ec:	0a 5f       	subi	r16, 0xFA	; 250
    14ee:	1f 4f       	sbci	r17, 0xFF	; 255
    14f0:	0f b6       	in	r0, 0x3f	; 63
    14f2:	f8 94       	cli
    14f4:	1e bf       	out	0x3e, r17	; 62
    14f6:	0f be       	out	0x3f, r0	; 63
    14f8:	0d bf       	out	0x3d, r16	; 61
    14fa:	04 c0       	rjmp	.+8      	; 0x1504 <main+0x47a>
    14fc:	5d 9b       	sbis	0x0b, 5	; 11
    14fe:	fe cf       	rjmp	.-4      	; 0x14fc <main+0x472>
    1500:	8c b9       	out	0x0c, r24	; 12
    1502:	31 96       	adiw	r30, 0x01	; 1
    1504:	80 81       	ld	r24, Z
    1506:	88 23       	and	r24, r24
    1508:	c9 f7       	brne	.-14     	; 0x14fc <main+0x472>
    150a:	a4 c2       	rjmp	.+1352   	; 0x1a54 <main+0x9ca>
    150c:	1b 82       	std	Y+3, r1	; 0x03
    150e:	82 e0       	ldi	r24, 0x02	; 2
    1510:	60 e0       	ldi	r22, 0x00	; 0
    1512:	0e 94 8b 05 	call	0xb16	; 0xb16 <save_byte>
    1516:	8b 81       	ldd	r24, Y+3	; 0x03
    1518:	88 23       	and	r24, r24
    151a:	19 f4       	brne	.+6      	; 0x1522 <main+0x498>
    151c:	24 ea       	ldi	r18, 0xA4	; 164
    151e:	31 e0       	ldi	r19, 0x01	; 1
    1520:	02 c0       	rjmp	.+4      	; 0x1526 <main+0x49c>
    1522:	2d ea       	ldi	r18, 0xAD	; 173
    1524:	31 e0       	ldi	r19, 0x01	; 1
    1526:	00 d0       	rcall	.+0      	; 0x1528 <main+0x49e>
    1528:	00 d0       	rcall	.+0      	; 0x152a <main+0x4a0>
    152a:	00 d0       	rcall	.+0      	; 0x152c <main+0x4a2>
    152c:	ed b7       	in	r30, 0x3d	; 61
    152e:	fe b7       	in	r31, 0x3e	; 62
    1530:	31 96       	adiw	r30, 0x01	; 1
    1532:	8e 01       	movw	r16, r28
    1534:	00 5b       	subi	r16, 0xB0	; 176
    1536:	1f 4f       	sbci	r17, 0xFF	; 255
    1538:	ad b7       	in	r26, 0x3d	; 61
    153a:	be b7       	in	r27, 0x3e	; 62
    153c:	12 96       	adiw	r26, 0x02	; 2
    153e:	1c 93       	st	X, r17
    1540:	0e 93       	st	-X, r16
    1542:	11 97       	sbiw	r26, 0x01	; 1
    1544:	84 eb       	ldi	r24, 0xB4	; 180
    1546:	91 e0       	ldi	r25, 0x01	; 1
    1548:	93 83       	std	Z+3, r25	; 0x03
    154a:	82 83       	std	Z+2, r24	; 0x02
    154c:	35 83       	std	Z+5, r19	; 0x05
    154e:	24 83       	std	Z+4, r18	; 0x04
    1550:	0e 94 1c 11 	call	0x2238	; 0x2238 <sprintf>
    1554:	f8 01       	movw	r30, r16
    1556:	0d b7       	in	r16, 0x3d	; 61
    1558:	1e b7       	in	r17, 0x3e	; 62
    155a:	0a 5f       	subi	r16, 0xFA	; 250
    155c:	1f 4f       	sbci	r17, 0xFF	; 255
    155e:	0f b6       	in	r0, 0x3f	; 63
    1560:	f8 94       	cli
    1562:	1e bf       	out	0x3e, r17	; 62
    1564:	0f be       	out	0x3f, r0	; 63
    1566:	0d bf       	out	0x3d, r16	; 61
    1568:	04 c0       	rjmp	.+8      	; 0x1572 <main+0x4e8>
    156a:	5d 9b       	sbis	0x0b, 5	; 11
    156c:	fe cf       	rjmp	.-4      	; 0x156a <main+0x4e0>
    156e:	8c b9       	out	0x0c, r24	; 12
    1570:	31 96       	adiw	r30, 0x01	; 1
    1572:	80 81       	ld	r24, Z
    1574:	88 23       	and	r24, r24
    1576:	c9 f7       	brne	.-14     	; 0x156a <main+0x4e0>
    1578:	6d c2       	rjmp	.+1242   	; 0x1a54 <main+0x9ca>
    157a:	60 e0       	ldi	r22, 0x00	; 0
    157c:	8b 81       	ldd	r24, Y+3	; 0x03
    157e:	88 23       	and	r24, r24
    1580:	09 f4       	brne	.+2      	; 0x1584 <main+0x4fa>
    1582:	61 e0       	ldi	r22, 0x01	; 1
    1584:	6b 83       	std	Y+3, r22	; 0x03
    1586:	82 e0       	ldi	r24, 0x02	; 2
    1588:	0e 94 8b 05 	call	0xb16	; 0xb16 <save_byte>
    158c:	8b 81       	ldd	r24, Y+3	; 0x03
    158e:	88 23       	and	r24, r24
    1590:	19 f4       	brne	.+6      	; 0x1598 <main+0x50e>
    1592:	24 ea       	ldi	r18, 0xA4	; 164
    1594:	31 e0       	ldi	r19, 0x01	; 1
    1596:	02 c0       	rjmp	.+4      	; 0x159c <main+0x512>
    1598:	2d ea       	ldi	r18, 0xAD	; 173
    159a:	31 e0       	ldi	r19, 0x01	; 1
    159c:	00 d0       	rcall	.+0      	; 0x159e <main+0x514>
    159e:	00 d0       	rcall	.+0      	; 0x15a0 <main+0x516>
    15a0:	00 d0       	rcall	.+0      	; 0x15a2 <main+0x518>
    15a2:	ed b7       	in	r30, 0x3d	; 61
    15a4:	fe b7       	in	r31, 0x3e	; 62
    15a6:	31 96       	adiw	r30, 0x01	; 1
    15a8:	8e 01       	movw	r16, r28
    15aa:	00 5b       	subi	r16, 0xB0	; 176
    15ac:	1f 4f       	sbci	r17, 0xFF	; 255
    15ae:	ad b7       	in	r26, 0x3d	; 61
    15b0:	be b7       	in	r27, 0x3e	; 62
    15b2:	12 96       	adiw	r26, 0x02	; 2
    15b4:	1c 93       	st	X, r17
    15b6:	0e 93       	st	-X, r16
    15b8:	11 97       	sbiw	r26, 0x01	; 1
    15ba:	84 eb       	ldi	r24, 0xB4	; 180
    15bc:	91 e0       	ldi	r25, 0x01	; 1
    15be:	93 83       	std	Z+3, r25	; 0x03
    15c0:	82 83       	std	Z+2, r24	; 0x02
    15c2:	35 83       	std	Z+5, r19	; 0x05
    15c4:	24 83       	std	Z+4, r18	; 0x04
    15c6:	0e 94 1c 11 	call	0x2238	; 0x2238 <sprintf>
    15ca:	f8 01       	movw	r30, r16
    15cc:	0d b7       	in	r16, 0x3d	; 61
    15ce:	1e b7       	in	r17, 0x3e	; 62
    15d0:	0a 5f       	subi	r16, 0xFA	; 250
    15d2:	1f 4f       	sbci	r17, 0xFF	; 255
    15d4:	0f b6       	in	r0, 0x3f	; 63
    15d6:	f8 94       	cli
    15d8:	1e bf       	out	0x3e, r17	; 62
    15da:	0f be       	out	0x3f, r0	; 63
    15dc:	0d bf       	out	0x3d, r16	; 61
    15de:	04 c0       	rjmp	.+8      	; 0x15e8 <main+0x55e>
    15e0:	5d 9b       	sbis	0x0b, 5	; 11
    15e2:	fe cf       	rjmp	.-4      	; 0x15e0 <main+0x556>
    15e4:	8c b9       	out	0x0c, r24	; 12
    15e6:	31 96       	adiw	r30, 0x01	; 1
    15e8:	80 81       	ld	r24, Z
    15ea:	88 23       	and	r24, r24
    15ec:	c9 f7       	brne	.-14     	; 0x15e0 <main+0x556>
    15ee:	32 c2       	rjmp	.+1124   	; 0x1a54 <main+0x9ca>
    15f0:	89 ef       	ldi	r24, 0xF9	; 249
    15f2:	92 e0       	ldi	r25, 0x02	; 2
    15f4:	0e 94 2c 07 	call	0xe58	; 0xe58 <hex2dez>
    15f8:	6c 01       	movw	r12, r24
    15fa:	8b ef       	ldi	r24, 0xFB	; 251
    15fc:	92 e0       	ldi	r25, 0x02	; 2
    15fe:	0e 94 2c 07 	call	0xe58	; 0xe58 <hex2dez>
    1602:	7c 01       	movw	r14, r24
    1604:	8d ef       	ldi	r24, 0xFD	; 253
    1606:	92 e0       	ldi	r25, 0x02	; 2
    1608:	0e 94 2c 07 	call	0xe58	; 0xe58 <hex2dez>
    160c:	8c 01       	movw	r16, r24
    160e:	d7 fc       	sbrc	r13, 7
    1610:	19 c2       	rjmp	.+1074   	; 0x1a44 <main+0x9ba>
    1612:	f7 fc       	sbrc	r15, 7
    1614:	17 c2       	rjmp	.+1070   	; 0x1a44 <main+0x9ba>
    1616:	97 fd       	sbrc	r25, 7
    1618:	15 c2       	rjmp	.+1066   	; 0x1a44 <main+0x9ba>
    161a:	8b 2d       	mov	r24, r11
    161c:	6c 2d       	mov	r22, r12
    161e:	4e 2d       	mov	r20, r14
    1620:	20 2f       	mov	r18, r16
    1622:	0e 94 63 06 	call	0xcc6	; 0xcc6 <SetColor>
    1626:	c0 54       	subi	r28, 0x40	; 64
    1628:	df 4f       	sbci	r29, 0xFF	; 255
    162a:	d9 82       	std	Y+1, r13	; 0x01
    162c:	c8 82       	st	Y, r12
    162e:	c0 5c       	subi	r28, 0xC0	; 192
    1630:	d0 40       	sbci	r29, 0x00	; 0
    1632:	c2 54       	subi	r28, 0x42	; 66
    1634:	df 4f       	sbci	r29, 0xFF	; 255
    1636:	f9 82       	std	Y+1, r15	; 0x01
    1638:	e8 82       	st	Y, r14
    163a:	ce 5b       	subi	r28, 0xBE	; 190
    163c:	d0 40       	sbci	r29, 0x00	; 0
    163e:	c4 54       	subi	r28, 0x44	; 68
    1640:	df 4f       	sbci	r29, 0xFF	; 255
    1642:	19 83       	std	Y+1, r17	; 0x01
    1644:	08 83       	st	Y, r16
    1646:	cc 5b       	subi	r28, 0xBC	; 188
    1648:	d0 40       	sbci	r29, 0x00	; 0
    164a:	c6 54       	subi	r28, 0x46	; 70
    164c:	df 4f       	sbci	r29, 0xFF	; 255
    164e:	19 82       	std	Y+1, r1	; 0x01
    1650:	18 82       	st	Y, r1
    1652:	ca 5b       	subi	r28, 0xBA	; 186
    1654:	d0 40       	sbci	r29, 0x00	; 0
    1656:	fe c1       	rjmp	.+1020   	; 0x1a54 <main+0x9ca>
    1658:	41 14       	cp	r4, r1
    165a:	51 04       	cpc	r5, r1
    165c:	61 04       	cpc	r6, r1
    165e:	71 04       	cpc	r7, r1
    1660:	31 f4       	brne	.+12     	; 0x166e <main+0x5e4>
    1662:	41 2c       	mov	r4, r1
    1664:	51 2c       	mov	r5, r1
    1666:	61 2c       	mov	r6, r1
    1668:	80 e8       	ldi	r24, 0x80	; 128
    166a:	78 2e       	mov	r7, r24
    166c:	f3 c1       	rjmp	.+998    	; 0x1a54 <main+0x9ca>
    166e:	44 24       	eor	r4, r4
    1670:	55 24       	eor	r5, r5
    1672:	32 01       	movw	r6, r4
    1674:	ef c1       	rjmp	.+990    	; 0x1a54 <main+0x9ca>
    1676:	80 91 f9 02 	lds	r24, 0x02F9
    167a:	8b 32       	cpi	r24, 0x2B	; 43
    167c:	19 f0       	breq	.+6      	; 0x1684 <main+0x5fa>
    167e:	8d 32       	cpi	r24, 0x2D	; 45
    1680:	c9 f4       	brne	.+50     	; 0x16b4 <main+0x62a>
    1682:	0b c0       	rjmp	.+22     	; 0x169a <main+0x610>
    1684:	80 91 91 03 	lds	r24, 0x0391
    1688:	8c 30       	cpi	r24, 0x0C	; 12
    168a:	1c f0       	brlt	.+6      	; 0x1692 <main+0x608>
    168c:	83 ef       	ldi	r24, 0xF3	; 243
    168e:	80 93 91 03 	sts	0x0391, r24
    1692:	80 91 91 03 	lds	r24, 0x0391
    1696:	8f 5f       	subi	r24, 0xFF	; 255
    1698:	0a c0       	rjmp	.+20     	; 0x16ae <main+0x624>
    169a:	80 91 91 03 	lds	r24, 0x0391
    169e:	8b 30       	cpi	r24, 0x0B	; 11
    16a0:	1c f4       	brge	.+6      	; 0x16a8 <main+0x61e>
    16a2:	8d e0       	ldi	r24, 0x0D	; 13
    16a4:	80 93 91 03 	sts	0x0391, r24
    16a8:	80 91 91 03 	lds	r24, 0x0391
    16ac:	81 50       	subi	r24, 0x01	; 1
    16ae:	0e 94 9c 05 	call	0xb38	; 0xb38 <set_offset>
    16b2:	d0 c1       	rjmp	.+928    	; 0x1a54 <main+0x9ca>
    16b4:	20 91 f9 02 	lds	r18, 0x02F9
    16b8:	00 d0       	rcall	.+0      	; 0x16ba <main+0x630>
    16ba:	00 d0       	rcall	.+0      	; 0x16bc <main+0x632>
    16bc:	00 d0       	rcall	.+0      	; 0x16be <main+0x634>
    16be:	ed b7       	in	r30, 0x3d	; 61
    16c0:	fe b7       	in	r31, 0x3e	; 62
    16c2:	31 96       	adiw	r30, 0x01	; 1
    16c4:	8e 01       	movw	r16, r28
    16c6:	00 5b       	subi	r16, 0xB0	; 176
    16c8:	1f 4f       	sbci	r17, 0xFF	; 255
    16ca:	ad b7       	in	r26, 0x3d	; 61
    16cc:	be b7       	in	r27, 0x3e	; 62
    16ce:	12 96       	adiw	r26, 0x02	; 2
    16d0:	1c 93       	st	X, r17
    16d2:	0e 93       	st	-X, r16
    16d4:	11 97       	sbiw	r26, 0x01	; 1
    16d6:	8f ec       	ldi	r24, 0xCF	; 207
    16d8:	91 e0       	ldi	r25, 0x01	; 1
    16da:	93 83       	std	Z+3, r25	; 0x03
    16dc:	82 83       	std	Z+2, r24	; 0x02
    16de:	24 83       	std	Z+4, r18	; 0x04
    16e0:	15 82       	std	Z+5, r1	; 0x05
    16e2:	0e 94 1c 11 	call	0x2238	; 0x2238 <sprintf>
    16e6:	f8 01       	movw	r30, r16
    16e8:	0d b7       	in	r16, 0x3d	; 61
    16ea:	1e b7       	in	r17, 0x3e	; 62
    16ec:	0a 5f       	subi	r16, 0xFA	; 250
    16ee:	1f 4f       	sbci	r17, 0xFF	; 255
    16f0:	0f b6       	in	r0, 0x3f	; 63
    16f2:	f8 94       	cli
    16f4:	1e bf       	out	0x3e, r17	; 62
    16f6:	0f be       	out	0x3f, r0	; 63
    16f8:	0d bf       	out	0x3d, r16	; 61
    16fa:	04 c0       	rjmp	.+8      	; 0x1704 <main+0x67a>
    16fc:	5d 9b       	sbis	0x0b, 5	; 11
    16fe:	fe cf       	rjmp	.-4      	; 0x16fc <main+0x672>
    1700:	8c b9       	out	0x0c, r24	; 12
    1702:	31 96       	adiw	r30, 0x01	; 1
    1704:	80 81       	ld	r24, Z
    1706:	88 23       	and	r24, r24
    1708:	c9 f7       	brne	.-14     	; 0x16fc <main+0x672>
    170a:	a4 c1       	rjmp	.+840    	; 0x1a54 <main+0x9ca>
    170c:	80 91 f9 02 	lds	r24, 0x02F9
    1710:	8b 32       	cpi	r24, 0x2B	; 43
    1712:	19 f0       	breq	.+6      	; 0x171a <main+0x690>
    1714:	8d 32       	cpi	r24, 0x2D	; 45
    1716:	d1 f4       	brne	.+52     	; 0x174c <main+0x6c2>
    1718:	0b c0       	rjmp	.+22     	; 0x1730 <main+0x6a6>
    171a:	8e 01       	movw	r16, r28
    171c:	0c 5f       	subi	r16, 0xFC	; 252
    171e:	1f 4f       	sbci	r17, 0xFF	; 255
    1720:	c8 01       	movw	r24, r16
    1722:	60 e0       	ldi	r22, 0x00	; 0
    1724:	0e 94 80 02 	call	0x500	; 0x500 <i2c_rtc_read>
    1728:	c8 01       	movw	r24, r16
    172a:	0e 94 07 02 	call	0x40e	; 0x40e <add_hour>
    172e:	0a c0       	rjmp	.+20     	; 0x1744 <main+0x6ba>
    1730:	8e 01       	movw	r16, r28
    1732:	0c 5f       	subi	r16, 0xFC	; 252
    1734:	1f 4f       	sbci	r17, 0xFF	; 255
    1736:	c8 01       	movw	r24, r16
    1738:	60 e0       	ldi	r22, 0x00	; 0
    173a:	0e 94 80 02 	call	0x500	; 0x500 <i2c_rtc_read>
    173e:	c8 01       	movw	r24, r16
    1740:	0e 94 12 02 	call	0x424	; 0x424 <sub_hour>
    1744:	c8 01       	movw	r24, r16
    1746:	0e 94 fb 04 	call	0x9f6	; 0x9f6 <i2c_rtc_write>
    174a:	84 c1       	rjmp	.+776    	; 0x1a54 <main+0x9ca>
    174c:	20 91 f9 02 	lds	r18, 0x02F9
    1750:	00 d0       	rcall	.+0      	; 0x1752 <main+0x6c8>
    1752:	00 d0       	rcall	.+0      	; 0x1754 <main+0x6ca>
    1754:	00 d0       	rcall	.+0      	; 0x1756 <main+0x6cc>
    1756:	ed b7       	in	r30, 0x3d	; 61
    1758:	fe b7       	in	r31, 0x3e	; 62
    175a:	31 96       	adiw	r30, 0x01	; 1
    175c:	8e 01       	movw	r16, r28
    175e:	00 5b       	subi	r16, 0xB0	; 176
    1760:	1f 4f       	sbci	r17, 0xFF	; 255
    1762:	ad b7       	in	r26, 0x3d	; 61
    1764:	be b7       	in	r27, 0x3e	; 62
    1766:	12 96       	adiw	r26, 0x02	; 2
    1768:	1c 93       	st	X, r17
    176a:	0e 93       	st	-X, r16
    176c:	11 97       	sbiw	r26, 0x01	; 1
    176e:	81 ef       	ldi	r24, 0xF1	; 241
    1770:	91 e0       	ldi	r25, 0x01	; 1
    1772:	93 83       	std	Z+3, r25	; 0x03
    1774:	82 83       	std	Z+2, r24	; 0x02
    1776:	24 83       	std	Z+4, r18	; 0x04
    1778:	15 82       	std	Z+5, r1	; 0x05
    177a:	0e 94 1c 11 	call	0x2238	; 0x2238 <sprintf>
    177e:	f8 01       	movw	r30, r16
    1780:	0d b7       	in	r16, 0x3d	; 61
    1782:	1e b7       	in	r17, 0x3e	; 62
    1784:	0a 5f       	subi	r16, 0xFA	; 250
    1786:	1f 4f       	sbci	r17, 0xFF	; 255
    1788:	0f b6       	in	r0, 0x3f	; 63
    178a:	f8 94       	cli
    178c:	1e bf       	out	0x3e, r17	; 62
    178e:	0f be       	out	0x3f, r0	; 63
    1790:	0d bf       	out	0x3d, r16	; 61
    1792:	04 c0       	rjmp	.+8      	; 0x179c <main+0x712>
    1794:	5d 9b       	sbis	0x0b, 5	; 11
    1796:	fe cf       	rjmp	.-4      	; 0x1794 <main+0x70a>
    1798:	8c b9       	out	0x0c, r24	; 12
    179a:	31 96       	adiw	r30, 0x01	; 1
    179c:	80 81       	ld	r24, Z
    179e:	88 23       	and	r24, r24
    17a0:	c9 f7       	brne	.-14     	; 0x1794 <main+0x70a>
    17a2:	58 c1       	rjmp	.+688    	; 0x1a54 <main+0x9ca>
    17a4:	80 91 f9 02 	lds	r24, 0x02F9
    17a8:	8b 32       	cpi	r24, 0x2B	; 43
    17aa:	19 f0       	breq	.+6      	; 0x17b2 <main+0x728>
    17ac:	8d 32       	cpi	r24, 0x2D	; 45
    17ae:	b9 f4       	brne	.+46     	; 0x17de <main+0x754>
    17b0:	0b c0       	rjmp	.+22     	; 0x17c8 <main+0x73e>
    17b2:	8e 01       	movw	r16, r28
    17b4:	0c 5f       	subi	r16, 0xFC	; 252
    17b6:	1f 4f       	sbci	r17, 0xFF	; 255
    17b8:	c8 01       	movw	r24, r16
    17ba:	60 e0       	ldi	r22, 0x00	; 0
    17bc:	0e 94 80 02 	call	0x500	; 0x500 <i2c_rtc_read>
    17c0:	c8 01       	movw	r24, r16
    17c2:	0e 94 1f 02 	call	0x43e	; 0x43e <add_minute>
    17c6:	be cf       	rjmp	.-132    	; 0x1744 <main+0x6ba>
    17c8:	8e 01       	movw	r16, r28
    17ca:	0c 5f       	subi	r16, 0xFC	; 252
    17cc:	1f 4f       	sbci	r17, 0xFF	; 255
    17ce:	c8 01       	movw	r24, r16
    17d0:	60 e0       	ldi	r22, 0x00	; 0
    17d2:	0e 94 80 02 	call	0x500	; 0x500 <i2c_rtc_read>
    17d6:	c8 01       	movw	r24, r16
    17d8:	0e 94 2a 02 	call	0x454	; 0x454 <sub_minute>
    17dc:	b3 cf       	rjmp	.-154    	; 0x1744 <main+0x6ba>
    17de:	20 91 f9 02 	lds	r18, 0x02F9
    17e2:	00 d0       	rcall	.+0      	; 0x17e4 <main+0x75a>
    17e4:	00 d0       	rcall	.+0      	; 0x17e6 <main+0x75c>
    17e6:	00 d0       	rcall	.+0      	; 0x17e8 <main+0x75e>
    17e8:	ed b7       	in	r30, 0x3d	; 61
    17ea:	fe b7       	in	r31, 0x3e	; 62
    17ec:	31 96       	adiw	r30, 0x01	; 1
    17ee:	8e 01       	movw	r16, r28
    17f0:	00 5b       	subi	r16, 0xB0	; 176
    17f2:	1f 4f       	sbci	r17, 0xFF	; 255
    17f4:	ad b7       	in	r26, 0x3d	; 61
    17f6:	be b7       	in	r27, 0x3e	; 62
    17f8:	12 96       	adiw	r26, 0x02	; 2
    17fa:	1c 93       	st	X, r17
    17fc:	0e 93       	st	-X, r16
    17fe:	11 97       	sbiw	r26, 0x01	; 1
    1800:	83 e1       	ldi	r24, 0x13	; 19
    1802:	92 e0       	ldi	r25, 0x02	; 2
    1804:	93 83       	std	Z+3, r25	; 0x03
    1806:	82 83       	std	Z+2, r24	; 0x02
    1808:	24 83       	std	Z+4, r18	; 0x04
    180a:	15 82       	std	Z+5, r1	; 0x05
    180c:	0e 94 1c 11 	call	0x2238	; 0x2238 <sprintf>
    1810:	f8 01       	movw	r30, r16
    1812:	0d b7       	in	r16, 0x3d	; 61
    1814:	1e b7       	in	r17, 0x3e	; 62
    1816:	0a 5f       	subi	r16, 0xFA	; 250
    1818:	1f 4f       	sbci	r17, 0xFF	; 255
    181a:	0f b6       	in	r0, 0x3f	; 63
    181c:	f8 94       	cli
    181e:	1e bf       	out	0x3e, r17	; 62
    1820:	0f be       	out	0x3f, r0	; 63
    1822:	0d bf       	out	0x3d, r16	; 61
    1824:	04 c0       	rjmp	.+8      	; 0x182e <main+0x7a4>
    1826:	5d 9b       	sbis	0x0b, 5	; 11
    1828:	fe cf       	rjmp	.-4      	; 0x1826 <main+0x79c>
    182a:	8c b9       	out	0x0c, r24	; 12
    182c:	31 96       	adiw	r30, 0x01	; 1
    182e:	80 81       	ld	r24, Z
    1830:	88 23       	and	r24, r24
    1832:	c9 f7       	brne	.-14     	; 0x1826 <main+0x79c>
    1834:	0f c1       	rjmp	.+542    	; 0x1a54 <main+0x9ca>
    1836:	80 91 f9 02 	lds	r24, 0x02F9
    183a:	8b 32       	cpi	r24, 0x2B	; 43
    183c:	19 f0       	breq	.+6      	; 0x1844 <main+0x7ba>
    183e:	8d 32       	cpi	r24, 0x2D	; 45
    1840:	b9 f4       	brne	.+46     	; 0x1870 <main+0x7e6>
    1842:	0b c0       	rjmp	.+22     	; 0x185a <main+0x7d0>
    1844:	8e 01       	movw	r16, r28
    1846:	0c 5f       	subi	r16, 0xFC	; 252
    1848:	1f 4f       	sbci	r17, 0xFF	; 255
    184a:	c8 01       	movw	r24, r16
    184c:	60 e0       	ldi	r22, 0x00	; 0
    184e:	0e 94 80 02 	call	0x500	; 0x500 <i2c_rtc_read>
    1852:	c8 01       	movw	r24, r16
    1854:	0e 94 99 01 	call	0x332	; 0x332 <add_day>
    1858:	75 cf       	rjmp	.-278    	; 0x1744 <main+0x6ba>
    185a:	8e 01       	movw	r16, r28
    185c:	0c 5f       	subi	r16, 0xFC	; 252
    185e:	1f 4f       	sbci	r17, 0xFF	; 255
    1860:	c8 01       	movw	r24, r16
    1862:	60 e0       	ldi	r22, 0x00	; 0
    1864:	0e 94 80 02 	call	0x500	; 0x500 <i2c_rtc_read>
    1868:	c8 01       	movw	r24, r16
    186a:	0e 94 cd 01 	call	0x39a	; 0x39a <sub_day>
    186e:	6a cf       	rjmp	.-300    	; 0x1744 <main+0x6ba>
    1870:	20 91 f9 02 	lds	r18, 0x02F9
    1874:	00 d0       	rcall	.+0      	; 0x1876 <main+0x7ec>
    1876:	00 d0       	rcall	.+0      	; 0x1878 <main+0x7ee>
    1878:	00 d0       	rcall	.+0      	; 0x187a <main+0x7f0>
    187a:	ed b7       	in	r30, 0x3d	; 61
    187c:	fe b7       	in	r31, 0x3e	; 62
    187e:	31 96       	adiw	r30, 0x01	; 1
    1880:	8e 01       	movw	r16, r28
    1882:	00 5b       	subi	r16, 0xB0	; 176
    1884:	1f 4f       	sbci	r17, 0xFF	; 255
    1886:	ad b7       	in	r26, 0x3d	; 61
    1888:	be b7       	in	r27, 0x3e	; 62
    188a:	12 96       	adiw	r26, 0x02	; 2
    188c:	1c 93       	st	X, r17
    188e:	0e 93       	st	-X, r16
    1890:	11 97       	sbiw	r26, 0x01	; 1
    1892:	85 e3       	ldi	r24, 0x35	; 53
    1894:	92 e0       	ldi	r25, 0x02	; 2
    1896:	93 83       	std	Z+3, r25	; 0x03
    1898:	82 83       	std	Z+2, r24	; 0x02
    189a:	24 83       	std	Z+4, r18	; 0x04
    189c:	15 82       	std	Z+5, r1	; 0x05
    189e:	0e 94 1c 11 	call	0x2238	; 0x2238 <sprintf>
    18a2:	f8 01       	movw	r30, r16
    18a4:	0d b7       	in	r16, 0x3d	; 61
    18a6:	1e b7       	in	r17, 0x3e	; 62
    18a8:	0a 5f       	subi	r16, 0xFA	; 250
    18aa:	1f 4f       	sbci	r17, 0xFF	; 255
    18ac:	0f b6       	in	r0, 0x3f	; 63
    18ae:	f8 94       	cli
    18b0:	1e bf       	out	0x3e, r17	; 62
    18b2:	0f be       	out	0x3f, r0	; 63
    18b4:	0d bf       	out	0x3d, r16	; 61
    18b6:	04 c0       	rjmp	.+8      	; 0x18c0 <main+0x836>
    18b8:	5d 9b       	sbis	0x0b, 5	; 11
    18ba:	fe cf       	rjmp	.-4      	; 0x18b8 <main+0x82e>
    18bc:	8c b9       	out	0x0c, r24	; 12
    18be:	31 96       	adiw	r30, 0x01	; 1
    18c0:	80 81       	ld	r24, Z
    18c2:	88 23       	and	r24, r24
    18c4:	c9 f7       	brne	.-14     	; 0x18b8 <main+0x82e>
    18c6:	c6 c0       	rjmp	.+396    	; 0x1a54 <main+0x9ca>
    18c8:	80 91 f9 02 	lds	r24, 0x02F9
    18cc:	8b 32       	cpi	r24, 0x2B	; 43
    18ce:	19 f0       	breq	.+6      	; 0x18d6 <main+0x84c>
    18d0:	8d 32       	cpi	r24, 0x2D	; 45
    18d2:	b9 f4       	brne	.+46     	; 0x1902 <main+0x878>
    18d4:	0b c0       	rjmp	.+22     	; 0x18ec <main+0x862>
    18d6:	8e 01       	movw	r16, r28
    18d8:	0c 5f       	subi	r16, 0xFC	; 252
    18da:	1f 4f       	sbci	r17, 0xFF	; 255
    18dc:	c8 01       	movw	r24, r16
    18de:	60 e0       	ldi	r22, 0x00	; 0
    18e0:	0e 94 80 02 	call	0x500	; 0x500 <i2c_rtc_read>
    18e4:	c8 01       	movw	r24, r16
    18e6:	0e 94 81 01 	call	0x302	; 0x302 <add_month>
    18ea:	2c cf       	rjmp	.-424    	; 0x1744 <main+0x6ba>
    18ec:	8e 01       	movw	r16, r28
    18ee:	0c 5f       	subi	r16, 0xFC	; 252
    18f0:	1f 4f       	sbci	r17, 0xFF	; 255
    18f2:	c8 01       	movw	r24, r16
    18f4:	60 e0       	ldi	r22, 0x00	; 0
    18f6:	0e 94 80 02 	call	0x500	; 0x500 <i2c_rtc_read>
    18fa:	c8 01       	movw	r24, r16
    18fc:	0e 94 8d 01 	call	0x31a	; 0x31a <sub_month>
    1900:	21 cf       	rjmp	.-446    	; 0x1744 <main+0x6ba>
    1902:	20 91 f9 02 	lds	r18, 0x02F9
    1906:	00 d0       	rcall	.+0      	; 0x1908 <main+0x87e>
    1908:	00 d0       	rcall	.+0      	; 0x190a <main+0x880>
    190a:	00 d0       	rcall	.+0      	; 0x190c <main+0x882>
    190c:	ed b7       	in	r30, 0x3d	; 61
    190e:	fe b7       	in	r31, 0x3e	; 62
    1910:	31 96       	adiw	r30, 0x01	; 1
    1912:	8e 01       	movw	r16, r28
    1914:	00 5b       	subi	r16, 0xB0	; 176
    1916:	1f 4f       	sbci	r17, 0xFF	; 255
    1918:	ad b7       	in	r26, 0x3d	; 61
    191a:	be b7       	in	r27, 0x3e	; 62
    191c:	12 96       	adiw	r26, 0x02	; 2
    191e:	1c 93       	st	X, r17
    1920:	0e 93       	st	-X, r16
    1922:	11 97       	sbiw	r26, 0x01	; 1
    1924:	87 e5       	ldi	r24, 0x57	; 87
    1926:	92 e0       	ldi	r25, 0x02	; 2
    1928:	93 83       	std	Z+3, r25	; 0x03
    192a:	82 83       	std	Z+2, r24	; 0x02
    192c:	24 83       	std	Z+4, r18	; 0x04
    192e:	15 82       	std	Z+5, r1	; 0x05
    1930:	0e 94 1c 11 	call	0x2238	; 0x2238 <sprintf>
    1934:	f8 01       	movw	r30, r16
    1936:	0d b7       	in	r16, 0x3d	; 61
    1938:	1e b7       	in	r17, 0x3e	; 62
    193a:	0a 5f       	subi	r16, 0xFA	; 250
    193c:	1f 4f       	sbci	r17, 0xFF	; 255
    193e:	0f b6       	in	r0, 0x3f	; 63
    1940:	f8 94       	cli
    1942:	1e bf       	out	0x3e, r17	; 62
    1944:	0f be       	out	0x3f, r0	; 63
    1946:	0d bf       	out	0x3d, r16	; 61
    1948:	04 c0       	rjmp	.+8      	; 0x1952 <main+0x8c8>
    194a:	5d 9b       	sbis	0x0b, 5	; 11
    194c:	fe cf       	rjmp	.-4      	; 0x194a <main+0x8c0>
    194e:	8c b9       	out	0x0c, r24	; 12
    1950:	31 96       	adiw	r30, 0x01	; 1
    1952:	80 81       	ld	r24, Z
    1954:	88 23       	and	r24, r24
    1956:	c9 f7       	brne	.-14     	; 0x194a <main+0x8c0>
    1958:	7d c0       	rjmp	.+250    	; 0x1a54 <main+0x9ca>
    195a:	80 91 f9 02 	lds	r24, 0x02F9
    195e:	8b 32       	cpi	r24, 0x2B	; 43
    1960:	19 f0       	breq	.+6      	; 0x1968 <main+0x8de>
    1962:	8d 32       	cpi	r24, 0x2D	; 45
    1964:	b9 f4       	brne	.+46     	; 0x1994 <main+0x90a>
    1966:	0b c0       	rjmp	.+22     	; 0x197e <main+0x8f4>
    1968:	8e 01       	movw	r16, r28
    196a:	0c 5f       	subi	r16, 0xFC	; 252
    196c:	1f 4f       	sbci	r17, 0xFF	; 255
    196e:	c8 01       	movw	r24, r16
    1970:	60 e0       	ldi	r22, 0x00	; 0
    1972:	0e 94 80 02 	call	0x500	; 0x500 <i2c_rtc_read>
    1976:	c8 01       	movw	r24, r16
    1978:	0e 94 77 01 	call	0x2ee	; 0x2ee <add_year>
    197c:	e3 ce       	rjmp	.-570    	; 0x1744 <main+0x6ba>
    197e:	8e 01       	movw	r16, r28
    1980:	0c 5f       	subi	r16, 0xFC	; 252
    1982:	1f 4f       	sbci	r17, 0xFF	; 255
    1984:	c8 01       	movw	r24, r16
    1986:	60 e0       	ldi	r22, 0x00	; 0
    1988:	0e 94 80 02 	call	0x500	; 0x500 <i2c_rtc_read>
    198c:	c8 01       	movw	r24, r16
    198e:	0e 94 7c 01 	call	0x2f8	; 0x2f8 <sub_year>
    1992:	d8 ce       	rjmp	.-592    	; 0x1744 <main+0x6ba>
    1994:	20 91 f9 02 	lds	r18, 0x02F9
    1998:	00 d0       	rcall	.+0      	; 0x199a <main+0x910>
    199a:	00 d0       	rcall	.+0      	; 0x199c <main+0x912>
    199c:	00 d0       	rcall	.+0      	; 0x199e <main+0x914>
    199e:	ed b7       	in	r30, 0x3d	; 61
    19a0:	fe b7       	in	r31, 0x3e	; 62
    19a2:	31 96       	adiw	r30, 0x01	; 1
    19a4:	8e 01       	movw	r16, r28
    19a6:	00 5b       	subi	r16, 0xB0	; 176
    19a8:	1f 4f       	sbci	r17, 0xFF	; 255
    19aa:	ad b7       	in	r26, 0x3d	; 61
    19ac:	be b7       	in	r27, 0x3e	; 62
    19ae:	12 96       	adiw	r26, 0x02	; 2
    19b0:	1c 93       	st	X, r17
    19b2:	0e 93       	st	-X, r16
    19b4:	11 97       	sbiw	r26, 0x01	; 1
    19b6:	89 e7       	ldi	r24, 0x79	; 121
    19b8:	92 e0       	ldi	r25, 0x02	; 2
    19ba:	93 83       	std	Z+3, r25	; 0x03
    19bc:	82 83       	std	Z+2, r24	; 0x02
    19be:	24 83       	std	Z+4, r18	; 0x04
    19c0:	15 82       	std	Z+5, r1	; 0x05
    19c2:	0e 94 1c 11 	call	0x2238	; 0x2238 <sprintf>
    19c6:	f8 01       	movw	r30, r16
    19c8:	0d b7       	in	r16, 0x3d	; 61
    19ca:	1e b7       	in	r17, 0x3e	; 62
    19cc:	0a 5f       	subi	r16, 0xFA	; 250
    19ce:	1f 4f       	sbci	r17, 0xFF	; 255
    19d0:	0f b6       	in	r0, 0x3f	; 63
    19d2:	f8 94       	cli
    19d4:	1e bf       	out	0x3e, r17	; 62
    19d6:	0f be       	out	0x3f, r0	; 63
    19d8:	0d bf       	out	0x3d, r16	; 61
    19da:	04 c0       	rjmp	.+8      	; 0x19e4 <main+0x95a>
    19dc:	5d 9b       	sbis	0x0b, 5	; 11
    19de:	fe cf       	rjmp	.-4      	; 0x19dc <main+0x952>
    19e0:	8c b9       	out	0x0c, r24	; 12
    19e2:	31 96       	adiw	r30, 0x01	; 1
    19e4:	80 81       	ld	r24, Z
    19e6:	88 23       	and	r24, r24
    19e8:	c9 f7       	brne	.-14     	; 0x19dc <main+0x952>
    19ea:	34 c0       	rjmp	.+104    	; 0x1a54 <main+0x9ca>
    19ec:	00 d0       	rcall	.+0      	; 0x19ee <main+0x964>
    19ee:	00 d0       	rcall	.+0      	; 0x19f0 <main+0x966>
    19f0:	00 d0       	rcall	.+0      	; 0x19f2 <main+0x968>
    19f2:	ed b7       	in	r30, 0x3d	; 61
    19f4:	fe b7       	in	r31, 0x3e	; 62
    19f6:	31 96       	adiw	r30, 0x01	; 1
    19f8:	8e 01       	movw	r16, r28
    19fa:	00 5b       	subi	r16, 0xB0	; 176
    19fc:	1f 4f       	sbci	r17, 0xFF	; 255
    19fe:	ad b7       	in	r26, 0x3d	; 61
    1a00:	be b7       	in	r27, 0x3e	; 62
    1a02:	12 96       	adiw	r26, 0x02	; 2
    1a04:	1c 93       	st	X, r17
    1a06:	0e 93       	st	-X, r16
    1a08:	11 97       	sbiw	r26, 0x01	; 1
    1a0a:	8b e9       	ldi	r24, 0x9B	; 155
    1a0c:	92 e0       	ldi	r25, 0x02	; 2
    1a0e:	93 83       	std	Z+3, r25	; 0x03
    1a10:	82 83       	std	Z+2, r24	; 0x02
    1a12:	88 ef       	ldi	r24, 0xF8	; 248
    1a14:	92 e0       	ldi	r25, 0x02	; 2
    1a16:	95 83       	std	Z+5, r25	; 0x05
    1a18:	84 83       	std	Z+4, r24	; 0x04
    1a1a:	0e 94 1c 11 	call	0x2238	; 0x2238 <sprintf>
    1a1e:	f8 01       	movw	r30, r16
    1a20:	0d b7       	in	r16, 0x3d	; 61
    1a22:	1e b7       	in	r17, 0x3e	; 62
    1a24:	0a 5f       	subi	r16, 0xFA	; 250
    1a26:	1f 4f       	sbci	r17, 0xFF	; 255
    1a28:	0f b6       	in	r0, 0x3f	; 63
    1a2a:	f8 94       	cli
    1a2c:	1e bf       	out	0x3e, r17	; 62
    1a2e:	0f be       	out	0x3f, r0	; 63
    1a30:	0d bf       	out	0x3d, r16	; 61
    1a32:	04 c0       	rjmp	.+8      	; 0x1a3c <main+0x9b2>
    1a34:	5d 9b       	sbis	0x0b, 5	; 11
    1a36:	fe cf       	rjmp	.-4      	; 0x1a34 <main+0x9aa>
    1a38:	8c b9       	out	0x0c, r24	; 12
    1a3a:	31 96       	adiw	r30, 0x01	; 1
    1a3c:	80 81       	ld	r24, Z
    1a3e:	88 23       	and	r24, r24
    1a40:	c9 f7       	brne	.-14     	; 0x1a34 <main+0x9aa>
    1a42:	08 c0       	rjmp	.+16     	; 0x1a54 <main+0x9ca>
    1a44:	21 e0       	ldi	r18, 0x01	; 1
    1a46:	30 e0       	ldi	r19, 0x00	; 0
    1a48:	c6 54       	subi	r28, 0x46	; 70
    1a4a:	df 4f       	sbci	r29, 0xFF	; 255
    1a4c:	39 83       	std	Y+1, r19	; 0x01
    1a4e:	28 83       	st	Y, r18
    1a50:	ca 5b       	subi	r28, 0xBA	; 186
    1a52:	d0 40       	sbci	r29, 0x00	; 0
    1a54:	ce 01       	movw	r24, r28
    1a56:	04 96       	adiw	r24, 0x04	; 4
    1a58:	61 e0       	ldi	r22, 0x01	; 1
    1a5a:	0e 94 80 02 	call	0x500	; 0x500 <i2c_rtc_read>
    1a5e:	ce 01       	movw	r24, r28
    1a60:	41 96       	adiw	r24, 0x11	; 17
    1a62:	60 e0       	ldi	r22, 0x00	; 0
    1a64:	0e 94 80 02 	call	0x500	; 0x500 <i2c_rtc_read>
    1a68:	cc 80       	ldd	r12, Y+4	; 0x04
    1a6a:	dd 80       	ldd	r13, Y+5	; 0x05
    1a6c:	ee 80       	ldd	r14, Y+6	; 0x06
    1a6e:	ff 80       	ldd	r15, Y+7	; 0x07
    1a70:	08 85       	ldd	r16, Y+8	; 0x08
    1a72:	19 85       	ldd	r17, Y+9	; 0x09
    1a74:	2a 85       	ldd	r18, Y+10	; 0x0a
    1a76:	3b 85       	ldd	r19, Y+11	; 0x0b
    1a78:	4c 85       	ldd	r20, Y+12	; 0x0c
    1a7a:	5d 85       	ldd	r21, Y+13	; 0x0d
    1a7c:	6e 85       	ldd	r22, Y+14	; 0x0e
    1a7e:	7f 85       	ldd	r23, Y+15	; 0x0f
    1a80:	88 89       	ldd	r24, Y+16	; 0x10
    1a82:	0e 94 77 07 	call	0xeee	; 0xeee <TimeInfo>
    1a86:	10 92 d8 03 	sts	0x03D8, r1
    1a8a:	cf 9b       	sbis	0x19, 7	; 25
    1a8c:	07 c0       	rjmp	.+14     	; 0x1a9c <main+0xa12>
    1a8e:	cc 54       	subi	r28, 0x4C	; 76
    1a90:	df 4f       	sbci	r29, 0xFF	; 255
    1a92:	19 82       	std	Y+1, r1	; 0x01
    1a94:	18 82       	st	Y, r1
    1a96:	c4 5b       	subi	r28, 0xB4	; 180
    1a98:	d0 40       	sbci	r29, 0x00	; 0
    1a9a:	0e c0       	rjmp	.+28     	; 0x1ab8 <main+0xa2e>
    1a9c:	cc 54       	subi	r28, 0x4C	; 76
    1a9e:	df 4f       	sbci	r29, 0xFF	; 255
    1aa0:	48 81       	ld	r20, Y
    1aa2:	59 81       	ldd	r21, Y+1	; 0x01
    1aa4:	c4 5b       	subi	r28, 0xB4	; 180
    1aa6:	d0 40       	sbci	r29, 0x00	; 0
    1aa8:	4f 5f       	subi	r20, 0xFF	; 255
    1aaa:	5f 4f       	sbci	r21, 0xFF	; 255
    1aac:	cc 54       	subi	r28, 0x4C	; 76
    1aae:	df 4f       	sbci	r29, 0xFF	; 255
    1ab0:	59 83       	std	Y+1, r21	; 0x01
    1ab2:	48 83       	st	Y, r20
    1ab4:	c4 5b       	subi	r28, 0xB4	; 180
    1ab6:	d0 40       	sbci	r29, 0x00	; 0
    1ab8:	89 b3       	in	r24, 0x19	; 25
    1aba:	cc 54       	subi	r28, 0x4C	; 76
    1abc:	df 4f       	sbci	r29, 0xFF	; 255
    1abe:	68 81       	ld	r22, Y
    1ac0:	79 81       	ldd	r23, Y+1	; 0x01
    1ac2:	c4 5b       	subi	r28, 0xB4	; 180
    1ac4:	d0 40       	sbci	r29, 0x00	; 0
    1ac6:	62 30       	cpi	r22, 0x02	; 2
    1ac8:	71 05       	cpc	r23, r1
    1aca:	08 f4       	brcc	.+2      	; 0x1ace <main+0xa44>
    1acc:	5b c0       	rjmp	.+182    	; 0x1b84 <main+0xafa>
    1ace:	cb 01       	movw	r24, r22
    1ad0:	0a 96       	adiw	r24, 0x0a	; 10
    1ad2:	6c e0       	ldi	r22, 0x0C	; 12
    1ad4:	70 e0       	ldi	r23, 0x00	; 0
    1ad6:	0e 94 b8 10 	call	0x2170	; 0x2170 <__udivmodhi4>
    1ada:	89 2b       	or	r24, r25
    1adc:	49 f0       	breq	.+18     	; 0x1af0 <main+0xa66>
    1ade:	cc 54       	subi	r28, 0x4C	; 76
    1ae0:	df 4f       	sbci	r29, 0xFF	; 255
    1ae2:	88 81       	ld	r24, Y
    1ae4:	99 81       	ldd	r25, Y+1	; 0x01
    1ae6:	c4 5b       	subi	r28, 0xB4	; 180
    1ae8:	d0 40       	sbci	r29, 0x00	; 0
    1aea:	85 97       	sbiw	r24, 0x25	; 37
    1aec:	08 f4       	brcc	.+2      	; 0x1af0 <main+0xa66>
    1aee:	4a c0       	rjmp	.+148    	; 0x1b84 <main+0xafa>
    1af0:	ed eb       	ldi	r30, 0xBD	; 189
    1af2:	f2 e0       	ldi	r31, 0x02	; 2
    1af4:	04 c0       	rjmp	.+8      	; 0x1afe <main+0xa74>
    1af6:	5d 9b       	sbis	0x0b, 5	; 11
    1af8:	fe cf       	rjmp	.-4      	; 0x1af6 <main+0xa6c>
    1afa:	8c b9       	out	0x0c, r24	; 12
    1afc:	31 96       	adiw	r30, 0x01	; 1
    1afe:	80 81       	ld	r24, Z
    1b00:	88 23       	and	r24, r24
    1b02:	c9 f7       	brne	.-14     	; 0x1af6 <main+0xa6c>
    1b04:	8e 01       	movw	r16, r28
    1b06:	0c 5f       	subi	r16, 0xFC	; 252
    1b08:	1f 4f       	sbci	r17, 0xFF	; 255
    1b0a:	c8 01       	movw	r24, r16
    1b0c:	60 e0       	ldi	r22, 0x00	; 0
    1b0e:	0e 94 80 02 	call	0x500	; 0x500 <i2c_rtc_read>
    1b12:	c8 01       	movw	r24, r16
    1b14:	0e 94 07 02 	call	0x40e	; 0x40e <add_hour>
    1b18:	c8 01       	movw	r24, r16
    1b1a:	0e 94 fb 04 	call	0x9f6	; 0x9f6 <i2c_rtc_write>
    1b1e:	ad b7       	in	r26, 0x3d	; 61
    1b20:	be b7       	in	r27, 0x3e	; 62
    1b22:	1a 97       	sbiw	r26, 0x0a	; 10
    1b24:	0f b6       	in	r0, 0x3f	; 63
    1b26:	f8 94       	cli
    1b28:	be bf       	out	0x3e, r27	; 62
    1b2a:	0f be       	out	0x3f, r0	; 63
    1b2c:	ad bf       	out	0x3d, r26	; 61
    1b2e:	ed b7       	in	r30, 0x3d	; 61
    1b30:	fe b7       	in	r31, 0x3e	; 62
    1b32:	31 96       	adiw	r30, 0x01	; 1
    1b34:	8e 01       	movw	r16, r28
    1b36:	00 5b       	subi	r16, 0xB0	; 176
    1b38:	1f 4f       	sbci	r17, 0xFF	; 255
    1b3a:	12 96       	adiw	r26, 0x02	; 2
    1b3c:	1c 93       	st	X, r17
    1b3e:	0e 93       	st	-X, r16
    1b40:	11 97       	sbiw	r26, 0x01	; 1
    1b42:	86 ec       	ldi	r24, 0xC6	; 198
    1b44:	92 e0       	ldi	r25, 0x02	; 2
    1b46:	93 83       	std	Z+3, r25	; 0x03
    1b48:	82 83       	std	Z+2, r24	; 0x02
    1b4a:	8f 81       	ldd	r24, Y+7	; 0x07
    1b4c:	84 83       	std	Z+4, r24	; 0x04
    1b4e:	15 82       	std	Z+5, r1	; 0x05
    1b50:	88 85       	ldd	r24, Y+8	; 0x08
    1b52:	86 83       	std	Z+6, r24	; 0x06
    1b54:	17 82       	std	Z+7, r1	; 0x07
    1b56:	89 85       	ldd	r24, Y+9	; 0x09
    1b58:	80 87       	std	Z+8, r24	; 0x08
    1b5a:	11 86       	std	Z+9, r1	; 0x09
    1b5c:	0e 94 1c 11 	call	0x2238	; 0x2238 <sprintf>
    1b60:	f8 01       	movw	r30, r16
    1b62:	0d b7       	in	r16, 0x3d	; 61
    1b64:	1e b7       	in	r17, 0x3e	; 62
    1b66:	06 5f       	subi	r16, 0xF6	; 246
    1b68:	1f 4f       	sbci	r17, 0xFF	; 255
    1b6a:	0f b6       	in	r0, 0x3f	; 63
    1b6c:	f8 94       	cli
    1b6e:	1e bf       	out	0x3e, r17	; 62
    1b70:	0f be       	out	0x3f, r0	; 63
    1b72:	0d bf       	out	0x3d, r16	; 61
    1b74:	04 c0       	rjmp	.+8      	; 0x1b7e <main+0xaf4>
    1b76:	5d 9b       	sbis	0x0b, 5	; 11
    1b78:	fe cf       	rjmp	.-4      	; 0x1b76 <main+0xaec>
    1b7a:	8c b9       	out	0x0c, r24	; 12
    1b7c:	31 96       	adiw	r30, 0x01	; 1
    1b7e:	80 81       	ld	r24, Z
    1b80:	88 23       	and	r24, r24
    1b82:	c9 f7       	brne	.-14     	; 0x1b76 <main+0xaec>
    1b84:	41 14       	cp	r4, r1
    1b86:	51 04       	cpc	r5, r1
    1b88:	61 04       	cpc	r6, r1
    1b8a:	71 04       	cpc	r7, r1
    1b8c:	91 f0       	breq	.+36     	; 0x1bb2 <main+0xb28>
    1b8e:	76 94       	lsr	r7
    1b90:	67 94       	ror	r6
    1b92:	57 94       	ror	r5
    1b94:	47 94       	ror	r4
    1b96:	41 14       	cp	r4, r1
    1b98:	51 04       	cpc	r5, r1
    1b9a:	61 04       	cpc	r6, r1
    1b9c:	71 04       	cpc	r7, r1
    1b9e:	29 f4       	brne	.+10     	; 0x1baa <main+0xb20>
    1ba0:	41 2c       	mov	r4, r1
    1ba2:	51 2c       	mov	r5, r1
    1ba4:	61 2c       	mov	r6, r1
    1ba6:	10 e8       	ldi	r17, 0x80	; 128
    1ba8:	71 2e       	mov	r7, r17
    1baa:	c3 01       	movw	r24, r6
    1bac:	b2 01       	movw	r22, r4
    1bae:	0e 94 a4 06 	call	0xd48	; 0xd48 <shift32_output>
    1bb2:	c1 01       	movw	r24, r2
    1bb4:	64 e6       	ldi	r22, 0x64	; 100
    1bb6:	70 e0       	ldi	r23, 0x00	; 0
    1bb8:	0e 94 cc 10 	call	0x2198	; 0x2198 <__divmodhi4>
    1bbc:	89 2b       	or	r24, r25
    1bbe:	09 f0       	breq	.+2      	; 0x1bc2 <main+0xb38>
    1bc0:	ef cb       	rjmp	.-2082   	; 0x13a0 <main+0x316>
    1bc2:	ce 01       	movw	r24, r28
    1bc4:	04 96       	adiw	r24, 0x04	; 4
    1bc6:	61 e0       	ldi	r22, 0x01	; 1
    1bc8:	0e 94 80 02 	call	0x500	; 0x500 <i2c_rtc_read>
    1bcc:	18 2f       	mov	r17, r24
    1bce:	ce 01       	movw	r24, r28
    1bd0:	41 96       	adiw	r24, 0x11	; 17
    1bd2:	60 e0       	ldi	r22, 0x00	; 0
    1bd4:	0e 94 80 02 	call	0x500	; 0x500 <i2c_rtc_read>
    1bd8:	08 2f       	mov	r16, r24
    1bda:	8b 2d       	mov	r24, r11
    1bdc:	c0 54       	subi	r28, 0x40	; 64
    1bde:	df 4f       	sbci	r29, 0xFF	; 255
    1be0:	68 81       	ld	r22, Y
    1be2:	c0 5c       	subi	r28, 0xC0	; 192
    1be4:	d0 40       	sbci	r29, 0x00	; 0
    1be6:	c2 54       	subi	r28, 0x42	; 66
    1be8:	df 4f       	sbci	r29, 0xFF	; 255
    1bea:	48 81       	ld	r20, Y
    1bec:	ce 5b       	subi	r28, 0xBE	; 190
    1bee:	d0 40       	sbci	r29, 0x00	; 0
    1bf0:	c4 54       	subi	r28, 0x44	; 68
    1bf2:	df 4f       	sbci	r29, 0xFF	; 255
    1bf4:	28 81       	ld	r18, Y
    1bf6:	cc 5b       	subi	r28, 0xBC	; 188
    1bf8:	d0 40       	sbci	r29, 0x00	; 0
    1bfa:	0e 94 63 06 	call	0xcc6	; 0xcc6 <SetColor>
    1bfe:	11 23       	and	r17, r17
    1c00:	11 f0       	breq	.+4      	; 0x1c06 <main+0xb7c>
    1c02:	00 23       	and	r16, r16
    1c04:	81 f5       	brne	.+96     	; 0x1c66 <main+0xbdc>
    1c06:	ee ed       	ldi	r30, 0xDE	; 222
    1c08:	f2 e0       	ldi	r31, 0x02	; 2
    1c0a:	04 c0       	rjmp	.+8      	; 0x1c14 <main+0xb8a>
    1c0c:	5d 9b       	sbis	0x0b, 5	; 11
    1c0e:	fe cf       	rjmp	.-4      	; 0x1c0c <main+0xb82>
    1c10:	8c b9       	out	0x0c, r24	; 12
    1c12:	31 96       	adiw	r30, 0x01	; 1
    1c14:	80 81       	ld	r24, Z
    1c16:	88 23       	and	r24, r24
    1c18:	c9 f7       	brne	.-14     	; 0x1c0c <main+0xb82>
    1c1a:	22 24       	eor	r2, r2
    1c1c:	33 24       	eor	r3, r3
    1c1e:	00 e9       	ldi	r16, 0x90	; 144
    1c20:	11 e0       	ldi	r17, 0x01	; 1
    1c22:	81 e0       	ldi	r24, 0x01	; 1
    1c24:	61 e0       	ldi	r22, 0x01	; 1
    1c26:	41 e0       	ldi	r20, 0x01	; 1
    1c28:	21 e0       	ldi	r18, 0x01	; 1
    1c2a:	0e 94 63 06 	call	0xcc6	; 0xcc6 <SetColor>
    1c2e:	84 ef       	ldi	r24, 0xF4	; 244
    1c30:	91 e0       	ldi	r25, 0x01	; 1
    1c32:	f8 01       	movw	r30, r16
    1c34:	31 97       	sbiw	r30, 0x01	; 1
    1c36:	f1 f7       	brne	.-4      	; 0x1c34 <main+0xbaa>
    1c38:	01 97       	sbiw	r24, 0x01	; 1
    1c3a:	d9 f7       	brne	.-10     	; 0x1c32 <main+0xba8>
    1c3c:	8f ef       	ldi	r24, 0xFF	; 255
    1c3e:	6f ef       	ldi	r22, 0xFF	; 255
    1c40:	4f ef       	ldi	r20, 0xFF	; 255
    1c42:	2f ef       	ldi	r18, 0xFF	; 255
    1c44:	0e 94 63 06 	call	0xcc6	; 0xcc6 <SetColor>
    1c48:	84 ef       	ldi	r24, 0xF4	; 244
    1c4a:	91 e0       	ldi	r25, 0x01	; 1
    1c4c:	f8 01       	movw	r30, r16
    1c4e:	31 97       	sbiw	r30, 0x01	; 1
    1c50:	f1 f7       	brne	.-4      	; 0x1c4e <main+0xbc4>
    1c52:	01 97       	sbiw	r24, 0x01	; 1
    1c54:	d9 f7       	brne	.-10     	; 0x1c4c <main+0xbc2>
    1c56:	08 94       	sec
    1c58:	21 1c       	adc	r2, r1
    1c5a:	31 1c       	adc	r3, r1
    1c5c:	28 e2       	ldi	r18, 0x28	; 40
    1c5e:	22 16       	cp	r2, r18
    1c60:	31 04       	cpc	r3, r1
    1c62:	f9 f6       	brne	.-66     	; 0x1c22 <main+0xb98>
    1c64:	9d cb       	rjmp	.-2246   	; 0x13a0 <main+0x316>
    1c66:	28 85       	ldd	r18, Y+8	; 0x08
    1c68:	82 2f       	mov	r24, r18
    1c6a:	65 e0       	ldi	r22, 0x05	; 5
    1c6c:	0e 94 ac 10 	call	0x2158	; 0x2158 <__udivmodqi4>
    1c70:	92 30       	cpi	r25, 0x02	; 2
    1c72:	31 f1       	breq	.+76     	; 0x1cc0 <main+0xc36>
    1c74:	93 30       	cpi	r25, 0x03	; 3
    1c76:	18 f4       	brcc	.+6      	; 0x1c7e <main+0xbf4>
    1c78:	91 30       	cpi	r25, 0x01	; 1
    1c7a:	31 f4       	brne	.+12     	; 0x1c88 <main+0xbfe>
    1c7c:	0e c0       	rjmp	.+28     	; 0x1c9a <main+0xc10>
    1c7e:	93 30       	cpi	r25, 0x03	; 3
    1c80:	41 f1       	breq	.+80     	; 0x1cd2 <main+0xc48>
    1c82:	94 30       	cpi	r25, 0x04	; 4
    1c84:	09 f4       	brne	.+2      	; 0x1c88 <main+0xbfe>
    1c86:	38 c0       	rjmp	.+112    	; 0x1cf8 <main+0xc6e>
    1c88:	ce 53       	subi	r28, 0x3E	; 62
    1c8a:	df 4f       	sbci	r29, 0xFF	; 255
    1c8c:	a8 80       	ld	r10, Y
    1c8e:	b9 80       	ldd	r11, Y+1	; 0x01
    1c90:	ca 80       	ldd	r12, Y+2	; 0x02
    1c92:	db 80       	ldd	r13, Y+3	; 0x03
    1c94:	c2 5c       	subi	r28, 0xC2	; 194
    1c96:	d0 40       	sbci	r29, 0x00	; 0
    1c98:	41 c0       	rjmp	.+130    	; 0x1d1c <main+0xc92>
    1c9a:	e0 eb       	ldi	r30, 0xB0	; 176
    1c9c:	f0 e0       	ldi	r31, 0x00	; 0
    1c9e:	a5 90       	lpm	r10, Z+
    1ca0:	b5 90       	lpm	r11, Z+
    1ca2:	c5 90       	lpm	r12, Z+
    1ca4:	d4 90       	lpm	r13, Z+
    1ca6:	ce 53       	subi	r28, 0x3E	; 62
    1ca8:	df 4f       	sbci	r29, 0xFF	; 255
    1caa:	48 81       	ld	r20, Y
    1cac:	59 81       	ldd	r21, Y+1	; 0x01
    1cae:	6a 81       	ldd	r22, Y+2	; 0x02
    1cb0:	7b 81       	ldd	r23, Y+3	; 0x03
    1cb2:	c2 5c       	subi	r28, 0xC2	; 194
    1cb4:	d0 40       	sbci	r29, 0x00	; 0
    1cb6:	a4 2a       	or	r10, r20
    1cb8:	b5 2a       	or	r11, r21
    1cba:	c6 2a       	or	r12, r22
    1cbc:	d7 2a       	or	r13, r23
    1cbe:	2e c0       	rjmp	.+92     	; 0x1d1c <main+0xc92>
    1cc0:	ce 52       	subi	r28, 0x2E	; 46
    1cc2:	df 4f       	sbci	r29, 0xFF	; 255
    1cc4:	a8 80       	ld	r10, Y
    1cc6:	b9 80       	ldd	r11, Y+1	; 0x01
    1cc8:	ca 80       	ldd	r12, Y+2	; 0x02
    1cca:	db 80       	ldd	r13, Y+3	; 0x03
    1ccc:	c2 5d       	subi	r28, 0xD2	; 210
    1cce:	d0 40       	sbci	r29, 0x00	; 0
    1cd0:	25 c0       	rjmp	.+74     	; 0x1d1c <main+0xc92>
    1cd2:	e8 eb       	ldi	r30, 0xB8	; 184
    1cd4:	f0 e0       	ldi	r31, 0x00	; 0
    1cd6:	a5 90       	lpm	r10, Z+
    1cd8:	b5 90       	lpm	r11, Z+
    1cda:	c5 90       	lpm	r12, Z+
    1cdc:	d4 90       	lpm	r13, Z+
    1cde:	ce 53       	subi	r28, 0x3E	; 62
    1ce0:	df 4f       	sbci	r29, 0xFF	; 255
    1ce2:	68 81       	ld	r22, Y
    1ce4:	79 81       	ldd	r23, Y+1	; 0x01
    1ce6:	8a 81       	ldd	r24, Y+2	; 0x02
    1ce8:	9b 81       	ldd	r25, Y+3	; 0x03
    1cea:	c2 5c       	subi	r28, 0xC2	; 194
    1cec:	d0 40       	sbci	r29, 0x00	; 0
    1cee:	a6 2a       	or	r10, r22
    1cf0:	b7 2a       	or	r11, r23
    1cf2:	c8 2a       	or	r12, r24
    1cf4:	d9 2a       	or	r13, r25
    1cf6:	12 c0       	rjmp	.+36     	; 0x1d1c <main+0xc92>
    1cf8:	ec eb       	ldi	r30, 0xBC	; 188
    1cfa:	f0 e0       	ldi	r31, 0x00	; 0
    1cfc:	a5 90       	lpm	r10, Z+
    1cfe:	b5 90       	lpm	r11, Z+
    1d00:	c5 90       	lpm	r12, Z+
    1d02:	d4 90       	lpm	r13, Z+
    1d04:	ce 53       	subi	r28, 0x3E	; 62
    1d06:	df 4f       	sbci	r29, 0xFF	; 255
    1d08:	88 81       	ld	r24, Y
    1d0a:	99 81       	ldd	r25, Y+1	; 0x01
    1d0c:	aa 81       	ldd	r26, Y+2	; 0x02
    1d0e:	bb 81       	ldd	r27, Y+3	; 0x03
    1d10:	c2 5c       	subi	r28, 0xC2	; 194
    1d12:	d0 40       	sbci	r29, 0x00	; 0
    1d14:	a8 2a       	or	r10, r24
    1d16:	b9 2a       	or	r11, r25
    1d18:	ca 2a       	or	r12, r26
    1d1a:	db 2a       	or	r13, r27
    1d1c:	25 30       	cpi	r18, 0x05	; 5
    1d1e:	08 f4       	brcc	.+2      	; 0x1d22 <main+0xc98>
    1d20:	c8 c0       	rjmp	.+400    	; 0x1eb2 <main+0xe28>
    1d22:	2a 30       	cpi	r18, 0x0A	; 10
    1d24:	68 f4       	brcc	.+26     	; 0x1d40 <main+0xcb6>
    1d26:	ec e5       	ldi	r30, 0x5C	; 92
    1d28:	f0 e0       	ldi	r31, 0x00	; 0
    1d2a:	85 91       	lpm	r24, Z+
    1d2c:	95 91       	lpm	r25, Z+
    1d2e:	a5 91       	lpm	r26, Z+
    1d30:	b4 91       	lpm	r27, Z+
    1d32:	e0 e7       	ldi	r30, 0x70	; 112
    1d34:	f0 e0       	ldi	r31, 0x00	; 0
    1d36:	25 91       	lpm	r18, Z+
    1d38:	35 91       	lpm	r19, Z+
    1d3a:	45 91       	lpm	r20, Z+
    1d3c:	54 91       	lpm	r21, Z+
    1d3e:	1d c0       	rjmp	.+58     	; 0x1d7a <main+0xcf0>
    1d40:	2f 30       	cpi	r18, 0x0F	; 15
    1d42:	68 f4       	brcc	.+26     	; 0x1d5e <main+0xcd4>
    1d44:	e0 e6       	ldi	r30, 0x60	; 96
    1d46:	f0 e0       	ldi	r31, 0x00	; 0
    1d48:	85 91       	lpm	r24, Z+
    1d4a:	95 91       	lpm	r25, Z+
    1d4c:	a5 91       	lpm	r26, Z+
    1d4e:	b4 91       	lpm	r27, Z+
    1d50:	e0 e7       	ldi	r30, 0x70	; 112
    1d52:	f0 e0       	ldi	r31, 0x00	; 0
    1d54:	25 91       	lpm	r18, Z+
    1d56:	35 91       	lpm	r19, Z+
    1d58:	45 91       	lpm	r20, Z+
    1d5a:	54 91       	lpm	r21, Z+
    1d5c:	0e c0       	rjmp	.+28     	; 0x1d7a <main+0xcf0>
    1d5e:	24 31       	cpi	r18, 0x14	; 20
    1d60:	a8 f4       	brcc	.+42     	; 0x1d8c <main+0xd02>
    1d62:	ec e6       	ldi	r30, 0x6C	; 108
    1d64:	f0 e0       	ldi	r31, 0x00	; 0
    1d66:	85 91       	lpm	r24, Z+
    1d68:	95 91       	lpm	r25, Z+
    1d6a:	a5 91       	lpm	r26, Z+
    1d6c:	b4 91       	lpm	r27, Z+
    1d6e:	e0 e7       	ldi	r30, 0x70	; 112
    1d70:	f0 e0       	ldi	r31, 0x00	; 0
    1d72:	25 91       	lpm	r18, Z+
    1d74:	35 91       	lpm	r19, Z+
    1d76:	45 91       	lpm	r20, Z+
    1d78:	54 91       	lpm	r21, Z+
    1d7a:	82 2b       	or	r24, r18
    1d7c:	93 2b       	or	r25, r19
    1d7e:	a4 2b       	or	r26, r20
    1d80:	b5 2b       	or	r27, r21
    1d82:	a8 2a       	or	r10, r24
    1d84:	b9 2a       	or	r11, r25
    1d86:	ca 2a       	or	r12, r26
    1d88:	db 2a       	or	r13, r27
    1d8a:	93 c0       	rjmp	.+294    	; 0x1eb2 <main+0xe28>
    1d8c:	29 31       	cpi	r18, 0x19	; 25
    1d8e:	68 f4       	brcc	.+26     	; 0x1daa <main+0xd20>
    1d90:	c2 53       	subi	r28, 0x32	; 50
    1d92:	df 4f       	sbci	r29, 0xFF	; 255
    1d94:	e8 80       	ld	r14, Y
    1d96:	f9 80       	ldd	r15, Y+1	; 0x01
    1d98:	0a 81       	ldd	r16, Y+2	; 0x02
    1d9a:	1b 81       	ldd	r17, Y+3	; 0x03
    1d9c:	ce 5c       	subi	r28, 0xCE	; 206
    1d9e:	d0 40       	sbci	r29, 0x00	; 0
    1da0:	ae 28       	or	r10, r14
    1da2:	bf 28       	or	r11, r15
    1da4:	c0 2a       	or	r12, r16
    1da6:	d1 2a       	or	r13, r17
    1da8:	84 c0       	rjmp	.+264    	; 0x1eb2 <main+0xe28>
    1daa:	2e 31       	cpi	r18, 0x1E	; 30
    1dac:	98 f4       	brcc	.+38     	; 0x1dd4 <main+0xd4a>
    1dae:	ec e5       	ldi	r30, 0x5C	; 92
    1db0:	f0 e0       	ldi	r31, 0x00	; 0
    1db2:	85 91       	lpm	r24, Z+
    1db4:	95 91       	lpm	r25, Z+
    1db6:	a5 91       	lpm	r26, Z+
    1db8:	b4 91       	lpm	r27, Z+
    1dba:	e4 e7       	ldi	r30, 0x74	; 116
    1dbc:	f0 e0       	ldi	r31, 0x00	; 0
    1dbe:	25 91       	lpm	r18, Z+
    1dc0:	35 91       	lpm	r19, Z+
    1dc2:	45 91       	lpm	r20, Z+
    1dc4:	54 91       	lpm	r21, Z+
    1dc6:	e8 e7       	ldi	r30, 0x78	; 120
    1dc8:	f0 e0       	ldi	r31, 0x00	; 0
    1dca:	e5 90       	lpm	r14, Z+
    1dcc:	f5 90       	lpm	r15, Z+
    1dce:	05 91       	lpm	r16, Z+
    1dd0:	14 91       	lpm	r17, Z+
    1dd2:	1d c0       	rjmp	.+58     	; 0x1e0e <main+0xd84>
    1dd4:	23 32       	cpi	r18, 0x23	; 35
    1dd6:	38 f4       	brcc	.+14     	; 0x1de6 <main+0xd5c>
    1dd8:	e8 e7       	ldi	r30, 0x78	; 120
    1dda:	f0 e0       	ldi	r31, 0x00	; 0
    1ddc:	85 91       	lpm	r24, Z+
    1dde:	95 91       	lpm	r25, Z+
    1de0:	a5 91       	lpm	r26, Z+
    1de2:	b4 91       	lpm	r27, Z+
    1de4:	42 c0       	rjmp	.+132    	; 0x1e6a <main+0xde0>
    1de6:	28 32       	cpi	r18, 0x28	; 40
    1de8:	f8 f4       	brcc	.+62     	; 0x1e28 <main+0xd9e>
    1dea:	ec e5       	ldi	r30, 0x5C	; 92
    1dec:	f0 e0       	ldi	r31, 0x00	; 0
    1dee:	85 91       	lpm	r24, Z+
    1df0:	95 91       	lpm	r25, Z+
    1df2:	a5 91       	lpm	r26, Z+
    1df4:	b4 91       	lpm	r27, Z+
    1df6:	e0 e7       	ldi	r30, 0x70	; 112
    1df8:	f0 e0       	ldi	r31, 0x00	; 0
    1dfa:	25 91       	lpm	r18, Z+
    1dfc:	35 91       	lpm	r19, Z+
    1dfe:	45 91       	lpm	r20, Z+
    1e00:	54 91       	lpm	r21, Z+
    1e02:	e8 e7       	ldi	r30, 0x78	; 120
    1e04:	f0 e0       	ldi	r31, 0x00	; 0
    1e06:	e5 90       	lpm	r14, Z+
    1e08:	f5 90       	lpm	r15, Z+
    1e0a:	05 91       	lpm	r16, Z+
    1e0c:	14 91       	lpm	r17, Z+
    1e0e:	82 2b       	or	r24, r18
    1e10:	93 2b       	or	r25, r19
    1e12:	a4 2b       	or	r26, r20
    1e14:	b5 2b       	or	r27, r21
    1e16:	a8 2a       	or	r10, r24
    1e18:	b9 2a       	or	r11, r25
    1e1a:	ca 2a       	or	r12, r26
    1e1c:	db 2a       	or	r13, r27
    1e1e:	ae 28       	or	r10, r14
    1e20:	bf 28       	or	r11, r15
    1e22:	c0 2a       	or	r12, r16
    1e24:	d1 2a       	or	r13, r17
    1e26:	43 c0       	rjmp	.+134    	; 0x1eae <main+0xe24>
    1e28:	2d 32       	cpi	r18, 0x2D	; 45
    1e2a:	68 f4       	brcc	.+26     	; 0x1e46 <main+0xdbc>
    1e2c:	e4 e6       	ldi	r30, 0x64	; 100
    1e2e:	f0 e0       	ldi	r31, 0x00	; 0
    1e30:	85 91       	lpm	r24, Z+
    1e32:	95 91       	lpm	r25, Z+
    1e34:	a5 91       	lpm	r26, Z+
    1e36:	b4 91       	lpm	r27, Z+
    1e38:	e4 e7       	ldi	r30, 0x74	; 116
    1e3a:	f0 e0       	ldi	r31, 0x00	; 0
    1e3c:	25 91       	lpm	r18, Z+
    1e3e:	35 91       	lpm	r19, Z+
    1e40:	45 91       	lpm	r20, Z+
    1e42:	54 91       	lpm	r21, Z+
    1e44:	0e c0       	rjmp	.+28     	; 0x1e62 <main+0xdd8>
    1e46:	22 33       	cpi	r18, 0x32	; 50
    1e48:	a8 f4       	brcc	.+42     	; 0x1e74 <main+0xdea>
    1e4a:	ec e6       	ldi	r30, 0x6C	; 108
    1e4c:	f0 e0       	ldi	r31, 0x00	; 0
    1e4e:	85 91       	lpm	r24, Z+
    1e50:	95 91       	lpm	r25, Z+
    1e52:	a5 91       	lpm	r26, Z+
    1e54:	b4 91       	lpm	r27, Z+
    1e56:	e4 e7       	ldi	r30, 0x74	; 116
    1e58:	f0 e0       	ldi	r31, 0x00	; 0
    1e5a:	25 91       	lpm	r18, Z+
    1e5c:	35 91       	lpm	r19, Z+
    1e5e:	45 91       	lpm	r20, Z+
    1e60:	54 91       	lpm	r21, Z+
    1e62:	82 2b       	or	r24, r18
    1e64:	93 2b       	or	r25, r19
    1e66:	a4 2b       	or	r26, r20
    1e68:	b5 2b       	or	r27, r21
    1e6a:	a8 2a       	or	r10, r24
    1e6c:	b9 2a       	or	r11, r25
    1e6e:	ca 2a       	or	r12, r26
    1e70:	db 2a       	or	r13, r27
    1e72:	1d c0       	rjmp	.+58     	; 0x1eae <main+0xe24>
    1e74:	27 33       	cpi	r18, 0x37	; 55
    1e76:	68 f4       	brcc	.+26     	; 0x1e92 <main+0xe08>
    1e78:	c6 53       	subi	r28, 0x36	; 54
    1e7a:	df 4f       	sbci	r29, 0xFF	; 255
    1e7c:	08 81       	ld	r16, Y
    1e7e:	19 81       	ldd	r17, Y+1	; 0x01
    1e80:	2a 81       	ldd	r18, Y+2	; 0x02
    1e82:	3b 81       	ldd	r19, Y+3	; 0x03
    1e84:	ca 5c       	subi	r28, 0xCA	; 202
    1e86:	d0 40       	sbci	r29, 0x00	; 0
    1e88:	a0 2a       	or	r10, r16
    1e8a:	b1 2a       	or	r11, r17
    1e8c:	c2 2a       	or	r12, r18
    1e8e:	d3 2a       	or	r13, r19
    1e90:	0e c0       	rjmp	.+28     	; 0x1eae <main+0xe24>
    1e92:	2c 33       	cpi	r18, 0x3C	; 60
    1e94:	70 f4       	brcc	.+28     	; 0x1eb2 <main+0xe28>
    1e96:	ca 53       	subi	r28, 0x3A	; 58
    1e98:	df 4f       	sbci	r29, 0xFF	; 255
    1e9a:	28 81       	ld	r18, Y
    1e9c:	39 81       	ldd	r19, Y+1	; 0x01
    1e9e:	4a 81       	ldd	r20, Y+2	; 0x02
    1ea0:	5b 81       	ldd	r21, Y+3	; 0x03
    1ea2:	c6 5c       	subi	r28, 0xC6	; 198
    1ea4:	d0 40       	sbci	r29, 0x00	; 0
    1ea6:	a2 2a       	or	r10, r18
    1ea8:	b3 2a       	or	r11, r19
    1eaa:	c4 2a       	or	r12, r20
    1eac:	d5 2a       	or	r13, r21
    1eae:	81 e0       	ldi	r24, 0x01	; 1
    1eb0:	01 c0       	rjmp	.+2      	; 0x1eb4 <main+0xe2a>
    1eb2:	80 e0       	ldi	r24, 0x00	; 0
    1eb4:	de 01       	movw	r26, r28
    1eb6:	5e 96       	adiw	r26, 0x1e	; 30
    1eb8:	ed e5       	ldi	r30, 0x5D	; 93
    1eba:	f3 e0       	ldi	r31, 0x03	; 3
    1ebc:	92 e3       	ldi	r25, 0x32	; 50
    1ebe:	01 90       	ld	r0, Z+
    1ec0:	0d 92       	st	X+, r0
    1ec2:	91 50       	subi	r25, 0x01	; 1
    1ec4:	e1 f7       	brne	.-8      	; 0x1ebe <main+0xe34>
    1ec6:	ef 81       	ldd	r30, Y+7	; 0x07
    1ec8:	f0 e0       	ldi	r31, 0x00	; 0
    1eca:	e8 0f       	add	r30, r24
    1ecc:	f1 1d       	adc	r31, r1
    1ece:	ee 0f       	add	r30, r30
    1ed0:	ff 1f       	adc	r31, r31
    1ed2:	ec 0f       	add	r30, r28
    1ed4:	fd 1f       	adc	r31, r29
    1ed6:	06 8c       	ldd	r0, Z+30	; 0x1e
    1ed8:	f7 8d       	ldd	r31, Z+31	; 0x1f
    1eda:	e0 2d       	mov	r30, r0
    1edc:	ee 0f       	add	r30, r30
    1ede:	ff 1f       	adc	r31, r31
    1ee0:	ee 0f       	add	r30, r30
    1ee2:	ff 1f       	adc	r31, r31
    1ee4:	ec 5a       	subi	r30, 0xAC	; 172
    1ee6:	ff 4f       	sbci	r31, 0xFF	; 255
    1ee8:	65 91       	lpm	r22, Z+
    1eea:	75 91       	lpm	r23, Z+
    1eec:	85 91       	lpm	r24, Z+
    1eee:	94 91       	lpm	r25, Z+
    1ef0:	41 14       	cp	r4, r1
    1ef2:	51 04       	cpc	r5, r1
    1ef4:	61 04       	cpc	r6, r1
    1ef6:	71 04       	cpc	r7, r1
    1ef8:	09 f0       	breq	.+2      	; 0x1efc <main+0xe72>
    1efa:	49 c0       	rjmp	.+146    	; 0x1f8e <main+0xf04>
    1efc:	45 01       	movw	r8, r10
    1efe:	56 01       	movw	r10, r12
    1f00:	86 2a       	or	r8, r22
    1f02:	97 2a       	or	r9, r23
    1f04:	a8 2a       	or	r10, r24
    1f06:	b9 2a       	or	r11, r25
    1f08:	ca 54       	subi	r28, 0x4A	; 74
    1f0a:	df 4f       	sbci	r29, 0xFF	; 255
    1f0c:	48 81       	ld	r20, Y
    1f0e:	59 81       	ldd	r21, Y+1	; 0x01
    1f10:	6a 81       	ldd	r22, Y+2	; 0x02
    1f12:	7b 81       	ldd	r23, Y+3	; 0x03
    1f14:	c6 5b       	subi	r28, 0xB6	; 182
    1f16:	d0 40       	sbci	r29, 0x00	; 0
    1f18:	48 15       	cp	r20, r8
    1f1a:	59 05       	cpc	r21, r9
    1f1c:	6a 05       	cpc	r22, r10
    1f1e:	7b 05       	cpc	r23, r11
    1f20:	b1 f1       	breq	.+108    	; 0x1f8e <main+0xf04>
    1f22:	6d b7       	in	r22, 0x3d	; 61
    1f24:	7e b7       	in	r23, 0x3e	; 62
    1f26:	68 50       	subi	r22, 0x08	; 8
    1f28:	70 40       	sbci	r23, 0x00	; 0
    1f2a:	0f b6       	in	r0, 0x3f	; 63
    1f2c:	f8 94       	cli
    1f2e:	7e bf       	out	0x3e, r23	; 62
    1f30:	0f be       	out	0x3f, r0	; 63
    1f32:	6d bf       	out	0x3d, r22	; 61
    1f34:	ed b7       	in	r30, 0x3d	; 61
    1f36:	fe b7       	in	r31, 0x3e	; 62
    1f38:	31 96       	adiw	r30, 0x01	; 1
    1f3a:	8e 01       	movw	r16, r28
    1f3c:	00 5b       	subi	r16, 0xB0	; 176
    1f3e:	1f 4f       	sbci	r17, 0xFF	; 255
    1f40:	ad b7       	in	r26, 0x3d	; 61
    1f42:	be b7       	in	r27, 0x3e	; 62
    1f44:	12 96       	adiw	r26, 0x02	; 2
    1f46:	1c 93       	st	X, r17
    1f48:	0e 93       	st	-X, r16
    1f4a:	11 97       	sbiw	r26, 0x01	; 1
    1f4c:	8a ee       	ldi	r24, 0xEA	; 234
    1f4e:	92 e0       	ldi	r25, 0x02	; 2
    1f50:	93 83       	std	Z+3, r25	; 0x03
    1f52:	82 83       	std	Z+2, r24	; 0x02
    1f54:	84 82       	std	Z+4, r8	; 0x04
    1f56:	95 82       	std	Z+5, r9	; 0x05
    1f58:	a6 82       	std	Z+6, r10	; 0x06
    1f5a:	b7 82       	std	Z+7, r11	; 0x07
    1f5c:	0e 94 1c 11 	call	0x2238	; 0x2238 <sprintf>
    1f60:	f8 01       	movw	r30, r16
    1f62:	0d b7       	in	r16, 0x3d	; 61
    1f64:	1e b7       	in	r17, 0x3e	; 62
    1f66:	08 5f       	subi	r16, 0xF8	; 248
    1f68:	1f 4f       	sbci	r17, 0xFF	; 255
    1f6a:	0f b6       	in	r0, 0x3f	; 63
    1f6c:	f8 94       	cli
    1f6e:	1e bf       	out	0x3e, r17	; 62
    1f70:	0f be       	out	0x3f, r0	; 63
    1f72:	0d bf       	out	0x3d, r16	; 61
    1f74:	04 c0       	rjmp	.+8      	; 0x1f7e <main+0xef4>
    1f76:	5d 9b       	sbis	0x0b, 5	; 11
    1f78:	fe cf       	rjmp	.-4      	; 0x1f76 <main+0xeec>
    1f7a:	8c b9       	out	0x0c, r24	; 12
    1f7c:	31 96       	adiw	r30, 0x01	; 1
    1f7e:	80 81       	ld	r24, Z
    1f80:	88 23       	and	r24, r24
    1f82:	c9 f7       	brne	.-14     	; 0x1f76 <main+0xeec>
    1f84:	c5 01       	movw	r24, r10
    1f86:	b4 01       	movw	r22, r8
    1f88:	0e 94 a4 06 	call	0xd48	; 0xd48 <shift32_output>
    1f8c:	08 c0       	rjmp	.+16     	; 0x1f9e <main+0xf14>
    1f8e:	ca 54       	subi	r28, 0x4A	; 74
    1f90:	df 4f       	sbci	r29, 0xFF	; 255
    1f92:	88 80       	ld	r8, Y
    1f94:	99 80       	ldd	r9, Y+1	; 0x01
    1f96:	aa 80       	ldd	r10, Y+2	; 0x02
    1f98:	bb 80       	ldd	r11, Y+3	; 0x03
    1f9a:	c6 5b       	subi	r28, 0xB6	; 182
    1f9c:	d0 40       	sbci	r29, 0x00	; 0
    1f9e:	89 85       	ldd	r24, Y+9	; 0x09
    1fa0:	88 23       	and	r24, r24
    1fa2:	79 f4       	brne	.+30     	; 0x1fc2 <main+0xf38>
    1fa4:	cc 80       	ldd	r12, Y+4	; 0x04
    1fa6:	dd 80       	ldd	r13, Y+5	; 0x05
    1fa8:	ee 80       	ldd	r14, Y+6	; 0x06
    1faa:	ff 80       	ldd	r15, Y+7	; 0x07
    1fac:	08 85       	ldd	r16, Y+8	; 0x08
    1fae:	10 e0       	ldi	r17, 0x00	; 0
    1fb0:	2a 85       	ldd	r18, Y+10	; 0x0a
    1fb2:	3b 85       	ldd	r19, Y+11	; 0x0b
    1fb4:	4c 85       	ldd	r20, Y+12	; 0x0c
    1fb6:	5d 85       	ldd	r21, Y+13	; 0x0d
    1fb8:	6e 85       	ldd	r22, Y+14	; 0x0e
    1fba:	7f 85       	ldd	r23, Y+15	; 0x0f
    1fbc:	88 89       	ldd	r24, Y+16	; 0x10
    1fbe:	0e 94 77 07 	call	0xeee	; 0xeee <TimeInfo>
    1fc2:	c6 54       	subi	r28, 0x46	; 70
    1fc4:	df 4f       	sbci	r29, 0xFF	; 255
    1fc6:	28 81       	ld	r18, Y
    1fc8:	39 81       	ldd	r19, Y+1	; 0x01
    1fca:	ca 5b       	subi	r28, 0xBA	; 186
    1fcc:	d0 40       	sbci	r29, 0x00	; 0
    1fce:	23 2b       	or	r18, r19
    1fd0:	09 f4       	brne	.+2      	; 0x1fd4 <main+0xf4a>
    1fd2:	98 c0       	rjmp	.+304    	; 0x2104 <main+0x107a>
    1fd4:	9c 85       	ldd	r25, Y+12	; 0x0c
    1fd6:	99 23       	and	r25, r25
    1fd8:	b9 f4       	brne	.+46     	; 0x2008 <main+0xf7e>
    1fda:	41 e0       	ldi	r20, 0x01	; 1
    1fdc:	50 e0       	ldi	r21, 0x00	; 0
    1fde:	c0 54       	subi	r28, 0x40	; 64
    1fe0:	df 4f       	sbci	r29, 0xFF	; 255
    1fe2:	59 83       	std	Y+1, r21	; 0x01
    1fe4:	48 83       	st	Y, r20
    1fe6:	c0 5c       	subi	r28, 0xC0	; 192
    1fe8:	d0 40       	sbci	r29, 0x00	; 0
    1fea:	c2 54       	subi	r28, 0x42	; 66
    1fec:	df 4f       	sbci	r29, 0xFF	; 255
    1fee:	59 83       	std	Y+1, r21	; 0x01
    1ff0:	48 83       	st	Y, r20
    1ff2:	ce 5b       	subi	r28, 0xBE	; 190
    1ff4:	d0 40       	sbci	r29, 0x00	; 0
    1ff6:	63 e3       	ldi	r22, 0x33	; 51
    1ff8:	70 e0       	ldi	r23, 0x00	; 0
    1ffa:	c4 54       	subi	r28, 0x44	; 68
    1ffc:	df 4f       	sbci	r29, 0xFF	; 255
    1ffe:	79 83       	std	Y+1, r23	; 0x01
    2000:	68 83       	st	Y, r22
    2002:	cc 5b       	subi	r28, 0xBC	; 188
    2004:	d0 40       	sbci	r29, 0x00	; 0
    2006:	7e c0       	rjmp	.+252    	; 0x2104 <main+0x107a>
    2008:	94 36       	cpi	r25, 0x64	; 100
    200a:	b8 f0       	brcs	.+46     	; 0x203a <main+0xfb0>
    200c:	8f ef       	ldi	r24, 0xFF	; 255
    200e:	90 e0       	ldi	r25, 0x00	; 0
    2010:	c0 54       	subi	r28, 0x40	; 64
    2012:	df 4f       	sbci	r29, 0xFF	; 255
    2014:	99 83       	std	Y+1, r25	; 0x01
    2016:	88 83       	st	Y, r24
    2018:	c0 5c       	subi	r28, 0xC0	; 192
    201a:	d0 40       	sbci	r29, 0x00	; 0
    201c:	c2 54       	subi	r28, 0x42	; 66
    201e:	df 4f       	sbci	r29, 0xFF	; 255
    2020:	99 83       	std	Y+1, r25	; 0x01
    2022:	88 83       	st	Y, r24
    2024:	ce 5b       	subi	r28, 0xBE	; 190
    2026:	d0 40       	sbci	r29, 0x00	; 0
    2028:	a0 ec       	ldi	r26, 0xC0	; 192
    202a:	b0 e0       	ldi	r27, 0x00	; 0
    202c:	c4 54       	subi	r28, 0x44	; 68
    202e:	df 4f       	sbci	r29, 0xFF	; 255
    2030:	b9 83       	std	Y+1, r27	; 0x01
    2032:	a8 83       	st	Y, r26
    2034:	cc 5b       	subi	r28, 0xBC	; 188
    2036:	d0 40       	sbci	r29, 0x00	; 0
    2038:	65 c0       	rjmp	.+202    	; 0x2104 <main+0x107a>
    203a:	92 33       	cpi	r25, 0x32	; 50
    203c:	08 f5       	brcc	.+66     	; 0x2080 <main+0xff6>
    203e:	8e ef       	ldi	r24, 0xFE	; 254
    2040:	98 9f       	mul	r25, r24
    2042:	c0 01       	movw	r24, r0
    2044:	11 24       	eor	r1, r1
    2046:	62 e3       	ldi	r22, 0x32	; 50
    2048:	70 e0       	ldi	r23, 0x00	; 0
    204a:	0e 94 cc 10 	call	0x2198	; 0x2198 <__divmodhi4>
    204e:	6f 5f       	subi	r22, 0xFF	; 255
    2050:	7f 4f       	sbci	r23, 0xFF	; 255
    2052:	c0 54       	subi	r28, 0x40	; 64
    2054:	df 4f       	sbci	r29, 0xFF	; 255
    2056:	79 83       	std	Y+1, r23	; 0x01
    2058:	68 83       	st	Y, r22
    205a:	c0 5c       	subi	r28, 0xC0	; 192
    205c:	d0 40       	sbci	r29, 0x00	; 0
    205e:	01 e0       	ldi	r16, 0x01	; 1
    2060:	10 e0       	ldi	r17, 0x00	; 0
    2062:	c2 54       	subi	r28, 0x42	; 66
    2064:	df 4f       	sbci	r29, 0xFF	; 255
    2066:	19 83       	std	Y+1, r17	; 0x01
    2068:	08 83       	st	Y, r16
    206a:	ce 5b       	subi	r28, 0xBE	; 190
    206c:	d0 40       	sbci	r29, 0x00	; 0
    206e:	23 e3       	ldi	r18, 0x33	; 51
    2070:	30 e0       	ldi	r19, 0x00	; 0
    2072:	c4 54       	subi	r28, 0x44	; 68
    2074:	df 4f       	sbci	r29, 0xFF	; 255
    2076:	39 83       	std	Y+1, r19	; 0x01
    2078:	28 83       	st	Y, r18
    207a:	cc 5b       	subi	r28, 0xBC	; 188
    207c:	d0 40       	sbci	r29, 0x00	; 0
    207e:	42 c0       	rjmp	.+132    	; 0x2104 <main+0x107a>
    2080:	92 33       	cpi	r25, 0x32	; 50
    2082:	09 f4       	brne	.+2      	; 0x2086 <main+0xffc>
    2084:	3f c0       	rjmp	.+126    	; 0x2104 <main+0x107a>
    2086:	e9 2e       	mov	r14, r25
    2088:	ff 24       	eor	r15, r15
    208a:	4e ec       	ldi	r20, 0xCE	; 206
    208c:	5f ef       	ldi	r21, 0xFF	; 255
    208e:	e4 0e       	add	r14, r20
    2090:	f5 1e       	adc	r15, r21
    2092:	00 27       	eor	r16, r16
    2094:	f7 fc       	sbrc	r15, 7
    2096:	00 95       	com	r16
    2098:	10 2f       	mov	r17, r16
    209a:	c8 01       	movw	r24, r16
    209c:	b7 01       	movw	r22, r14
    209e:	2c ec       	ldi	r18, 0xCC	; 204
    20a0:	30 e0       	ldi	r19, 0x00	; 0
    20a2:	40 e0       	ldi	r20, 0x00	; 0
    20a4:	50 e0       	ldi	r21, 0x00	; 0
    20a6:	0e 94 8d 10 	call	0x211a	; 0x211a <__mulsi3>
    20aa:	22 e3       	ldi	r18, 0x32	; 50
    20ac:	30 e0       	ldi	r19, 0x00	; 0
    20ae:	40 e0       	ldi	r20, 0x00	; 0
    20b0:	50 e0       	ldi	r21, 0x00	; 0
    20b2:	0e 94 df 10 	call	0x21be	; 0x21be <__divmodsi4>
    20b6:	b9 01       	movw	r22, r18
    20b8:	6d 5c       	subi	r22, 0xCD	; 205
    20ba:	7f 4f       	sbci	r23, 0xFF	; 255
    20bc:	c2 54       	subi	r28, 0x42	; 66
    20be:	df 4f       	sbci	r29, 0xFF	; 255
    20c0:	79 83       	std	Y+1, r23	; 0x01
    20c2:	68 83       	st	Y, r22
    20c4:	ce 5b       	subi	r28, 0xBE	; 190
    20c6:	d0 40       	sbci	r29, 0x00	; 0
    20c8:	c8 01       	movw	r24, r16
    20ca:	b7 01       	movw	r22, r14
    20cc:	2c ea       	ldi	r18, 0xAC	; 172
    20ce:	30 e0       	ldi	r19, 0x00	; 0
    20d0:	40 e0       	ldi	r20, 0x00	; 0
    20d2:	50 e0       	ldi	r21, 0x00	; 0
    20d4:	0e 94 8d 10 	call	0x211a	; 0x211a <__mulsi3>
    20d8:	22 e3       	ldi	r18, 0x32	; 50
    20da:	30 e0       	ldi	r19, 0x00	; 0
    20dc:	40 e0       	ldi	r20, 0x00	; 0
    20de:	50 e0       	ldi	r21, 0x00	; 0
    20e0:	0e 94 df 10 	call	0x21be	; 0x21be <__divmodsi4>
    20e4:	c9 01       	movw	r24, r18
    20e6:	c3 96       	adiw	r24, 0x33	; 51
    20e8:	c4 54       	subi	r28, 0x44	; 68
    20ea:	df 4f       	sbci	r29, 0xFF	; 255
    20ec:	99 83       	std	Y+1, r25	; 0x01
    20ee:	88 83       	st	Y, r24
    20f0:	cc 5b       	subi	r28, 0xBC	; 188
    20f2:	d0 40       	sbci	r29, 0x00	; 0
    20f4:	af ef       	ldi	r26, 0xFF	; 255
    20f6:	b0 e0       	ldi	r27, 0x00	; 0
    20f8:	c0 54       	subi	r28, 0x40	; 64
    20fa:	df 4f       	sbci	r29, 0xFF	; 255
    20fc:	b9 83       	std	Y+1, r27	; 0x01
    20fe:	a8 83       	st	Y, r26
    2100:	c0 5c       	subi	r28, 0xC0	; 192
    2102:	d0 40       	sbci	r29, 0x00	; 0
    2104:	c1 01       	movw	r24, r2
    2106:	68 ee       	ldi	r22, 0xE8	; 232
    2108:	73 e0       	ldi	r23, 0x03	; 3
    210a:	0e 94 cc 10 	call	0x2198	; 0x2198 <__divmodhi4>
    210e:	89 2b       	or	r24, r25
    2110:	09 f4       	brne	.+2      	; 0x2114 <main+0x108a>
    2112:	4e c9       	rjmp	.-3428   	; 0x13b0 <main+0x326>
    2114:	22 24       	eor	r2, r2
    2116:	33 24       	eor	r3, r3
    2118:	4b c9       	rjmp	.-3434   	; 0x13b0 <main+0x326>

0000211a <__mulsi3>:
    211a:	62 9f       	mul	r22, r18
    211c:	d0 01       	movw	r26, r0
    211e:	73 9f       	mul	r23, r19
    2120:	f0 01       	movw	r30, r0
    2122:	82 9f       	mul	r24, r18
    2124:	e0 0d       	add	r30, r0
    2126:	f1 1d       	adc	r31, r1
    2128:	64 9f       	mul	r22, r20
    212a:	e0 0d       	add	r30, r0
    212c:	f1 1d       	adc	r31, r1
    212e:	92 9f       	mul	r25, r18
    2130:	f0 0d       	add	r31, r0
    2132:	83 9f       	mul	r24, r19
    2134:	f0 0d       	add	r31, r0
    2136:	74 9f       	mul	r23, r20
    2138:	f0 0d       	add	r31, r0
    213a:	65 9f       	mul	r22, r21
    213c:	f0 0d       	add	r31, r0
    213e:	99 27       	eor	r25, r25
    2140:	72 9f       	mul	r23, r18
    2142:	b0 0d       	add	r27, r0
    2144:	e1 1d       	adc	r30, r1
    2146:	f9 1f       	adc	r31, r25
    2148:	63 9f       	mul	r22, r19
    214a:	b0 0d       	add	r27, r0
    214c:	e1 1d       	adc	r30, r1
    214e:	f9 1f       	adc	r31, r25
    2150:	bd 01       	movw	r22, r26
    2152:	cf 01       	movw	r24, r30
    2154:	11 24       	eor	r1, r1
    2156:	08 95       	ret

00002158 <__udivmodqi4>:
    2158:	99 1b       	sub	r25, r25
    215a:	79 e0       	ldi	r23, 0x09	; 9
    215c:	04 c0       	rjmp	.+8      	; 0x2166 <__udivmodqi4_ep>

0000215e <__udivmodqi4_loop>:
    215e:	99 1f       	adc	r25, r25
    2160:	96 17       	cp	r25, r22
    2162:	08 f0       	brcs	.+2      	; 0x2166 <__udivmodqi4_ep>
    2164:	96 1b       	sub	r25, r22

00002166 <__udivmodqi4_ep>:
    2166:	88 1f       	adc	r24, r24
    2168:	7a 95       	dec	r23
    216a:	c9 f7       	brne	.-14     	; 0x215e <__udivmodqi4_loop>
    216c:	80 95       	com	r24
    216e:	08 95       	ret

00002170 <__udivmodhi4>:
    2170:	aa 1b       	sub	r26, r26
    2172:	bb 1b       	sub	r27, r27
    2174:	51 e1       	ldi	r21, 0x11	; 17
    2176:	07 c0       	rjmp	.+14     	; 0x2186 <__udivmodhi4_ep>

00002178 <__udivmodhi4_loop>:
    2178:	aa 1f       	adc	r26, r26
    217a:	bb 1f       	adc	r27, r27
    217c:	a6 17       	cp	r26, r22
    217e:	b7 07       	cpc	r27, r23
    2180:	10 f0       	brcs	.+4      	; 0x2186 <__udivmodhi4_ep>
    2182:	a6 1b       	sub	r26, r22
    2184:	b7 0b       	sbc	r27, r23

00002186 <__udivmodhi4_ep>:
    2186:	88 1f       	adc	r24, r24
    2188:	99 1f       	adc	r25, r25
    218a:	5a 95       	dec	r21
    218c:	a9 f7       	brne	.-22     	; 0x2178 <__udivmodhi4_loop>
    218e:	80 95       	com	r24
    2190:	90 95       	com	r25
    2192:	bc 01       	movw	r22, r24
    2194:	cd 01       	movw	r24, r26
    2196:	08 95       	ret

00002198 <__divmodhi4>:
    2198:	97 fb       	bst	r25, 7
    219a:	09 2e       	mov	r0, r25
    219c:	07 26       	eor	r0, r23
    219e:	0a d0       	rcall	.+20     	; 0x21b4 <__divmodhi4_neg1>
    21a0:	77 fd       	sbrc	r23, 7
    21a2:	04 d0       	rcall	.+8      	; 0x21ac <__divmodhi4_neg2>
    21a4:	e5 df       	rcall	.-54     	; 0x2170 <__udivmodhi4>
    21a6:	06 d0       	rcall	.+12     	; 0x21b4 <__divmodhi4_neg1>
    21a8:	00 20       	and	r0, r0
    21aa:	1a f4       	brpl	.+6      	; 0x21b2 <__divmodhi4_exit>

000021ac <__divmodhi4_neg2>:
    21ac:	70 95       	com	r23
    21ae:	61 95       	neg	r22
    21b0:	7f 4f       	sbci	r23, 0xFF	; 255

000021b2 <__divmodhi4_exit>:
    21b2:	08 95       	ret

000021b4 <__divmodhi4_neg1>:
    21b4:	f6 f7       	brtc	.-4      	; 0x21b2 <__divmodhi4_exit>
    21b6:	90 95       	com	r25
    21b8:	81 95       	neg	r24
    21ba:	9f 4f       	sbci	r25, 0xFF	; 255
    21bc:	08 95       	ret

000021be <__divmodsi4>:
    21be:	97 fb       	bst	r25, 7
    21c0:	09 2e       	mov	r0, r25
    21c2:	05 26       	eor	r0, r21
    21c4:	0e d0       	rcall	.+28     	; 0x21e2 <__divmodsi4_neg1>
    21c6:	57 fd       	sbrc	r21, 7
    21c8:	04 d0       	rcall	.+8      	; 0x21d2 <__divmodsi4_neg2>
    21ca:	14 d0       	rcall	.+40     	; 0x21f4 <__udivmodsi4>
    21cc:	0a d0       	rcall	.+20     	; 0x21e2 <__divmodsi4_neg1>
    21ce:	00 1c       	adc	r0, r0
    21d0:	38 f4       	brcc	.+14     	; 0x21e0 <__divmodsi4_exit>

000021d2 <__divmodsi4_neg2>:
    21d2:	50 95       	com	r21
    21d4:	40 95       	com	r20
    21d6:	30 95       	com	r19
    21d8:	21 95       	neg	r18
    21da:	3f 4f       	sbci	r19, 0xFF	; 255
    21dc:	4f 4f       	sbci	r20, 0xFF	; 255
    21de:	5f 4f       	sbci	r21, 0xFF	; 255

000021e0 <__divmodsi4_exit>:
    21e0:	08 95       	ret

000021e2 <__divmodsi4_neg1>:
    21e2:	f6 f7       	brtc	.-4      	; 0x21e0 <__divmodsi4_exit>
    21e4:	90 95       	com	r25
    21e6:	80 95       	com	r24
    21e8:	70 95       	com	r23
    21ea:	61 95       	neg	r22
    21ec:	7f 4f       	sbci	r23, 0xFF	; 255
    21ee:	8f 4f       	sbci	r24, 0xFF	; 255
    21f0:	9f 4f       	sbci	r25, 0xFF	; 255
    21f2:	08 95       	ret

000021f4 <__udivmodsi4>:
    21f4:	a1 e2       	ldi	r26, 0x21	; 33
    21f6:	1a 2e       	mov	r1, r26
    21f8:	aa 1b       	sub	r26, r26
    21fa:	bb 1b       	sub	r27, r27
    21fc:	fd 01       	movw	r30, r26
    21fe:	0d c0       	rjmp	.+26     	; 0x221a <__udivmodsi4_ep>

00002200 <__udivmodsi4_loop>:
    2200:	aa 1f       	adc	r26, r26
    2202:	bb 1f       	adc	r27, r27
    2204:	ee 1f       	adc	r30, r30
    2206:	ff 1f       	adc	r31, r31
    2208:	a2 17       	cp	r26, r18
    220a:	b3 07       	cpc	r27, r19
    220c:	e4 07       	cpc	r30, r20
    220e:	f5 07       	cpc	r31, r21
    2210:	20 f0       	brcs	.+8      	; 0x221a <__udivmodsi4_ep>
    2212:	a2 1b       	sub	r26, r18
    2214:	b3 0b       	sbc	r27, r19
    2216:	e4 0b       	sbc	r30, r20
    2218:	f5 0b       	sbc	r31, r21

0000221a <__udivmodsi4_ep>:
    221a:	66 1f       	adc	r22, r22
    221c:	77 1f       	adc	r23, r23
    221e:	88 1f       	adc	r24, r24
    2220:	99 1f       	adc	r25, r25
    2222:	1a 94       	dec	r1
    2224:	69 f7       	brne	.-38     	; 0x2200 <__udivmodsi4_loop>
    2226:	60 95       	com	r22
    2228:	70 95       	com	r23
    222a:	80 95       	com	r24
    222c:	90 95       	com	r25
    222e:	9b 01       	movw	r18, r22
    2230:	ac 01       	movw	r20, r24
    2232:	bd 01       	movw	r22, r26
    2234:	cf 01       	movw	r24, r30
    2236:	08 95       	ret

00002238 <sprintf>:
    2238:	ae e0       	ldi	r26, 0x0E	; 14
    223a:	b0 e0       	ldi	r27, 0x00	; 0
    223c:	e2 e2       	ldi	r30, 0x22	; 34
    223e:	f1 e1       	ldi	r31, 0x11	; 17
    2240:	0c 94 cb 13 	jmp	0x2796	; 0x2796 <__prologue_saves__+0x1c>
    2244:	0d 89       	ldd	r16, Y+21	; 0x15
    2246:	1e 89       	ldd	r17, Y+22	; 0x16
    2248:	86 e0       	ldi	r24, 0x06	; 6
    224a:	8c 83       	std	Y+4, r24	; 0x04
    224c:	1a 83       	std	Y+2, r17	; 0x02
    224e:	09 83       	std	Y+1, r16	; 0x01
    2250:	8f ef       	ldi	r24, 0xFF	; 255
    2252:	9f e7       	ldi	r25, 0x7F	; 127
    2254:	9e 83       	std	Y+6, r25	; 0x06
    2256:	8d 83       	std	Y+5, r24	; 0x05
    2258:	9e 01       	movw	r18, r28
    225a:	27 5e       	subi	r18, 0xE7	; 231
    225c:	3f 4f       	sbci	r19, 0xFF	; 255
    225e:	ce 01       	movw	r24, r28
    2260:	01 96       	adiw	r24, 0x01	; 1
    2262:	6f 89       	ldd	r22, Y+23	; 0x17
    2264:	78 8d       	ldd	r23, Y+24	; 0x18
    2266:	a9 01       	movw	r20, r18
    2268:	0e 94 40 11 	call	0x2280	; 0x2280 <vfprintf>
    226c:	2f 81       	ldd	r18, Y+7	; 0x07
    226e:	38 85       	ldd	r19, Y+8	; 0x08
    2270:	02 0f       	add	r16, r18
    2272:	13 1f       	adc	r17, r19
    2274:	f8 01       	movw	r30, r16
    2276:	10 82       	st	Z, r1
    2278:	2e 96       	adiw	r28, 0x0e	; 14
    227a:	e4 e0       	ldi	r30, 0x04	; 4
    227c:	0c 94 e7 13 	jmp	0x27ce	; 0x27ce <__epilogue_restores__+0x1c>

00002280 <vfprintf>:
    2280:	ab e0       	ldi	r26, 0x0B	; 11
    2282:	b0 e0       	ldi	r27, 0x00	; 0
    2284:	e6 e4       	ldi	r30, 0x46	; 70
    2286:	f1 e1       	ldi	r31, 0x11	; 17
    2288:	0c 94 bd 13 	jmp	0x277a	; 0x277a <__prologue_saves__>
    228c:	3c 01       	movw	r6, r24
    228e:	2b 01       	movw	r4, r22
    2290:	5a 01       	movw	r10, r20
    2292:	fc 01       	movw	r30, r24
    2294:	17 82       	std	Z+7, r1	; 0x07
    2296:	16 82       	std	Z+6, r1	; 0x06
    2298:	83 81       	ldd	r24, Z+3	; 0x03
    229a:	81 fd       	sbrc	r24, 1
    229c:	03 c0       	rjmp	.+6      	; 0x22a4 <vfprintf+0x24>
    229e:	6f ef       	ldi	r22, 0xFF	; 255
    22a0:	7f ef       	ldi	r23, 0xFF	; 255
    22a2:	c6 c1       	rjmp	.+908    	; 0x2630 <vfprintf+0x3b0>
    22a4:	9a e0       	ldi	r25, 0x0A	; 10
    22a6:	89 2e       	mov	r8, r25
    22a8:	1e 01       	movw	r2, r28
    22aa:	08 94       	sec
    22ac:	21 1c       	adc	r2, r1
    22ae:	31 1c       	adc	r3, r1
    22b0:	f3 01       	movw	r30, r6
    22b2:	23 81       	ldd	r18, Z+3	; 0x03
    22b4:	f2 01       	movw	r30, r4
    22b6:	23 fd       	sbrc	r18, 3
    22b8:	85 91       	lpm	r24, Z+
    22ba:	23 ff       	sbrs	r18, 3
    22bc:	81 91       	ld	r24, Z+
    22be:	2f 01       	movw	r4, r30
    22c0:	88 23       	and	r24, r24
    22c2:	09 f4       	brne	.+2      	; 0x22c6 <vfprintf+0x46>
    22c4:	b2 c1       	rjmp	.+868    	; 0x262a <vfprintf+0x3aa>
    22c6:	85 32       	cpi	r24, 0x25	; 37
    22c8:	39 f4       	brne	.+14     	; 0x22d8 <vfprintf+0x58>
    22ca:	23 fd       	sbrc	r18, 3
    22cc:	85 91       	lpm	r24, Z+
    22ce:	23 ff       	sbrs	r18, 3
    22d0:	81 91       	ld	r24, Z+
    22d2:	2f 01       	movw	r4, r30
    22d4:	85 32       	cpi	r24, 0x25	; 37
    22d6:	29 f4       	brne	.+10     	; 0x22e2 <vfprintf+0x62>
    22d8:	90 e0       	ldi	r25, 0x00	; 0
    22da:	b3 01       	movw	r22, r6
    22dc:	0e 94 33 13 	call	0x2666	; 0x2666 <fputc>
    22e0:	e7 cf       	rjmp	.-50     	; 0x22b0 <vfprintf+0x30>
    22e2:	98 2f       	mov	r25, r24
    22e4:	ff 24       	eor	r15, r15
    22e6:	ee 24       	eor	r14, r14
    22e8:	99 24       	eor	r9, r9
    22ea:	ff e1       	ldi	r31, 0x1F	; 31
    22ec:	ff 15       	cp	r31, r15
    22ee:	d0 f0       	brcs	.+52     	; 0x2324 <vfprintf+0xa4>
    22f0:	9b 32       	cpi	r25, 0x2B	; 43
    22f2:	69 f0       	breq	.+26     	; 0x230e <vfprintf+0x8e>
    22f4:	9c 32       	cpi	r25, 0x2C	; 44
    22f6:	28 f4       	brcc	.+10     	; 0x2302 <vfprintf+0x82>
    22f8:	90 32       	cpi	r25, 0x20	; 32
    22fa:	59 f0       	breq	.+22     	; 0x2312 <vfprintf+0x92>
    22fc:	93 32       	cpi	r25, 0x23	; 35
    22fe:	91 f4       	brne	.+36     	; 0x2324 <vfprintf+0xa4>
    2300:	0e c0       	rjmp	.+28     	; 0x231e <vfprintf+0x9e>
    2302:	9d 32       	cpi	r25, 0x2D	; 45
    2304:	49 f0       	breq	.+18     	; 0x2318 <vfprintf+0x98>
    2306:	90 33       	cpi	r25, 0x30	; 48
    2308:	69 f4       	brne	.+26     	; 0x2324 <vfprintf+0xa4>
    230a:	41 e0       	ldi	r20, 0x01	; 1
    230c:	24 c0       	rjmp	.+72     	; 0x2356 <vfprintf+0xd6>
    230e:	52 e0       	ldi	r21, 0x02	; 2
    2310:	f5 2a       	or	r15, r21
    2312:	84 e0       	ldi	r24, 0x04	; 4
    2314:	f8 2a       	or	r15, r24
    2316:	28 c0       	rjmp	.+80     	; 0x2368 <vfprintf+0xe8>
    2318:	98 e0       	ldi	r25, 0x08	; 8
    231a:	f9 2a       	or	r15, r25
    231c:	25 c0       	rjmp	.+74     	; 0x2368 <vfprintf+0xe8>
    231e:	e0 e1       	ldi	r30, 0x10	; 16
    2320:	fe 2a       	or	r15, r30
    2322:	22 c0       	rjmp	.+68     	; 0x2368 <vfprintf+0xe8>
    2324:	f7 fc       	sbrc	r15, 7
    2326:	29 c0       	rjmp	.+82     	; 0x237a <vfprintf+0xfa>
    2328:	89 2f       	mov	r24, r25
    232a:	80 53       	subi	r24, 0x30	; 48
    232c:	8a 30       	cpi	r24, 0x0A	; 10
    232e:	70 f4       	brcc	.+28     	; 0x234c <vfprintf+0xcc>
    2330:	f6 fe       	sbrs	r15, 6
    2332:	05 c0       	rjmp	.+10     	; 0x233e <vfprintf+0xbe>
    2334:	98 9c       	mul	r9, r8
    2336:	90 2c       	mov	r9, r0
    2338:	11 24       	eor	r1, r1
    233a:	98 0e       	add	r9, r24
    233c:	15 c0       	rjmp	.+42     	; 0x2368 <vfprintf+0xe8>
    233e:	e8 9c       	mul	r14, r8
    2340:	e0 2c       	mov	r14, r0
    2342:	11 24       	eor	r1, r1
    2344:	e8 0e       	add	r14, r24
    2346:	f0 e2       	ldi	r31, 0x20	; 32
    2348:	ff 2a       	or	r15, r31
    234a:	0e c0       	rjmp	.+28     	; 0x2368 <vfprintf+0xe8>
    234c:	9e 32       	cpi	r25, 0x2E	; 46
    234e:	29 f4       	brne	.+10     	; 0x235a <vfprintf+0xda>
    2350:	f6 fc       	sbrc	r15, 6
    2352:	6b c1       	rjmp	.+726    	; 0x262a <vfprintf+0x3aa>
    2354:	40 e4       	ldi	r20, 0x40	; 64
    2356:	f4 2a       	or	r15, r20
    2358:	07 c0       	rjmp	.+14     	; 0x2368 <vfprintf+0xe8>
    235a:	9c 36       	cpi	r25, 0x6C	; 108
    235c:	19 f4       	brne	.+6      	; 0x2364 <vfprintf+0xe4>
    235e:	50 e8       	ldi	r21, 0x80	; 128
    2360:	f5 2a       	or	r15, r21
    2362:	02 c0       	rjmp	.+4      	; 0x2368 <vfprintf+0xe8>
    2364:	98 36       	cpi	r25, 0x68	; 104
    2366:	49 f4       	brne	.+18     	; 0x237a <vfprintf+0xfa>
    2368:	f2 01       	movw	r30, r4
    236a:	23 fd       	sbrc	r18, 3
    236c:	95 91       	lpm	r25, Z+
    236e:	23 ff       	sbrs	r18, 3
    2370:	91 91       	ld	r25, Z+
    2372:	2f 01       	movw	r4, r30
    2374:	99 23       	and	r25, r25
    2376:	09 f0       	breq	.+2      	; 0x237a <vfprintf+0xfa>
    2378:	b8 cf       	rjmp	.-144    	; 0x22ea <vfprintf+0x6a>
    237a:	89 2f       	mov	r24, r25
    237c:	85 54       	subi	r24, 0x45	; 69
    237e:	83 30       	cpi	r24, 0x03	; 3
    2380:	18 f0       	brcs	.+6      	; 0x2388 <vfprintf+0x108>
    2382:	80 52       	subi	r24, 0x20	; 32
    2384:	83 30       	cpi	r24, 0x03	; 3
    2386:	38 f4       	brcc	.+14     	; 0x2396 <vfprintf+0x116>
    2388:	44 e0       	ldi	r20, 0x04	; 4
    238a:	50 e0       	ldi	r21, 0x00	; 0
    238c:	a4 0e       	add	r10, r20
    238e:	b5 1e       	adc	r11, r21
    2390:	5f e3       	ldi	r21, 0x3F	; 63
    2392:	59 83       	std	Y+1, r21	; 0x01
    2394:	0f c0       	rjmp	.+30     	; 0x23b4 <vfprintf+0x134>
    2396:	93 36       	cpi	r25, 0x63	; 99
    2398:	31 f0       	breq	.+12     	; 0x23a6 <vfprintf+0x126>
    239a:	93 37       	cpi	r25, 0x73	; 115
    239c:	79 f0       	breq	.+30     	; 0x23bc <vfprintf+0x13c>
    239e:	93 35       	cpi	r25, 0x53	; 83
    23a0:	09 f0       	breq	.+2      	; 0x23a4 <vfprintf+0x124>
    23a2:	56 c0       	rjmp	.+172    	; 0x2450 <vfprintf+0x1d0>
    23a4:	20 c0       	rjmp	.+64     	; 0x23e6 <vfprintf+0x166>
    23a6:	f5 01       	movw	r30, r10
    23a8:	80 81       	ld	r24, Z
    23aa:	89 83       	std	Y+1, r24	; 0x01
    23ac:	42 e0       	ldi	r20, 0x02	; 2
    23ae:	50 e0       	ldi	r21, 0x00	; 0
    23b0:	a4 0e       	add	r10, r20
    23b2:	b5 1e       	adc	r11, r21
    23b4:	61 01       	movw	r12, r2
    23b6:	01 e0       	ldi	r16, 0x01	; 1
    23b8:	10 e0       	ldi	r17, 0x00	; 0
    23ba:	12 c0       	rjmp	.+36     	; 0x23e0 <vfprintf+0x160>
    23bc:	f5 01       	movw	r30, r10
    23be:	c0 80       	ld	r12, Z
    23c0:	d1 80       	ldd	r13, Z+1	; 0x01
    23c2:	f6 fc       	sbrc	r15, 6
    23c4:	03 c0       	rjmp	.+6      	; 0x23cc <vfprintf+0x14c>
    23c6:	6f ef       	ldi	r22, 0xFF	; 255
    23c8:	7f ef       	ldi	r23, 0xFF	; 255
    23ca:	02 c0       	rjmp	.+4      	; 0x23d0 <vfprintf+0x150>
    23cc:	69 2d       	mov	r22, r9
    23ce:	70 e0       	ldi	r23, 0x00	; 0
    23d0:	42 e0       	ldi	r20, 0x02	; 2
    23d2:	50 e0       	ldi	r21, 0x00	; 0
    23d4:	a4 0e       	add	r10, r20
    23d6:	b5 1e       	adc	r11, r21
    23d8:	c6 01       	movw	r24, r12
    23da:	0e 94 28 13 	call	0x2650	; 0x2650 <strnlen>
    23de:	8c 01       	movw	r16, r24
    23e0:	5f e7       	ldi	r21, 0x7F	; 127
    23e2:	f5 22       	and	r15, r21
    23e4:	14 c0       	rjmp	.+40     	; 0x240e <vfprintf+0x18e>
    23e6:	f5 01       	movw	r30, r10
    23e8:	c0 80       	ld	r12, Z
    23ea:	d1 80       	ldd	r13, Z+1	; 0x01
    23ec:	f6 fc       	sbrc	r15, 6
    23ee:	03 c0       	rjmp	.+6      	; 0x23f6 <vfprintf+0x176>
    23f0:	6f ef       	ldi	r22, 0xFF	; 255
    23f2:	7f ef       	ldi	r23, 0xFF	; 255
    23f4:	02 c0       	rjmp	.+4      	; 0x23fa <vfprintf+0x17a>
    23f6:	69 2d       	mov	r22, r9
    23f8:	70 e0       	ldi	r23, 0x00	; 0
    23fa:	42 e0       	ldi	r20, 0x02	; 2
    23fc:	50 e0       	ldi	r21, 0x00	; 0
    23fe:	a4 0e       	add	r10, r20
    2400:	b5 1e       	adc	r11, r21
    2402:	c6 01       	movw	r24, r12
    2404:	0e 94 1d 13 	call	0x263a	; 0x263a <strnlen_P>
    2408:	8c 01       	movw	r16, r24
    240a:	50 e8       	ldi	r21, 0x80	; 128
    240c:	f5 2a       	or	r15, r21
    240e:	f3 fe       	sbrs	r15, 3
    2410:	07 c0       	rjmp	.+14     	; 0x2420 <vfprintf+0x1a0>
    2412:	1a c0       	rjmp	.+52     	; 0x2448 <vfprintf+0x1c8>
    2414:	80 e2       	ldi	r24, 0x20	; 32
    2416:	90 e0       	ldi	r25, 0x00	; 0
    2418:	b3 01       	movw	r22, r6
    241a:	0e 94 33 13 	call	0x2666	; 0x2666 <fputc>
    241e:	ea 94       	dec	r14
    2420:	8e 2d       	mov	r24, r14
    2422:	90 e0       	ldi	r25, 0x00	; 0
    2424:	08 17       	cp	r16, r24
    2426:	19 07       	cpc	r17, r25
    2428:	a8 f3       	brcs	.-22     	; 0x2414 <vfprintf+0x194>
    242a:	0e c0       	rjmp	.+28     	; 0x2448 <vfprintf+0x1c8>
    242c:	f6 01       	movw	r30, r12
    242e:	f7 fc       	sbrc	r15, 7
    2430:	85 91       	lpm	r24, Z+
    2432:	f7 fe       	sbrs	r15, 7
    2434:	81 91       	ld	r24, Z+
    2436:	6f 01       	movw	r12, r30
    2438:	90 e0       	ldi	r25, 0x00	; 0
    243a:	b3 01       	movw	r22, r6
    243c:	0e 94 33 13 	call	0x2666	; 0x2666 <fputc>
    2440:	e1 10       	cpse	r14, r1
    2442:	ea 94       	dec	r14
    2444:	01 50       	subi	r16, 0x01	; 1
    2446:	10 40       	sbci	r17, 0x00	; 0
    2448:	01 15       	cp	r16, r1
    244a:	11 05       	cpc	r17, r1
    244c:	79 f7       	brne	.-34     	; 0x242c <vfprintf+0x1ac>
    244e:	ea c0       	rjmp	.+468    	; 0x2624 <vfprintf+0x3a4>
    2450:	94 36       	cpi	r25, 0x64	; 100
    2452:	11 f0       	breq	.+4      	; 0x2458 <vfprintf+0x1d8>
    2454:	99 36       	cpi	r25, 0x69	; 105
    2456:	69 f5       	brne	.+90     	; 0x24b2 <vfprintf+0x232>
    2458:	f7 fe       	sbrs	r15, 7
    245a:	08 c0       	rjmp	.+16     	; 0x246c <vfprintf+0x1ec>
    245c:	f5 01       	movw	r30, r10
    245e:	20 81       	ld	r18, Z
    2460:	31 81       	ldd	r19, Z+1	; 0x01
    2462:	42 81       	ldd	r20, Z+2	; 0x02
    2464:	53 81       	ldd	r21, Z+3	; 0x03
    2466:	84 e0       	ldi	r24, 0x04	; 4
    2468:	90 e0       	ldi	r25, 0x00	; 0
    246a:	0a c0       	rjmp	.+20     	; 0x2480 <vfprintf+0x200>
    246c:	f5 01       	movw	r30, r10
    246e:	80 81       	ld	r24, Z
    2470:	91 81       	ldd	r25, Z+1	; 0x01
    2472:	9c 01       	movw	r18, r24
    2474:	44 27       	eor	r20, r20
    2476:	37 fd       	sbrc	r19, 7
    2478:	40 95       	com	r20
    247a:	54 2f       	mov	r21, r20
    247c:	82 e0       	ldi	r24, 0x02	; 2
    247e:	90 e0       	ldi	r25, 0x00	; 0
    2480:	a8 0e       	add	r10, r24
    2482:	b9 1e       	adc	r11, r25
    2484:	9f e6       	ldi	r25, 0x6F	; 111
    2486:	f9 22       	and	r15, r25
    2488:	57 ff       	sbrs	r21, 7
    248a:	09 c0       	rjmp	.+18     	; 0x249e <vfprintf+0x21e>
    248c:	50 95       	com	r21
    248e:	40 95       	com	r20
    2490:	30 95       	com	r19
    2492:	21 95       	neg	r18
    2494:	3f 4f       	sbci	r19, 0xFF	; 255
    2496:	4f 4f       	sbci	r20, 0xFF	; 255
    2498:	5f 4f       	sbci	r21, 0xFF	; 255
    249a:	e0 e8       	ldi	r30, 0x80	; 128
    249c:	fe 2a       	or	r15, r30
    249e:	ca 01       	movw	r24, r20
    24a0:	b9 01       	movw	r22, r18
    24a2:	a1 01       	movw	r20, r2
    24a4:	2a e0       	ldi	r18, 0x0A	; 10
    24a6:	30 e0       	ldi	r19, 0x00	; 0
    24a8:	0e 94 5f 13 	call	0x26be	; 0x26be <__ultoa_invert>
    24ac:	d8 2e       	mov	r13, r24
    24ae:	d2 18       	sub	r13, r2
    24b0:	40 c0       	rjmp	.+128    	; 0x2532 <vfprintf+0x2b2>
    24b2:	95 37       	cpi	r25, 0x75	; 117
    24b4:	29 f4       	brne	.+10     	; 0x24c0 <vfprintf+0x240>
    24b6:	1f 2d       	mov	r17, r15
    24b8:	1f 7e       	andi	r17, 0xEF	; 239
    24ba:	2a e0       	ldi	r18, 0x0A	; 10
    24bc:	30 e0       	ldi	r19, 0x00	; 0
    24be:	1d c0       	rjmp	.+58     	; 0x24fa <vfprintf+0x27a>
    24c0:	1f 2d       	mov	r17, r15
    24c2:	19 7f       	andi	r17, 0xF9	; 249
    24c4:	9f 36       	cpi	r25, 0x6F	; 111
    24c6:	61 f0       	breq	.+24     	; 0x24e0 <vfprintf+0x260>
    24c8:	90 37       	cpi	r25, 0x70	; 112
    24ca:	20 f4       	brcc	.+8      	; 0x24d4 <vfprintf+0x254>
    24cc:	98 35       	cpi	r25, 0x58	; 88
    24ce:	09 f0       	breq	.+2      	; 0x24d2 <vfprintf+0x252>
    24d0:	ac c0       	rjmp	.+344    	; 0x262a <vfprintf+0x3aa>
    24d2:	0f c0       	rjmp	.+30     	; 0x24f2 <vfprintf+0x272>
    24d4:	90 37       	cpi	r25, 0x70	; 112
    24d6:	39 f0       	breq	.+14     	; 0x24e6 <vfprintf+0x266>
    24d8:	98 37       	cpi	r25, 0x78	; 120
    24da:	09 f0       	breq	.+2      	; 0x24de <vfprintf+0x25e>
    24dc:	a6 c0       	rjmp	.+332    	; 0x262a <vfprintf+0x3aa>
    24de:	04 c0       	rjmp	.+8      	; 0x24e8 <vfprintf+0x268>
    24e0:	28 e0       	ldi	r18, 0x08	; 8
    24e2:	30 e0       	ldi	r19, 0x00	; 0
    24e4:	0a c0       	rjmp	.+20     	; 0x24fa <vfprintf+0x27a>
    24e6:	10 61       	ori	r17, 0x10	; 16
    24e8:	14 fd       	sbrc	r17, 4
    24ea:	14 60       	ori	r17, 0x04	; 4
    24ec:	20 e1       	ldi	r18, 0x10	; 16
    24ee:	30 e0       	ldi	r19, 0x00	; 0
    24f0:	04 c0       	rjmp	.+8      	; 0x24fa <vfprintf+0x27a>
    24f2:	14 fd       	sbrc	r17, 4
    24f4:	16 60       	ori	r17, 0x06	; 6
    24f6:	20 e1       	ldi	r18, 0x10	; 16
    24f8:	32 e0       	ldi	r19, 0x02	; 2
    24fa:	17 ff       	sbrs	r17, 7
    24fc:	08 c0       	rjmp	.+16     	; 0x250e <vfprintf+0x28e>
    24fe:	f5 01       	movw	r30, r10
    2500:	60 81       	ld	r22, Z
    2502:	71 81       	ldd	r23, Z+1	; 0x01
    2504:	82 81       	ldd	r24, Z+2	; 0x02
    2506:	93 81       	ldd	r25, Z+3	; 0x03
    2508:	44 e0       	ldi	r20, 0x04	; 4
    250a:	50 e0       	ldi	r21, 0x00	; 0
    250c:	08 c0       	rjmp	.+16     	; 0x251e <vfprintf+0x29e>
    250e:	f5 01       	movw	r30, r10
    2510:	80 81       	ld	r24, Z
    2512:	91 81       	ldd	r25, Z+1	; 0x01
    2514:	bc 01       	movw	r22, r24
    2516:	80 e0       	ldi	r24, 0x00	; 0
    2518:	90 e0       	ldi	r25, 0x00	; 0
    251a:	42 e0       	ldi	r20, 0x02	; 2
    251c:	50 e0       	ldi	r21, 0x00	; 0
    251e:	a4 0e       	add	r10, r20
    2520:	b5 1e       	adc	r11, r21
    2522:	a1 01       	movw	r20, r2
    2524:	0e 94 5f 13 	call	0x26be	; 0x26be <__ultoa_invert>
    2528:	d8 2e       	mov	r13, r24
    252a:	d2 18       	sub	r13, r2
    252c:	8f e7       	ldi	r24, 0x7F	; 127
    252e:	f8 2e       	mov	r15, r24
    2530:	f1 22       	and	r15, r17
    2532:	f6 fe       	sbrs	r15, 6
    2534:	0b c0       	rjmp	.+22     	; 0x254c <vfprintf+0x2cc>
    2536:	5e ef       	ldi	r21, 0xFE	; 254
    2538:	f5 22       	and	r15, r21
    253a:	d9 14       	cp	r13, r9
    253c:	38 f4       	brcc	.+14     	; 0x254c <vfprintf+0x2cc>
    253e:	f4 fe       	sbrs	r15, 4
    2540:	07 c0       	rjmp	.+14     	; 0x2550 <vfprintf+0x2d0>
    2542:	f2 fc       	sbrc	r15, 2
    2544:	05 c0       	rjmp	.+10     	; 0x2550 <vfprintf+0x2d0>
    2546:	8f ee       	ldi	r24, 0xEF	; 239
    2548:	f8 22       	and	r15, r24
    254a:	02 c0       	rjmp	.+4      	; 0x2550 <vfprintf+0x2d0>
    254c:	1d 2d       	mov	r17, r13
    254e:	01 c0       	rjmp	.+2      	; 0x2552 <vfprintf+0x2d2>
    2550:	19 2d       	mov	r17, r9
    2552:	f4 fe       	sbrs	r15, 4
    2554:	0d c0       	rjmp	.+26     	; 0x2570 <vfprintf+0x2f0>
    2556:	fe 01       	movw	r30, r28
    2558:	ed 0d       	add	r30, r13
    255a:	f1 1d       	adc	r31, r1
    255c:	80 81       	ld	r24, Z
    255e:	80 33       	cpi	r24, 0x30	; 48
    2560:	19 f4       	brne	.+6      	; 0x2568 <vfprintf+0x2e8>
    2562:	99 ee       	ldi	r25, 0xE9	; 233
    2564:	f9 22       	and	r15, r25
    2566:	08 c0       	rjmp	.+16     	; 0x2578 <vfprintf+0x2f8>
    2568:	1f 5f       	subi	r17, 0xFF	; 255
    256a:	f2 fe       	sbrs	r15, 2
    256c:	05 c0       	rjmp	.+10     	; 0x2578 <vfprintf+0x2f8>
    256e:	03 c0       	rjmp	.+6      	; 0x2576 <vfprintf+0x2f6>
    2570:	8f 2d       	mov	r24, r15
    2572:	86 78       	andi	r24, 0x86	; 134
    2574:	09 f0       	breq	.+2      	; 0x2578 <vfprintf+0x2f8>
    2576:	1f 5f       	subi	r17, 0xFF	; 255
    2578:	0f 2d       	mov	r16, r15
    257a:	f3 fc       	sbrc	r15, 3
    257c:	14 c0       	rjmp	.+40     	; 0x25a6 <vfprintf+0x326>
    257e:	f0 fe       	sbrs	r15, 0
    2580:	0f c0       	rjmp	.+30     	; 0x25a0 <vfprintf+0x320>
    2582:	1e 15       	cp	r17, r14
    2584:	10 f0       	brcs	.+4      	; 0x258a <vfprintf+0x30a>
    2586:	9d 2c       	mov	r9, r13
    2588:	0b c0       	rjmp	.+22     	; 0x25a0 <vfprintf+0x320>
    258a:	9d 2c       	mov	r9, r13
    258c:	9e 0c       	add	r9, r14
    258e:	91 1a       	sub	r9, r17
    2590:	1e 2d       	mov	r17, r14
    2592:	06 c0       	rjmp	.+12     	; 0x25a0 <vfprintf+0x320>
    2594:	80 e2       	ldi	r24, 0x20	; 32
    2596:	90 e0       	ldi	r25, 0x00	; 0
    2598:	b3 01       	movw	r22, r6
    259a:	0e 94 33 13 	call	0x2666	; 0x2666 <fputc>
    259e:	1f 5f       	subi	r17, 0xFF	; 255
    25a0:	1e 15       	cp	r17, r14
    25a2:	c0 f3       	brcs	.-16     	; 0x2594 <vfprintf+0x314>
    25a4:	04 c0       	rjmp	.+8      	; 0x25ae <vfprintf+0x32e>
    25a6:	1e 15       	cp	r17, r14
    25a8:	10 f4       	brcc	.+4      	; 0x25ae <vfprintf+0x32e>
    25aa:	e1 1a       	sub	r14, r17
    25ac:	01 c0       	rjmp	.+2      	; 0x25b0 <vfprintf+0x330>
    25ae:	ee 24       	eor	r14, r14
    25b0:	04 ff       	sbrs	r16, 4
    25b2:	0f c0       	rjmp	.+30     	; 0x25d2 <vfprintf+0x352>
    25b4:	80 e3       	ldi	r24, 0x30	; 48
    25b6:	90 e0       	ldi	r25, 0x00	; 0
    25b8:	b3 01       	movw	r22, r6
    25ba:	0e 94 33 13 	call	0x2666	; 0x2666 <fputc>
    25be:	02 ff       	sbrs	r16, 2
    25c0:	1d c0       	rjmp	.+58     	; 0x25fc <vfprintf+0x37c>
    25c2:	01 fd       	sbrc	r16, 1
    25c4:	03 c0       	rjmp	.+6      	; 0x25cc <vfprintf+0x34c>
    25c6:	88 e7       	ldi	r24, 0x78	; 120
    25c8:	90 e0       	ldi	r25, 0x00	; 0
    25ca:	0e c0       	rjmp	.+28     	; 0x25e8 <vfprintf+0x368>
    25cc:	88 e5       	ldi	r24, 0x58	; 88
    25ce:	90 e0       	ldi	r25, 0x00	; 0
    25d0:	0b c0       	rjmp	.+22     	; 0x25e8 <vfprintf+0x368>
    25d2:	80 2f       	mov	r24, r16
    25d4:	86 78       	andi	r24, 0x86	; 134
    25d6:	91 f0       	breq	.+36     	; 0x25fc <vfprintf+0x37c>
    25d8:	01 ff       	sbrs	r16, 1
    25da:	02 c0       	rjmp	.+4      	; 0x25e0 <vfprintf+0x360>
    25dc:	8b e2       	ldi	r24, 0x2B	; 43
    25de:	01 c0       	rjmp	.+2      	; 0x25e2 <vfprintf+0x362>
    25e0:	80 e2       	ldi	r24, 0x20	; 32
    25e2:	f7 fc       	sbrc	r15, 7
    25e4:	8d e2       	ldi	r24, 0x2D	; 45
    25e6:	90 e0       	ldi	r25, 0x00	; 0
    25e8:	b3 01       	movw	r22, r6
    25ea:	0e 94 33 13 	call	0x2666	; 0x2666 <fputc>
    25ee:	06 c0       	rjmp	.+12     	; 0x25fc <vfprintf+0x37c>
    25f0:	80 e3       	ldi	r24, 0x30	; 48
    25f2:	90 e0       	ldi	r25, 0x00	; 0
    25f4:	b3 01       	movw	r22, r6
    25f6:	0e 94 33 13 	call	0x2666	; 0x2666 <fputc>
    25fa:	9a 94       	dec	r9
    25fc:	d9 14       	cp	r13, r9
    25fe:	c0 f3       	brcs	.-16     	; 0x25f0 <vfprintf+0x370>
    2600:	da 94       	dec	r13
    2602:	f1 01       	movw	r30, r2
    2604:	ed 0d       	add	r30, r13
    2606:	f1 1d       	adc	r31, r1
    2608:	80 81       	ld	r24, Z
    260a:	90 e0       	ldi	r25, 0x00	; 0
    260c:	b3 01       	movw	r22, r6
    260e:	0e 94 33 13 	call	0x2666	; 0x2666 <fputc>
    2612:	dd 20       	and	r13, r13
    2614:	a9 f7       	brne	.-22     	; 0x2600 <vfprintf+0x380>
    2616:	06 c0       	rjmp	.+12     	; 0x2624 <vfprintf+0x3a4>
    2618:	80 e2       	ldi	r24, 0x20	; 32
    261a:	90 e0       	ldi	r25, 0x00	; 0
    261c:	b3 01       	movw	r22, r6
    261e:	0e 94 33 13 	call	0x2666	; 0x2666 <fputc>
    2622:	ea 94       	dec	r14
    2624:	ee 20       	and	r14, r14
    2626:	c1 f7       	brne	.-16     	; 0x2618 <vfprintf+0x398>
    2628:	43 ce       	rjmp	.-890    	; 0x22b0 <vfprintf+0x30>
    262a:	f3 01       	movw	r30, r6
    262c:	66 81       	ldd	r22, Z+6	; 0x06
    262e:	77 81       	ldd	r23, Z+7	; 0x07
    2630:	cb 01       	movw	r24, r22
    2632:	2b 96       	adiw	r28, 0x0b	; 11
    2634:	e2 e1       	ldi	r30, 0x12	; 18
    2636:	0c 94 d9 13 	jmp	0x27b2	; 0x27b2 <__epilogue_restores__>

0000263a <strnlen_P>:
    263a:	fc 01       	movw	r30, r24
    263c:	05 90       	lpm	r0, Z+
    263e:	61 50       	subi	r22, 0x01	; 1
    2640:	70 40       	sbci	r23, 0x00	; 0
    2642:	01 10       	cpse	r0, r1
    2644:	d8 f7       	brcc	.-10     	; 0x263c <strnlen_P+0x2>
    2646:	80 95       	com	r24
    2648:	90 95       	com	r25
    264a:	8e 0f       	add	r24, r30
    264c:	9f 1f       	adc	r25, r31
    264e:	08 95       	ret

00002650 <strnlen>:
    2650:	fc 01       	movw	r30, r24
    2652:	61 50       	subi	r22, 0x01	; 1
    2654:	70 40       	sbci	r23, 0x00	; 0
    2656:	01 90       	ld	r0, Z+
    2658:	01 10       	cpse	r0, r1
    265a:	d8 f7       	brcc	.-10     	; 0x2652 <strnlen+0x2>
    265c:	80 95       	com	r24
    265e:	90 95       	com	r25
    2660:	8e 0f       	add	r24, r30
    2662:	9f 1f       	adc	r25, r31
    2664:	08 95       	ret

00002666 <fputc>:
    2666:	0f 93       	push	r16
    2668:	1f 93       	push	r17
    266a:	cf 93       	push	r28
    266c:	df 93       	push	r29
    266e:	8c 01       	movw	r16, r24
    2670:	eb 01       	movw	r28, r22
    2672:	8b 81       	ldd	r24, Y+3	; 0x03
    2674:	81 ff       	sbrs	r24, 1
    2676:	1b c0       	rjmp	.+54     	; 0x26ae <fputc+0x48>
    2678:	82 ff       	sbrs	r24, 2
    267a:	0d c0       	rjmp	.+26     	; 0x2696 <fputc+0x30>
    267c:	2e 81       	ldd	r18, Y+6	; 0x06
    267e:	3f 81       	ldd	r19, Y+7	; 0x07
    2680:	8c 81       	ldd	r24, Y+4	; 0x04
    2682:	9d 81       	ldd	r25, Y+5	; 0x05
    2684:	28 17       	cp	r18, r24
    2686:	39 07       	cpc	r19, r25
    2688:	64 f4       	brge	.+24     	; 0x26a2 <fputc+0x3c>
    268a:	e8 81       	ld	r30, Y
    268c:	f9 81       	ldd	r31, Y+1	; 0x01
    268e:	01 93       	st	Z+, r16
    2690:	f9 83       	std	Y+1, r31	; 0x01
    2692:	e8 83       	st	Y, r30
    2694:	06 c0       	rjmp	.+12     	; 0x26a2 <fputc+0x3c>
    2696:	e8 85       	ldd	r30, Y+8	; 0x08
    2698:	f9 85       	ldd	r31, Y+9	; 0x09
    269a:	80 2f       	mov	r24, r16
    269c:	09 95       	icall
    269e:	89 2b       	or	r24, r25
    26a0:	31 f4       	brne	.+12     	; 0x26ae <fputc+0x48>
    26a2:	8e 81       	ldd	r24, Y+6	; 0x06
    26a4:	9f 81       	ldd	r25, Y+7	; 0x07
    26a6:	01 96       	adiw	r24, 0x01	; 1
    26a8:	9f 83       	std	Y+7, r25	; 0x07
    26aa:	8e 83       	std	Y+6, r24	; 0x06
    26ac:	02 c0       	rjmp	.+4      	; 0x26b2 <fputc+0x4c>
    26ae:	0f ef       	ldi	r16, 0xFF	; 255
    26b0:	1f ef       	ldi	r17, 0xFF	; 255
    26b2:	c8 01       	movw	r24, r16
    26b4:	df 91       	pop	r29
    26b6:	cf 91       	pop	r28
    26b8:	1f 91       	pop	r17
    26ba:	0f 91       	pop	r16
    26bc:	08 95       	ret

000026be <__ultoa_invert>:
    26be:	fa 01       	movw	r30, r20
    26c0:	aa 27       	eor	r26, r26
    26c2:	28 30       	cpi	r18, 0x08	; 8
    26c4:	51 f1       	breq	.+84     	; 0x271a <__ultoa_invert+0x5c>
    26c6:	20 31       	cpi	r18, 0x10	; 16
    26c8:	81 f1       	breq	.+96     	; 0x272a <__ultoa_invert+0x6c>
    26ca:	e8 94       	clt
    26cc:	6f 93       	push	r22
    26ce:	6e 7f       	andi	r22, 0xFE	; 254
    26d0:	6e 5f       	subi	r22, 0xFE	; 254
    26d2:	7f 4f       	sbci	r23, 0xFF	; 255
    26d4:	8f 4f       	sbci	r24, 0xFF	; 255
    26d6:	9f 4f       	sbci	r25, 0xFF	; 255
    26d8:	af 4f       	sbci	r26, 0xFF	; 255
    26da:	b1 e0       	ldi	r27, 0x01	; 1
    26dc:	3e d0       	rcall	.+124    	; 0x275a <__ultoa_invert+0x9c>
    26de:	b4 e0       	ldi	r27, 0x04	; 4
    26e0:	3c d0       	rcall	.+120    	; 0x275a <__ultoa_invert+0x9c>
    26e2:	67 0f       	add	r22, r23
    26e4:	78 1f       	adc	r23, r24
    26e6:	89 1f       	adc	r24, r25
    26e8:	9a 1f       	adc	r25, r26
    26ea:	a1 1d       	adc	r26, r1
    26ec:	68 0f       	add	r22, r24
    26ee:	79 1f       	adc	r23, r25
    26f0:	8a 1f       	adc	r24, r26
    26f2:	91 1d       	adc	r25, r1
    26f4:	a1 1d       	adc	r26, r1
    26f6:	6a 0f       	add	r22, r26
    26f8:	71 1d       	adc	r23, r1
    26fa:	81 1d       	adc	r24, r1
    26fc:	91 1d       	adc	r25, r1
    26fe:	a1 1d       	adc	r26, r1
    2700:	20 d0       	rcall	.+64     	; 0x2742 <__ultoa_invert+0x84>
    2702:	09 f4       	brne	.+2      	; 0x2706 <__ultoa_invert+0x48>
    2704:	68 94       	set
    2706:	3f 91       	pop	r19
    2708:	2a e0       	ldi	r18, 0x0A	; 10
    270a:	26 9f       	mul	r18, r22
    270c:	11 24       	eor	r1, r1
    270e:	30 19       	sub	r19, r0
    2710:	30 5d       	subi	r19, 0xD0	; 208
    2712:	31 93       	st	Z+, r19
    2714:	de f6       	brtc	.-74     	; 0x26cc <__ultoa_invert+0xe>
    2716:	cf 01       	movw	r24, r30
    2718:	08 95       	ret
    271a:	46 2f       	mov	r20, r22
    271c:	47 70       	andi	r20, 0x07	; 7
    271e:	40 5d       	subi	r20, 0xD0	; 208
    2720:	41 93       	st	Z+, r20
    2722:	b3 e0       	ldi	r27, 0x03	; 3
    2724:	0f d0       	rcall	.+30     	; 0x2744 <__ultoa_invert+0x86>
    2726:	c9 f7       	brne	.-14     	; 0x271a <__ultoa_invert+0x5c>
    2728:	f6 cf       	rjmp	.-20     	; 0x2716 <__ultoa_invert+0x58>
    272a:	46 2f       	mov	r20, r22
    272c:	4f 70       	andi	r20, 0x0F	; 15
    272e:	40 5d       	subi	r20, 0xD0	; 208
    2730:	4a 33       	cpi	r20, 0x3A	; 58
    2732:	18 f0       	brcs	.+6      	; 0x273a <__ultoa_invert+0x7c>
    2734:	49 5d       	subi	r20, 0xD9	; 217
    2736:	31 fd       	sbrc	r19, 1
    2738:	40 52       	subi	r20, 0x20	; 32
    273a:	41 93       	st	Z+, r20
    273c:	02 d0       	rcall	.+4      	; 0x2742 <__ultoa_invert+0x84>
    273e:	a9 f7       	brne	.-22     	; 0x272a <__ultoa_invert+0x6c>
    2740:	ea cf       	rjmp	.-44     	; 0x2716 <__ultoa_invert+0x58>
    2742:	b4 e0       	ldi	r27, 0x04	; 4
    2744:	a6 95       	lsr	r26
    2746:	97 95       	ror	r25
    2748:	87 95       	ror	r24
    274a:	77 95       	ror	r23
    274c:	67 95       	ror	r22
    274e:	ba 95       	dec	r27
    2750:	c9 f7       	brne	.-14     	; 0x2744 <__ultoa_invert+0x86>
    2752:	00 97       	sbiw	r24, 0x00	; 0
    2754:	61 05       	cpc	r22, r1
    2756:	71 05       	cpc	r23, r1
    2758:	08 95       	ret
    275a:	9b 01       	movw	r18, r22
    275c:	ac 01       	movw	r20, r24
    275e:	0a 2e       	mov	r0, r26
    2760:	06 94       	lsr	r0
    2762:	57 95       	ror	r21
    2764:	47 95       	ror	r20
    2766:	37 95       	ror	r19
    2768:	27 95       	ror	r18
    276a:	ba 95       	dec	r27
    276c:	c9 f7       	brne	.-14     	; 0x2760 <__ultoa_invert+0xa2>
    276e:	62 0f       	add	r22, r18
    2770:	73 1f       	adc	r23, r19
    2772:	84 1f       	adc	r24, r20
    2774:	95 1f       	adc	r25, r21
    2776:	a0 1d       	adc	r26, r0
    2778:	08 95       	ret

0000277a <__prologue_saves__>:
    277a:	2f 92       	push	r2
    277c:	3f 92       	push	r3
    277e:	4f 92       	push	r4
    2780:	5f 92       	push	r5
    2782:	6f 92       	push	r6
    2784:	7f 92       	push	r7
    2786:	8f 92       	push	r8
    2788:	9f 92       	push	r9
    278a:	af 92       	push	r10
    278c:	bf 92       	push	r11
    278e:	cf 92       	push	r12
    2790:	df 92       	push	r13
    2792:	ef 92       	push	r14
    2794:	ff 92       	push	r15
    2796:	0f 93       	push	r16
    2798:	1f 93       	push	r17
    279a:	cf 93       	push	r28
    279c:	df 93       	push	r29
    279e:	cd b7       	in	r28, 0x3d	; 61
    27a0:	de b7       	in	r29, 0x3e	; 62
    27a2:	ca 1b       	sub	r28, r26
    27a4:	db 0b       	sbc	r29, r27
    27a6:	0f b6       	in	r0, 0x3f	; 63
    27a8:	f8 94       	cli
    27aa:	de bf       	out	0x3e, r29	; 62
    27ac:	0f be       	out	0x3f, r0	; 63
    27ae:	cd bf       	out	0x3d, r28	; 61
    27b0:	09 94       	ijmp

000027b2 <__epilogue_restores__>:
    27b2:	2a 88       	ldd	r2, Y+18	; 0x12
    27b4:	39 88       	ldd	r3, Y+17	; 0x11
    27b6:	48 88       	ldd	r4, Y+16	; 0x10
    27b8:	5f 84       	ldd	r5, Y+15	; 0x0f
    27ba:	6e 84       	ldd	r6, Y+14	; 0x0e
    27bc:	7d 84       	ldd	r7, Y+13	; 0x0d
    27be:	8c 84       	ldd	r8, Y+12	; 0x0c
    27c0:	9b 84       	ldd	r9, Y+11	; 0x0b
    27c2:	aa 84       	ldd	r10, Y+10	; 0x0a
    27c4:	b9 84       	ldd	r11, Y+9	; 0x09
    27c6:	c8 84       	ldd	r12, Y+8	; 0x08
    27c8:	df 80       	ldd	r13, Y+7	; 0x07
    27ca:	ee 80       	ldd	r14, Y+6	; 0x06
    27cc:	fd 80       	ldd	r15, Y+5	; 0x05
    27ce:	0c 81       	ldd	r16, Y+4	; 0x04
    27d0:	1b 81       	ldd	r17, Y+3	; 0x03
    27d2:	aa 81       	ldd	r26, Y+2	; 0x02
    27d4:	b9 81       	ldd	r27, Y+1	; 0x01
    27d6:	ce 0f       	add	r28, r30
    27d8:	d1 1d       	adc	r29, r1
    27da:	0f b6       	in	r0, 0x3f	; 63
    27dc:	f8 94       	cli
    27de:	de bf       	out	0x3e, r29	; 62
    27e0:	0f be       	out	0x3f, r0	; 63
    27e2:	cd bf       	out	0x3d, r28	; 61
    27e4:	ed 01       	movw	r28, r26
    27e6:	08 95       	ret

000027e8 <_exit>:
    27e8:	f8 94       	cli

000027ea <__stop_program>:
    27ea:	ff cf       	rjmp	.-2      	; 0x27ea <__stop_program>
