
wordclock-bootloader.elf:     file format elf32-avr

Sections:
Idx Name          Size      VMA       LMA       File off  Algn
  0 .text         000006c6  00000000  00000000  00000094  2**1
                  CONTENTS, ALLOC, LOAD, READONLY, CODE
  1 .data         000000d6  00800060  000006c6  0000075a  2**0
                  CONTENTS, ALLOC, LOAD, DATA
  2 .bss          00000045  00800136  00800136  00000830  2**0
                  ALLOC

Disassembly of section .text:

00000000 <__vectors>:
   0:	0c 94 2a 00 	jmp	0x54	; 0x54 <__ctors_end>
   4:	0c 94 47 00 	jmp	0x8e	; 0x8e <__bad_interrupt>
   8:	0c 94 47 00 	jmp	0x8e	; 0x8e <__bad_interrupt>
   c:	0c 94 47 00 	jmp	0x8e	; 0x8e <__bad_interrupt>
  10:	0c 94 47 00 	jmp	0x8e	; 0x8e <__bad_interrupt>
  14:	0c 94 47 00 	jmp	0x8e	; 0x8e <__bad_interrupt>
  18:	0c 94 47 00 	jmp	0x8e	; 0x8e <__bad_interrupt>
  1c:	0c 94 47 00 	jmp	0x8e	; 0x8e <__bad_interrupt>
  20:	0c 94 47 00 	jmp	0x8e	; 0x8e <__bad_interrupt>
  24:	0c 94 47 00 	jmp	0x8e	; 0x8e <__bad_interrupt>
  28:	0c 94 47 00 	jmp	0x8e	; 0x8e <__bad_interrupt>
  2c:	0c 94 47 00 	jmp	0x8e	; 0x8e <__bad_interrupt>
  30:	0c 94 47 00 	jmp	0x8e	; 0x8e <__bad_interrupt>
  34:	0c 94 ac 02 	jmp	0x558	; 0x558 <__vector_13>
  38:	0c 94 d6 02 	jmp	0x5ac	; 0x5ac <__vector_14>
  3c:	0c 94 47 00 	jmp	0x8e	; 0x8e <__bad_interrupt>
  40:	0c 94 47 00 	jmp	0x8e	; 0x8e <__bad_interrupt>
  44:	0c 94 47 00 	jmp	0x8e	; 0x8e <__bad_interrupt>
  48:	0c 94 47 00 	jmp	0x8e	; 0x8e <__bad_interrupt>
  4c:	0c 94 47 00 	jmp	0x8e	; 0x8e <__bad_interrupt>
  50:	0c 94 47 00 	jmp	0x8e	; 0x8e <__bad_interrupt>

00000054 <__ctors_end>:
  54:	11 24       	eor	r1, r1
  56:	1f be       	out	0x3f, r1	; 63
  58:	cf e5       	ldi	r28, 0x5F	; 95
  5a:	d8 e0       	ldi	r29, 0x08	; 8
  5c:	de bf       	out	0x3e, r29	; 62
  5e:	cd bf       	out	0x3d, r28	; 61

00000060 <__do_copy_data>:
  60:	11 e0       	ldi	r17, 0x01	; 1
  62:	a0 e6       	ldi	r26, 0x60	; 96
  64:	b0 e0       	ldi	r27, 0x00	; 0
  66:	e6 ec       	ldi	r30, 0xC6	; 198
  68:	f6 e0       	ldi	r31, 0x06	; 6
  6a:	02 c0       	rjmp	.+4      	; 0x70 <.do_copy_data_start>

0000006c <.do_copy_data_loop>:
  6c:	05 90       	lpm	r0, Z+
  6e:	0d 92       	st	X+, r0

00000070 <.do_copy_data_start>:
  70:	a6 33       	cpi	r26, 0x36	; 54
  72:	b1 07       	cpc	r27, r17
  74:	d9 f7       	brne	.-10     	; 0x6c <.do_copy_data_loop>

00000076 <__do_clear_bss>:
  76:	11 e0       	ldi	r17, 0x01	; 1
  78:	a6 e3       	ldi	r26, 0x36	; 54
  7a:	b1 e0       	ldi	r27, 0x01	; 1
  7c:	01 c0       	rjmp	.+2      	; 0x80 <.do_clear_bss_start>

0000007e <.do_clear_bss_loop>:
  7e:	1d 92       	st	X+, r1

00000080 <.do_clear_bss_start>:
  80:	ab 37       	cpi	r26, 0x7B	; 123
  82:	b1 07       	cpc	r27, r17
  84:	e1 f7       	brne	.-8      	; 0x7e <.do_clear_bss_loop>
  86:	0e 94 a8 00 	call	0x150	; 0x150 <main>
  8a:	0c 94 61 03 	jmp	0x6c2	; 0x6c2 <_exit>

0000008e <__bad_interrupt>:
  8e:	0c 94 00 00 	jmp	0	; 0x0 <__vectors>

00000092 <program_page>:
  92:	0f 93       	push	r16
  94:	1f 93       	push	r17
  96:	cf 93       	push	r28
  98:	df 93       	push	r29
  9a:	da 01       	movw	r26, r20
  9c:	0f b7       	in	r16, 0x3f	; 63
  9e:	f8 94       	cli
  a0:	e1 99       	sbic	0x1c, 1	; 28
  a2:	fe cf       	rjmp	.-4      	; 0xa0 <program_page+0xe>
  a4:	ab 01       	movw	r20, r22
  a6:	83 e0       	ldi	r24, 0x03	; 3
  a8:	fb 01       	movw	r30, r22
  aa:	80 93 57 00 	sts	0x0057, r24
  ae:	e8 95       	spm
  b0:	07 b6       	in	r0, 0x37	; 55
  b2:	00 fc       	sbrc	r0, 0
  b4:	fd cf       	rjmp	.-6      	; 0xb0 <program_page+0x1e>
  b6:	fa 01       	movw	r30, r20
  b8:	11 e0       	ldi	r17, 0x01	; 1
  ba:	ba 01       	movw	r22, r20
  bc:	60 58       	subi	r22, 0x80	; 128
  be:	7f 4f       	sbci	r23, 0xFF	; 255
  c0:	8c 91       	ld	r24, X
  c2:	11 96       	adiw	r26, 0x01	; 1
  c4:	3c 91       	ld	r19, X
  c6:	11 97       	sbiw	r26, 0x01	; 1
  c8:	20 e0       	ldi	r18, 0x00	; 0
  ca:	e9 01       	movw	r28, r18
  cc:	c8 0f       	add	r28, r24
  ce:	d1 1d       	adc	r29, r1
  d0:	12 96       	adiw	r26, 0x02	; 2
  d2:	0e 01       	movw	r0, r28
  d4:	10 93 57 00 	sts	0x0057, r17
  d8:	e8 95       	spm
  da:	11 24       	eor	r1, r1
  dc:	32 96       	adiw	r30, 0x02	; 2
  de:	e6 17       	cp	r30, r22
  e0:	f7 07       	cpc	r31, r23
  e2:	71 f7       	brne	.-36     	; 0xc0 <program_page+0x2e>
  e4:	85 e0       	ldi	r24, 0x05	; 5
  e6:	fa 01       	movw	r30, r20
  e8:	80 93 57 00 	sts	0x0057, r24
  ec:	e8 95       	spm
  ee:	07 b6       	in	r0, 0x37	; 55
  f0:	00 fc       	sbrc	r0, 0
  f2:	fd cf       	rjmp	.-6      	; 0xee <program_page+0x5c>
  f4:	81 e1       	ldi	r24, 0x11	; 17
  f6:	80 93 57 00 	sts	0x0057, r24
  fa:	e8 95       	spm
  fc:	0f bf       	out	0x3f, r16	; 63
  fe:	df 91       	pop	r29
 100:	cf 91       	pop	r28
 102:	1f 91       	pop	r17
 104:	0f 91       	pop	r16
 106:	08 95       	ret

00000108 <hex2num>:
 108:	fc 01       	movw	r30, r24
 10a:	90 e0       	ldi	r25, 0x00	; 0
 10c:	40 e0       	ldi	r20, 0x00	; 0
 10e:	50 e0       	ldi	r21, 0x00	; 0
 110:	1b c0       	rjmp	.+54     	; 0x148 <hex2num+0x40>
 112:	20 81       	ld	r18, Z
 114:	82 2f       	mov	r24, r18
 116:	80 53       	subi	r24, 0x30	; 48
 118:	8a 30       	cpi	r24, 0x0A	; 10
 11a:	10 f4       	brcc	.+4      	; 0x120 <hex2num+0x18>
 11c:	28 2f       	mov	r18, r24
 11e:	0b c0       	rjmp	.+22     	; 0x136 <hex2num+0x2e>
 120:	82 2f       	mov	r24, r18
 122:	81 54       	subi	r24, 0x41	; 65
 124:	86 30       	cpi	r24, 0x06	; 6
 126:	10 f4       	brcc	.+4      	; 0x12c <hex2num+0x24>
 128:	27 53       	subi	r18, 0x37	; 55
 12a:	05 c0       	rjmp	.+10     	; 0x136 <hex2num+0x2e>
 12c:	82 2f       	mov	r24, r18
 12e:	81 56       	subi	r24, 0x61	; 97
 130:	86 30       	cpi	r24, 0x06	; 6
 132:	08 f4       	brcc	.+2      	; 0x136 <hex2num+0x2e>
 134:	27 55       	subi	r18, 0x57	; 87
 136:	84 e0       	ldi	r24, 0x04	; 4
 138:	44 0f       	add	r20, r20
 13a:	55 1f       	adc	r21, r21
 13c:	8a 95       	dec	r24
 13e:	e1 f7       	brne	.-8      	; 0x138 <hex2num+0x30>
 140:	42 0f       	add	r20, r18
 142:	51 1d       	adc	r21, r1
 144:	9f 5f       	subi	r25, 0xFF	; 255
 146:	31 96       	adiw	r30, 0x01	; 1
 148:	96 17       	cp	r25, r22
 14a:	18 f3       	brcs	.-58     	; 0x112 <hex2num+0xa>
 14c:	ca 01       	movw	r24, r20
 14e:	08 95       	ret

00000150 <main>:
 150:	2f 92       	push	r2
 152:	3f 92       	push	r3
 154:	4f 92       	push	r4
 156:	5f 92       	push	r5
 158:	6f 92       	push	r6
 15a:	7f 92       	push	r7
 15c:	8f 92       	push	r8
 15e:	9f 92       	push	r9
 160:	af 92       	push	r10
 162:	bf 92       	push	r11
 164:	cf 92       	push	r12
 166:	df 92       	push	r13
 168:	ef 92       	push	r14
 16a:	ff 92       	push	r15
 16c:	0f 93       	push	r16
 16e:	1f 93       	push	r17
 170:	df 93       	push	r29
 172:	cf 93       	push	r28
 174:	cd b7       	in	r28, 0x3d	; 61
 176:	de b7       	in	r29, 0x3e	; 62
 178:	c8 58       	subi	r28, 0x88	; 136
 17a:	d0 40       	sbci	r29, 0x00	; 0
 17c:	0f b6       	in	r0, 0x3f	; 63
 17e:	f8 94       	cli
 180:	de bf       	out	0x3e, r29	; 62
 182:	0f be       	out	0x3f, r0	; 63
 184:	cd bf       	out	0x3d, r28	; 61
 186:	fe 01       	movw	r30, r28
 188:	31 96       	adiw	r30, 0x01	; 1
 18a:	85 e0       	ldi	r24, 0x05	; 5
 18c:	df 01       	movw	r26, r30
 18e:	1d 92       	st	X+, r1
 190:	8a 95       	dec	r24
 192:	e9 f7       	brne	.-6      	; 0x18e <main+0x3e>
 194:	ce 01       	movw	r24, r28
 196:	06 96       	adiw	r24, 0x06	; 6
 198:	6f ef       	ldi	r22, 0xFF	; 255
 19a:	70 e0       	ldi	r23, 0x00	; 0
 19c:	40 e8       	ldi	r20, 0x80	; 128
 19e:	50 e0       	ldi	r21, 0x00	; 0
 1a0:	0e 94 5a 03 	call	0x6b4	; 0x6b4 <memset>
 1a4:	85 b7       	in	r24, 0x35	; 53
 1a6:	98 2f       	mov	r25, r24
 1a8:	91 60       	ori	r25, 0x01	; 1
 1aa:	95 bf       	out	0x35, r25	; 53
 1ac:	82 60       	ori	r24, 0x02	; 2
 1ae:	85 bf       	out	0x35, r24	; 53
 1b0:	87 e0       	ldi	r24, 0x07	; 7
 1b2:	90 e0       	ldi	r25, 0x00	; 0
 1b4:	0e 94 fb 02 	call	0x5f6	; 0x5f6 <uart_init>
 1b8:	78 94       	sei
 1ba:	80 e6       	ldi	r24, 0x60	; 96
 1bc:	90 e0       	ldi	r25, 0x00	; 0
 1be:	0e 94 3f 03 	call	0x67e	; 0x67e <uart_puts>
 1c2:	80 e2       	ldi	r24, 0x20	; 32
 1c4:	9e e4       	ldi	r25, 0x4E	; 78
 1c6:	20 e7       	ldi	r18, 0x70	; 112
 1c8:	31 e0       	ldi	r19, 0x01	; 1
 1ca:	f9 01       	movw	r30, r18
 1cc:	31 97       	sbiw	r30, 0x01	; 1
 1ce:	f1 f7       	brne	.-4      	; 0x1cc <main+0x7c>
 1d0:	01 97       	sbiw	r24, 0x01	; 1
 1d2:	d9 f7       	brne	.-10     	; 0x1ca <main+0x7a>
 1d4:	66 24       	eor	r6, r6
 1d6:	77 24       	eor	r7, r7
 1d8:	cc 24       	eor	r12, r12
 1da:	dd 24       	eor	r13, r13
 1dc:	88 24       	eor	r8, r8
 1de:	99 24       	eor	r9, r9
 1e0:	ee 24       	eor	r14, r14
 1e2:	c8 57       	subi	r28, 0x78	; 120
 1e4:	df 4f       	sbci	r29, 0xFF	; 255
 1e6:	18 82       	st	Y, r1
 1e8:	c8 58       	subi	r28, 0x88	; 136
 1ea:	d0 40       	sbci	r29, 0x00	; 0
 1ec:	b1 e0       	ldi	r27, 0x01	; 1
 1ee:	c9 57       	subi	r28, 0x79	; 121
 1f0:	df 4f       	sbci	r29, 0xFF	; 255
 1f2:	b8 83       	st	Y, r27
 1f4:	c7 58       	subi	r28, 0x87	; 135
 1f6:	d0 40       	sbci	r29, 0x00	; 0
 1f8:	ff 24       	eor	r15, r15
 1fa:	ca 57       	subi	r28, 0x7A	; 122
 1fc:	df 4f       	sbci	r29, 0xFF	; 255
 1fe:	18 82       	st	Y, r1
 200:	c6 58       	subi	r28, 0x86	; 134
 202:	d0 40       	sbci	r29, 0x00	; 0
 204:	55 24       	eor	r5, r5
 206:	44 24       	eor	r4, r4
 208:	5e 01       	movw	r10, r28
 20a:	08 94       	sec
 20c:	a1 1c       	adc	r10, r1
 20e:	b1 1c       	adc	r11, r1
 210:	36 e0       	ldi	r19, 0x06	; 6
 212:	23 2e       	mov	r2, r19
 214:	31 2c       	mov	r3, r1
 216:	2c 0e       	add	r2, r28
 218:	3d 1e       	adc	r3, r29
 21a:	0e 94 10 03 	call	0x620	; 0x620 <uart_getc>
 21e:	8c 01       	movw	r16, r24
 220:	90 fd       	sbrc	r25, 0
 222:	64 c1       	rjmp	.+712    	; 0x4ec <main+0x39c>
 224:	21 e0       	ldi	r18, 0x01	; 1
 226:	e2 16       	cp	r14, r18
 228:	09 f0       	breq	.+2      	; 0x22c <main+0xdc>
 22a:	43 c1       	rjmp	.+646    	; 0x4b2 <main+0x362>
 22c:	c8 57       	subi	r28, 0x78	; 120
 22e:	df 4f       	sbci	r29, 0xFF	; 255
 230:	88 81       	ld	r24, Y
 232:	c8 58       	subi	r28, 0x88	; 136
 234:	d0 40       	sbci	r29, 0x00	; 0
 236:	83 30       	cpi	r24, 0x03	; 3
 238:	09 f4       	brne	.+2      	; 0x23c <main+0xec>
 23a:	7b c0       	rjmp	.+246    	; 0x332 <main+0x1e2>
 23c:	84 30       	cpi	r24, 0x04	; 4
 23e:	30 f4       	brcc	.+12     	; 0x24c <main+0xfc>
 240:	81 30       	cpi	r24, 0x01	; 1
 242:	29 f1       	breq	.+74     	; 0x28e <main+0x13e>
 244:	82 30       	cpi	r24, 0x02	; 2
 246:	08 f0       	brcs	.+2      	; 0x24a <main+0xfa>
 248:	44 c0       	rjmp	.+136    	; 0x2d2 <main+0x182>
 24a:	0f c0       	rjmp	.+30     	; 0x26a <main+0x11a>
 24c:	c8 57       	subi	r28, 0x78	; 120
 24e:	df 4f       	sbci	r29, 0xFF	; 255
 250:	a8 81       	ld	r26, Y
 252:	c8 58       	subi	r28, 0x88	; 136
 254:	d0 40       	sbci	r29, 0x00	; 0
 256:	a5 30       	cpi	r26, 0x05	; 5
 258:	09 f4       	brne	.+2      	; 0x25c <main+0x10c>
 25a:	e9 c0       	rjmp	.+466    	; 0x42e <main+0x2de>
 25c:	a5 30       	cpi	r26, 0x05	; 5
 25e:	08 f4       	brcc	.+2      	; 0x262 <main+0x112>
 260:	91 c0       	rjmp	.+290    	; 0x384 <main+0x234>
 262:	a6 30       	cpi	r26, 0x06	; 6
 264:	09 f0       	breq	.+2      	; 0x268 <main+0x118>
 266:	75 c1       	rjmp	.+746    	; 0x552 <main+0x402>
 268:	20 c1       	rjmp	.+576    	; 0x4aa <main+0x35a>
 26a:	0a 33       	cpi	r16, 0x3A	; 58
 26c:	09 f0       	breq	.+2      	; 0x270 <main+0x120>
 26e:	71 c1       	rjmp	.+738    	; 0x552 <main+0x402>
 270:	83 e1       	ldi	r24, 0x13	; 19
 272:	0e 94 2d 03 	call	0x65a	; 0x65a <uart_putc>
 276:	81 e1       	ldi	r24, 0x11	; 17
 278:	0e 94 2d 03 	call	0x65a	; 0x65a <uart_putc>
 27c:	cc 24       	eor	r12, r12
 27e:	dd 24       	eor	r13, r13
 280:	b1 e0       	ldi	r27, 0x01	; 1
 282:	c8 57       	subi	r28, 0x78	; 120
 284:	df 4f       	sbci	r29, 0xFF	; 255
 286:	b8 83       	st	Y, r27
 288:	c8 58       	subi	r28, 0x88	; 136
 28a:	d0 40       	sbci	r29, 0x00	; 0
 28c:	20 c0       	rjmp	.+64     	; 0x2ce <main+0x17e>
 28e:	f5 01       	movw	r30, r10
 290:	ef 0d       	add	r30, r15
 292:	f1 1d       	adc	r31, r1
 294:	00 83       	st	Z, r16
 296:	f3 94       	inc	r15
 298:	22 e0       	ldi	r18, 0x02	; 2
 29a:	f2 16       	cp	r15, r18
 29c:	09 f0       	breq	.+2      	; 0x2a0 <main+0x150>
 29e:	59 c1       	rjmp	.+690    	; 0x552 <main+0x402>
 2a0:	83 e1       	ldi	r24, 0x13	; 19
 2a2:	0e 94 2d 03 	call	0x65a	; 0x65a <uart_putc>
 2a6:	c5 01       	movw	r24, r10
 2a8:	62 e0       	ldi	r22, 0x02	; 2
 2aa:	0e 94 84 00 	call	0x108	; 0x108 <hex2num>
 2ae:	ca 57       	subi	r28, 0x7A	; 122
 2b0:	df 4f       	sbci	r29, 0xFF	; 255
 2b2:	88 83       	st	Y, r24
 2b4:	c6 58       	subi	r28, 0x86	; 134
 2b6:	d0 40       	sbci	r29, 0x00	; 0
 2b8:	c8 0e       	add	r12, r24
 2ba:	d1 1c       	adc	r13, r1
 2bc:	81 e1       	ldi	r24, 0x11	; 17
 2be:	0e 94 2d 03 	call	0x65a	; 0x65a <uart_putc>
 2c2:	82 e0       	ldi	r24, 0x02	; 2
 2c4:	c8 57       	subi	r28, 0x78	; 120
 2c6:	df 4f       	sbci	r29, 0xFF	; 255
 2c8:	88 83       	st	Y, r24
 2ca:	c8 58       	subi	r28, 0x88	; 136
 2cc:	d0 40       	sbci	r29, 0x00	; 0
 2ce:	ff 24       	eor	r15, r15
 2d0:	40 c1       	rjmp	.+640    	; 0x552 <main+0x402>
 2d2:	f5 01       	movw	r30, r10
 2d4:	ef 0d       	add	r30, r15
 2d6:	f1 1d       	adc	r31, r1
 2d8:	00 83       	st	Z, r16
 2da:	f3 94       	inc	r15
 2dc:	a4 e0       	ldi	r26, 0x04	; 4
 2de:	fa 16       	cp	r15, r26
 2e0:	09 f0       	breq	.+2      	; 0x2e4 <main+0x194>
 2e2:	37 c1       	rjmp	.+622    	; 0x552 <main+0x402>
 2e4:	83 e1       	ldi	r24, 0x13	; 19
 2e6:	0e 94 2d 03 	call	0x65a	; 0x65a <uart_putc>
 2ea:	c5 01       	movw	r24, r10
 2ec:	64 e0       	ldi	r22, 0x04	; 4
 2ee:	0e 94 84 00 	call	0x108	; 0x108 <hex2num>
 2f2:	c9 57       	subi	r28, 0x79	; 121
 2f4:	df 4f       	sbci	r29, 0xFF	; 255
 2f6:	b8 81       	ld	r27, Y
 2f8:	c7 58       	subi	r28, 0x87	; 135
 2fa:	d0 40       	sbci	r29, 0x00	; 0
 2fc:	bb 23       	and	r27, r27
 2fe:	31 f0       	breq	.+12     	; 0x30c <main+0x1bc>
 300:	20 e8       	ldi	r18, 0x80	; 128
 302:	62 2e       	mov	r6, r18
 304:	2f ef       	ldi	r18, 0xFF	; 255
 306:	72 2e       	mov	r7, r18
 308:	68 22       	and	r6, r24
 30a:	79 22       	and	r7, r25
 30c:	c8 0e       	add	r12, r24
 30e:	d1 1c       	adc	r13, r1
 310:	c9 0e       	add	r12, r25
 312:	d1 1c       	adc	r13, r1
 314:	81 e1       	ldi	r24, 0x11	; 17
 316:	0e 94 2d 03 	call	0x65a	; 0x65a <uart_putc>
 31a:	23 e0       	ldi	r18, 0x03	; 3
 31c:	c8 57       	subi	r28, 0x78	; 120
 31e:	df 4f       	sbci	r29, 0xFF	; 255
 320:	28 83       	st	Y, r18
 322:	c8 58       	subi	r28, 0x88	; 136
 324:	d0 40       	sbci	r29, 0x00	; 0
 326:	c9 57       	subi	r28, 0x79	; 121
 328:	df 4f       	sbci	r29, 0xFF	; 255
 32a:	18 82       	st	Y, r1
 32c:	c7 58       	subi	r28, 0x87	; 135
 32e:	d0 40       	sbci	r29, 0x00	; 0
 330:	ce cf       	rjmp	.-100    	; 0x2ce <main+0x17e>
 332:	f5 01       	movw	r30, r10
 334:	ef 0d       	add	r30, r15
 336:	f1 1d       	adc	r31, r1
 338:	00 83       	st	Z, r16
 33a:	f3 94       	inc	r15
 33c:	82 e0       	ldi	r24, 0x02	; 2
 33e:	f8 16       	cp	r15, r24
 340:	09 f0       	breq	.+2      	; 0x344 <main+0x1f4>
 342:	07 c1       	rjmp	.+526    	; 0x552 <main+0x402>
 344:	83 e1       	ldi	r24, 0x13	; 19
 346:	0e 94 2d 03 	call	0x65a	; 0x65a <uart_putc>
 34a:	c5 01       	movw	r24, r10
 34c:	62 e0       	ldi	r22, 0x02	; 2
 34e:	0e 94 84 00 	call	0x108	; 0x108 <hex2num>
 352:	48 2e       	mov	r4, r24
 354:	a1 e0       	ldi	r26, 0x01	; 1
 356:	8a 17       	cp	r24, r26
 358:	39 f0       	breq	.+14     	; 0x368 <main+0x218>
 35a:	b4 e0       	ldi	r27, 0x04	; 4
 35c:	c8 57       	subi	r28, 0x78	; 120
 35e:	df 4f       	sbci	r29, 0xFF	; 255
 360:	b8 83       	st	Y, r27
 362:	c8 58       	subi	r28, 0x88	; 136
 364:	d0 40       	sbci	r29, 0x00	; 0
 366:	06 c0       	rjmp	.+12     	; 0x374 <main+0x224>
 368:	25 e0       	ldi	r18, 0x05	; 5
 36a:	c8 57       	subi	r28, 0x78	; 120
 36c:	df 4f       	sbci	r29, 0xFF	; 255
 36e:	28 83       	st	Y, r18
 370:	c8 58       	subi	r28, 0x88	; 136
 372:	d0 40       	sbci	r29, 0x00	; 0
 374:	c4 0c       	add	r12, r4
 376:	d1 1c       	adc	r13, r1
 378:	81 e1       	ldi	r24, 0x11	; 17
 37a:	0e 94 2d 03 	call	0x65a	; 0x65a <uart_putc>
 37e:	ff 24       	eor	r15, r15
 380:	55 24       	eor	r5, r5
 382:	e7 c0       	rjmp	.+462    	; 0x552 <main+0x402>
 384:	f5 01       	movw	r30, r10
 386:	ef 0d       	add	r30, r15
 388:	f1 1d       	adc	r31, r1
 38a:	00 83       	st	Z, r16
 38c:	f3 94       	inc	r15
 38e:	82 e0       	ldi	r24, 0x02	; 2
 390:	f8 16       	cp	r15, r24
 392:	09 f0       	breq	.+2      	; 0x396 <main+0x246>
 394:	de c0       	rjmp	.+444    	; 0x552 <main+0x402>
 396:	83 e1       	ldi	r24, 0x13	; 19
 398:	0e 94 2d 03 	call	0x65a	; 0x65a <uart_putc>
 39c:	8e e2       	ldi	r24, 0x2E	; 46
 39e:	0e 94 2d 03 	call	0x65a	; 0x65a <uart_putc>
 3a2:	c5 01       	movw	r24, r10
 3a4:	62 e0       	ldi	r22, 0x02	; 2
 3a6:	0e 94 84 00 	call	0x108	; 0x108 <hex2num>
 3aa:	18 2f       	mov	r17, r24
 3ac:	f1 01       	movw	r30, r2
 3ae:	e8 0d       	add	r30, r8
 3b0:	f9 1d       	adc	r31, r9
 3b2:	80 83       	st	Z, r24
 3b4:	08 94       	sec
 3b6:	81 1c       	adc	r8, r1
 3b8:	91 1c       	adc	r9, r1
 3ba:	53 94       	inc	r5
 3bc:	ca 57       	subi	r28, 0x7A	; 122
 3be:	df 4f       	sbci	r29, 0xFF	; 255
 3c0:	a8 81       	ld	r26, Y
 3c2:	c6 58       	subi	r28, 0x86	; 134
 3c4:	d0 40       	sbci	r29, 0x00	; 0
 3c6:	5a 16       	cp	r5, r26
 3c8:	39 f4       	brne	.+14     	; 0x3d8 <main+0x288>
 3ca:	b5 e0       	ldi	r27, 0x05	; 5
 3cc:	c8 57       	subi	r28, 0x78	; 120
 3ce:	df 4f       	sbci	r29, 0xFF	; 255
 3d0:	b8 83       	st	Y, r27
 3d2:	c8 58       	subi	r28, 0x88	; 136
 3d4:	d0 40       	sbci	r29, 0x00	; 0
 3d6:	55 24       	eor	r5, r5
 3d8:	20 e8       	ldi	r18, 0x80	; 128
 3da:	82 16       	cp	r8, r18
 3dc:	91 04       	cpc	r9, r1
 3de:	09 f5       	brne	.+66     	; 0x422 <main+0x2d2>
 3e0:	86 e8       	ldi	r24, 0x86	; 134
 3e2:	90 e0       	ldi	r25, 0x00	; 0
 3e4:	0e 94 3f 03 	call	0x67e	; 0x67e <uart_puts>
 3e8:	88 ee       	ldi	r24, 0xE8	; 232
 3ea:	93 e0       	ldi	r25, 0x03	; 3
 3ec:	e0 e7       	ldi	r30, 0x70	; 112
 3ee:	f1 e0       	ldi	r31, 0x01	; 1
 3f0:	31 97       	sbiw	r30, 0x01	; 1
 3f2:	f1 f7       	brne	.-4      	; 0x3f0 <main+0x2a0>
 3f4:	01 97       	sbiw	r24, 0x01	; 1
 3f6:	d1 f7       	brne	.-12     	; 0x3ec <main+0x29c>
 3f8:	b3 01       	movw	r22, r6
 3fa:	80 e0       	ldi	r24, 0x00	; 0
 3fc:	90 e0       	ldi	r25, 0x00	; 0
 3fe:	a1 01       	movw	r20, r2
 400:	0e 94 49 00 	call	0x92	; 0x92 <program_page>
 404:	c1 01       	movw	r24, r2
 406:	6f ef       	ldi	r22, 0xFF	; 255
 408:	70 e0       	ldi	r23, 0x00	; 0
 40a:	40 e8       	ldi	r20, 0x80	; 128
 40c:	50 e0       	ldi	r21, 0x00	; 0
 40e:	0e 94 5a 03 	call	0x6b4	; 0x6b4 <memset>
 412:	88 24       	eor	r8, r8
 414:	99 24       	eor	r9, r9
 416:	81 e0       	ldi	r24, 0x01	; 1
 418:	c9 57       	subi	r28, 0x79	; 121
 41a:	df 4f       	sbci	r29, 0xFF	; 255
 41c:	88 83       	st	Y, r24
 41e:	c7 58       	subi	r28, 0x87	; 135
 420:	d0 40       	sbci	r29, 0x00	; 0
 422:	c1 0e       	add	r12, r17
 424:	d1 1c       	adc	r13, r1
 426:	81 e1       	ldi	r24, 0x11	; 17
 428:	0e 94 2d 03 	call	0x65a	; 0x65a <uart_putc>
 42c:	50 cf       	rjmp	.-352    	; 0x2ce <main+0x17e>
 42e:	f5 01       	movw	r30, r10
 430:	ef 0d       	add	r30, r15
 432:	f1 1d       	adc	r31, r1
 434:	00 83       	st	Z, r16
 436:	f3 94       	inc	r15
 438:	a2 e0       	ldi	r26, 0x02	; 2
 43a:	fa 16       	cp	r15, r26
 43c:	09 f0       	breq	.+2      	; 0x440 <main+0x2f0>
 43e:	89 c0       	rjmp	.+274    	; 0x552 <main+0x402>
 440:	83 e1       	ldi	r24, 0x13	; 19
 442:	0e 94 2d 03 	call	0x65a	; 0x65a <uart_putc>
 446:	c5 01       	movw	r24, r10
 448:	62 e0       	ldi	r22, 0x02	; 2
 44a:	0e 94 84 00 	call	0x108	; 0x108 <hex2num>
 44e:	c8 0e       	add	r12, r24
 450:	d1 1c       	adc	r13, r1
 452:	bf ef       	ldi	r27, 0xFF	; 255
 454:	cb 22       	and	r12, r27
 456:	dd 24       	eor	r13, r13
 458:	21 e0       	ldi	r18, 0x01	; 1
 45a:	42 16       	cp	r4, r18
 45c:	99 f4       	brne	.+38     	; 0x484 <main+0x334>
 45e:	86 e8       	ldi	r24, 0x86	; 134
 460:	90 e0       	ldi	r25, 0x00	; 0
 462:	0e 94 3f 03 	call	0x67e	; 0x67e <uart_puts>
 466:	88 ee       	ldi	r24, 0xE8	; 232
 468:	93 e0       	ldi	r25, 0x03	; 3
 46a:	e0 e7       	ldi	r30, 0x70	; 112
 46c:	f1 e0       	ldi	r31, 0x01	; 1
 46e:	31 97       	sbiw	r30, 0x01	; 1
 470:	f1 f7       	brne	.-4      	; 0x46e <main+0x31e>
 472:	01 97       	sbiw	r24, 0x01	; 1
 474:	d1 f7       	brne	.-12     	; 0x46a <main+0x31a>
 476:	b3 01       	movw	r22, r6
 478:	80 e0       	ldi	r24, 0x00	; 0
 47a:	90 e0       	ldi	r25, 0x00	; 0
 47c:	a1 01       	movw	r20, r2
 47e:	0e 94 49 00 	call	0x92	; 0x92 <program_page>
 482:	ee 24       	eor	r14, r14
 484:	c1 14       	cp	r12, r1
 486:	d1 04       	cpc	r13, r1
 488:	39 f0       	breq	.+14     	; 0x498 <main+0x348>
 48a:	86 e0       	ldi	r24, 0x06	; 6
 48c:	c8 57       	subi	r28, 0x78	; 120
 48e:	df 4f       	sbci	r29, 0xFF	; 255
 490:	88 83       	st	Y, r24
 492:	c8 58       	subi	r28, 0x88	; 136
 494:	d0 40       	sbci	r29, 0x00	; 0
 496:	05 c0       	rjmp	.+10     	; 0x4a2 <main+0x352>
 498:	c8 57       	subi	r28, 0x78	; 120
 49a:	df 4f       	sbci	r29, 0xFF	; 255
 49c:	18 82       	st	Y, r1
 49e:	c8 58       	subi	r28, 0x88	; 136
 4a0:	d0 40       	sbci	r29, 0x00	; 0
 4a2:	81 e1       	ldi	r24, 0x11	; 17
 4a4:	0e 94 2d 03 	call	0x65a	; 0x65a <uart_putc>
 4a8:	21 c0       	rjmp	.+66     	; 0x4ec <main+0x39c>
 4aa:	83 e2       	ldi	r24, 0x23	; 35
 4ac:	0e 94 2d 03 	call	0x65a	; 0x65a <uart_putc>
 4b0:	50 c0       	rjmp	.+160    	; 0x552 <main+0x402>
 4b2:	80 37       	cpi	r24, 0x70	; 112
 4b4:	19 f0       	breq	.+6      	; 0x4bc <main+0x36c>
 4b6:	81 37       	cpi	r24, 0x71	; 113
 4b8:	69 f4       	brne	.+26     	; 0x4d4 <main+0x384>
 4ba:	09 c0       	rjmp	.+18     	; 0x4ce <main+0x37e>
 4bc:	8a e8       	ldi	r24, 0x8A	; 138
 4be:	90 e0       	ldi	r25, 0x00	; 0
 4c0:	0e 94 3f 03 	call	0x67e	; 0x67e <uart_puts>
 4c4:	84 ea       	ldi	r24, 0xA4	; 164
 4c6:	90 e0       	ldi	r25, 0x00	; 0
 4c8:	0e 94 3f 03 	call	0x67e	; 0x67e <uart_puts>
 4cc:	42 c0       	rjmp	.+132    	; 0x552 <main+0x402>
 4ce:	86 ee       	ldi	r24, 0xE6	; 230
 4d0:	90 e0       	ldi	r25, 0x00	; 0
 4d2:	09 c0       	rjmp	.+18     	; 0x4e6 <main+0x396>
 4d4:	81 e0       	ldi	r24, 0x01	; 1
 4d6:	91 e0       	ldi	r25, 0x01	; 1
 4d8:	0e 94 3f 03 	call	0x67e	; 0x67e <uart_puts>
 4dc:	80 2f       	mov	r24, r16
 4de:	0e 94 2d 03 	call	0x65a	; 0x65a <uart_putc>
 4e2:	86 e2       	ldi	r24, 0x26	; 38
 4e4:	91 e0       	ldi	r25, 0x01	; 1
 4e6:	0e 94 3f 03 	call	0x67e	; 0x67e <uart_puts>
 4ea:	03 c0       	rjmp	.+6      	; 0x4f2 <main+0x3a2>
 4ec:	ee 20       	and	r14, r14
 4ee:	09 f0       	breq	.+2      	; 0x4f2 <main+0x3a2>
 4f0:	94 ce       	rjmp	.-728    	; 0x21a <main+0xca>
 4f2:	89 e2       	ldi	r24, 0x29	; 41
 4f4:	91 e0       	ldi	r25, 0x01	; 1
 4f6:	0e 94 3f 03 	call	0x67e	; 0x67e <uart_puts>
 4fa:	e0 e1       	ldi	r30, 0x10	; 16
 4fc:	f7 e2       	ldi	r31, 0x27	; 39
 4fe:	20 e7       	ldi	r18, 0x70	; 112
 500:	31 e0       	ldi	r19, 0x01	; 1
 502:	c9 01       	movw	r24, r18
 504:	01 97       	sbiw	r24, 0x01	; 1
 506:	f1 f7       	brne	.-4      	; 0x504 <main+0x3b4>
 508:	31 97       	sbiw	r30, 0x01	; 1
 50a:	d9 f7       	brne	.-10     	; 0x502 <main+0x3b2>
 50c:	85 b7       	in	r24, 0x35	; 53
 50e:	98 2f       	mov	r25, r24
 510:	91 60       	ori	r25, 0x01	; 1
 512:	95 bf       	out	0x35, r25	; 53
 514:	8d 7f       	andi	r24, 0xFD	; 253
 516:	85 bf       	out	0x35, r24	; 53
 518:	09 95       	icall
 51a:	80 e0       	ldi	r24, 0x00	; 0
 51c:	90 e0       	ldi	r25, 0x00	; 0
 51e:	c8 57       	subi	r28, 0x78	; 120
 520:	df 4f       	sbci	r29, 0xFF	; 255
 522:	0f b6       	in	r0, 0x3f	; 63
 524:	f8 94       	cli
 526:	de bf       	out	0x3e, r29	; 62
 528:	0f be       	out	0x3f, r0	; 63
 52a:	cd bf       	out	0x3d, r28	; 61
 52c:	cf 91       	pop	r28
 52e:	df 91       	pop	r29
 530:	1f 91       	pop	r17
 532:	0f 91       	pop	r16
 534:	ff 90       	pop	r15
 536:	ef 90       	pop	r14
 538:	df 90       	pop	r13
 53a:	cf 90       	pop	r12
 53c:	bf 90       	pop	r11
 53e:	af 90       	pop	r10
 540:	9f 90       	pop	r9
 542:	8f 90       	pop	r8
 544:	7f 90       	pop	r7
 546:	6f 90       	pop	r6
 548:	5f 90       	pop	r5
 54a:	4f 90       	pop	r4
 54c:	3f 90       	pop	r3
 54e:	2f 90       	pop	r2
 550:	08 95       	ret
 552:	ee 24       	eor	r14, r14
 554:	e3 94       	inc	r14
 556:	61 ce       	rjmp	.-830    	; 0x21a <main+0xca>

00000558 <__vector_13>:
 558:	1f 92       	push	r1
 55a:	0f 92       	push	r0
 55c:	0f b6       	in	r0, 0x3f	; 63
 55e:	0f 92       	push	r0
 560:	11 24       	eor	r1, r1
 562:	2f 93       	push	r18
 564:	8f 93       	push	r24
 566:	9f 93       	push	r25
 568:	ef 93       	push	r30
 56a:	ff 93       	push	r31
 56c:	9b b1       	in	r25, 0x0b	; 11
 56e:	2c b1       	in	r18, 0x0c	; 12
 570:	e0 91 78 01 	lds	r30, 0x0178
 574:	ef 5f       	subi	r30, 0xFF	; 255
 576:	ef 71       	andi	r30, 0x1F	; 31
 578:	80 91 79 01 	lds	r24, 0x0179
 57c:	e8 17       	cp	r30, r24
 57e:	11 f4       	brne	.+4      	; 0x584 <__vector_13+0x2c>
 580:	82 e0       	ldi	r24, 0x02	; 2
 582:	08 c0       	rjmp	.+16     	; 0x594 <__vector_13+0x3c>
 584:	89 2f       	mov	r24, r25
 586:	88 71       	andi	r24, 0x18	; 24
 588:	e0 93 78 01 	sts	0x0178, r30
 58c:	f0 e0       	ldi	r31, 0x00	; 0
 58e:	ea 5a       	subi	r30, 0xAA	; 170
 590:	fe 4f       	sbci	r31, 0xFE	; 254
 592:	20 83       	st	Z, r18
 594:	80 93 7a 01 	sts	0x017A, r24
 598:	ff 91       	pop	r31
 59a:	ef 91       	pop	r30
 59c:	9f 91       	pop	r25
 59e:	8f 91       	pop	r24
 5a0:	2f 91       	pop	r18
 5a2:	0f 90       	pop	r0
 5a4:	0f be       	out	0x3f, r0	; 63
 5a6:	0f 90       	pop	r0
 5a8:	1f 90       	pop	r1
 5aa:	18 95       	reti

000005ac <__vector_14>:
 5ac:	1f 92       	push	r1
 5ae:	0f 92       	push	r0
 5b0:	0f b6       	in	r0, 0x3f	; 63
 5b2:	0f 92       	push	r0
 5b4:	11 24       	eor	r1, r1
 5b6:	8f 93       	push	r24
 5b8:	9f 93       	push	r25
 5ba:	ef 93       	push	r30
 5bc:	ff 93       	push	r31
 5be:	90 91 76 01 	lds	r25, 0x0176
 5c2:	80 91 77 01 	lds	r24, 0x0177
 5c6:	98 17       	cp	r25, r24
 5c8:	61 f0       	breq	.+24     	; 0x5e2 <__vector_14+0x36>
 5ca:	e0 91 77 01 	lds	r30, 0x0177
 5ce:	ef 5f       	subi	r30, 0xFF	; 255
 5d0:	ef 71       	andi	r30, 0x1F	; 31
 5d2:	e0 93 77 01 	sts	0x0177, r30
 5d6:	f0 e0       	ldi	r31, 0x00	; 0
 5d8:	ea 5c       	subi	r30, 0xCA	; 202
 5da:	fe 4f       	sbci	r31, 0xFE	; 254
 5dc:	80 81       	ld	r24, Z
 5de:	8c b9       	out	0x0c, r24	; 12
 5e0:	01 c0       	rjmp	.+2      	; 0x5e4 <__vector_14+0x38>
 5e2:	55 98       	cbi	0x0a, 5	; 10
 5e4:	ff 91       	pop	r31
 5e6:	ef 91       	pop	r30
 5e8:	9f 91       	pop	r25
 5ea:	8f 91       	pop	r24
 5ec:	0f 90       	pop	r0
 5ee:	0f be       	out	0x3f, r0	; 63
 5f0:	0f 90       	pop	r0
 5f2:	1f 90       	pop	r1
 5f4:	18 95       	reti

000005f6 <uart_init>:
 5f6:	9c 01       	movw	r18, r24
 5f8:	10 92 76 01 	sts	0x0176, r1
 5fc:	10 92 77 01 	sts	0x0177, r1
 600:	10 92 78 01 	sts	0x0178, r1
 604:	10 92 79 01 	sts	0x0179, r1
 608:	97 ff       	sbrs	r25, 7
 60a:	03 c0       	rjmp	.+6      	; 0x612 <uart_init+0x1c>
 60c:	82 e0       	ldi	r24, 0x02	; 2
 60e:	8b b9       	out	0x0b, r24	; 11
 610:	3f 77       	andi	r19, 0x7F	; 127
 612:	30 bd       	out	0x20, r19	; 32
 614:	29 b9       	out	0x09, r18	; 9
 616:	88 e9       	ldi	r24, 0x98	; 152
 618:	8a b9       	out	0x0a, r24	; 10
 61a:	86 e8       	ldi	r24, 0x86	; 134
 61c:	80 bd       	out	0x20, r24	; 32
 61e:	08 95       	ret

00000620 <uart_getc>:
 620:	90 91 78 01 	lds	r25, 0x0178
 624:	80 91 79 01 	lds	r24, 0x0179
 628:	98 17       	cp	r25, r24
 62a:	19 f4       	brne	.+6      	; 0x632 <uart_getc+0x12>
 62c:	20 e0       	ldi	r18, 0x00	; 0
 62e:	31 e0       	ldi	r19, 0x01	; 1
 630:	12 c0       	rjmp	.+36     	; 0x656 <uart_getc+0x36>
 632:	e0 91 79 01 	lds	r30, 0x0179
 636:	ef 5f       	subi	r30, 0xFF	; 255
 638:	ef 71       	andi	r30, 0x1F	; 31
 63a:	e0 93 79 01 	sts	0x0179, r30
 63e:	f0 e0       	ldi	r31, 0x00	; 0
 640:	ea 5a       	subi	r30, 0xAA	; 170
 642:	fe 4f       	sbci	r31, 0xFE	; 254
 644:	30 81       	ld	r19, Z
 646:	20 91 7a 01 	lds	r18, 0x017A
 64a:	92 2f       	mov	r25, r18
 64c:	80 e0       	ldi	r24, 0x00	; 0
 64e:	ac 01       	movw	r20, r24
 650:	43 0f       	add	r20, r19
 652:	51 1d       	adc	r21, r1
 654:	9a 01       	movw	r18, r20
 656:	c9 01       	movw	r24, r18
 658:	08 95       	ret

0000065a <uart_putc>:
 65a:	28 2f       	mov	r18, r24
 65c:	90 91 76 01 	lds	r25, 0x0176
 660:	9f 5f       	subi	r25, 0xFF	; 255
 662:	9f 71       	andi	r25, 0x1F	; 31
 664:	80 91 77 01 	lds	r24, 0x0177
 668:	98 17       	cp	r25, r24
 66a:	e1 f3       	breq	.-8      	; 0x664 <uart_putc+0xa>
 66c:	e9 2f       	mov	r30, r25
 66e:	f0 e0       	ldi	r31, 0x00	; 0
 670:	ea 5c       	subi	r30, 0xCA	; 202
 672:	fe 4f       	sbci	r31, 0xFE	; 254
 674:	20 83       	st	Z, r18
 676:	90 93 76 01 	sts	0x0176, r25
 67a:	55 9a       	sbi	0x0a, 5	; 10
 67c:	08 95       	ret

0000067e <uart_puts>:
 67e:	cf 93       	push	r28
 680:	df 93       	push	r29
 682:	ec 01       	movw	r28, r24
 684:	03 c0       	rjmp	.+6      	; 0x68c <uart_puts+0xe>
 686:	21 96       	adiw	r28, 0x01	; 1
 688:	0e 94 2d 03 	call	0x65a	; 0x65a <uart_putc>
 68c:	88 81       	ld	r24, Y
 68e:	88 23       	and	r24, r24
 690:	d1 f7       	brne	.-12     	; 0x686 <uart_puts+0x8>
 692:	df 91       	pop	r29
 694:	cf 91       	pop	r28
 696:	08 95       	ret

00000698 <uart_puts_p>:
 698:	cf 93       	push	r28
 69a:	df 93       	push	r29
 69c:	ec 01       	movw	r28, r24
 69e:	02 c0       	rjmp	.+4      	; 0x6a4 <uart_puts_p+0xc>
 6a0:	0e 94 2d 03 	call	0x65a	; 0x65a <uart_putc>
 6a4:	fe 01       	movw	r30, r28
 6a6:	21 96       	adiw	r28, 0x01	; 1
 6a8:	84 91       	lpm	r24, Z+
 6aa:	88 23       	and	r24, r24
 6ac:	c9 f7       	brne	.-14     	; 0x6a0 <uart_puts_p+0x8>
 6ae:	df 91       	pop	r29
 6b0:	cf 91       	pop	r28
 6b2:	08 95       	ret

000006b4 <memset>:
 6b4:	dc 01       	movw	r26, r24
 6b6:	01 c0       	rjmp	.+2      	; 0x6ba <memset+0x6>
 6b8:	6d 93       	st	X+, r22
 6ba:	41 50       	subi	r20, 0x01	; 1
 6bc:	50 40       	sbci	r21, 0x00	; 0
 6be:	e0 f7       	brcc	.-8      	; 0x6b8 <memset+0x4>
 6c0:	08 95       	ret

000006c2 <_exit>:
 6c2:	f8 94       	cli

000006c4 <__stop_program>:
 6c4:	ff cf       	rjmp	.-2      	; 0x6c4 <__stop_program>
