
Schlafzimmer.elf:     file format elf32-avr

Sections:
Idx Name          Size      VMA       LMA       File off  Algn
  0 .text         000015ee  00000000  00000000  00000094  2**1
                  CONTENTS, ALLOC, LOAD, READONLY, CODE
  1 .data         000001fe  00800060  000015ee  00001682  2**0
                  CONTENTS, ALLOC, LOAD, DATA
  2 .bss          0000000e  0080025e  0080025e  00001880  2**0
                  ALLOC
  3 .stab         000006cc  00000000  00000000  00001880  2**2
                  CONTENTS, READONLY, DEBUGGING
  4 .stabstr      00000054  00000000  00000000  00001f4c  2**0
                  CONTENTS, READONLY, DEBUGGING

Disassembly of section .text:

00000000 <__vectors>:
       0:	2a c0       	rjmp	.+84     	; 0x56 <__ctors_end>
       2:	44 c0       	rjmp	.+136    	; 0x8c <__bad_interrupt>
       4:	43 c0       	rjmp	.+134    	; 0x8c <__bad_interrupt>
       6:	42 c0       	rjmp	.+132    	; 0x8c <__bad_interrupt>
       8:	41 c0       	rjmp	.+130    	; 0x8c <__bad_interrupt>
       a:	40 c0       	rjmp	.+128    	; 0x8c <__bad_interrupt>
       c:	3f c0       	rjmp	.+126    	; 0x8c <__bad_interrupt>
       e:	3e c0       	rjmp	.+124    	; 0x8c <__bad_interrupt>
      10:	3d c0       	rjmp	.+122    	; 0x8c <__bad_interrupt>
      12:	3c c0       	rjmp	.+120    	; 0x8c <__bad_interrupt>
      14:	3b c0       	rjmp	.+118    	; 0x8c <__bad_interrupt>
      16:	00 c5       	rjmp	.+2560   	; 0xa18 <__vector_11>
      18:	39 c0       	rjmp	.+114    	; 0x8c <__bad_interrupt>
      1a:	38 c0       	rjmp	.+112    	; 0x8c <__bad_interrupt>
      1c:	37 c0       	rjmp	.+110    	; 0x8c <__bad_interrupt>
      1e:	36 c0       	rjmp	.+108    	; 0x8c <__bad_interrupt>
      20:	35 c0       	rjmp	.+106    	; 0x8c <__bad_interrupt>
      22:	34 c0       	rjmp	.+104    	; 0x8c <__bad_interrupt>
      24:	33 c0       	rjmp	.+102    	; 0x8c <__bad_interrupt>
      26:	23 c6       	rjmp	.+3142   	; 0xc6e <readIr+0xee>
      28:	2f c6       	rjmp	.+3166   	; 0xc88 <readIr+0x108>
      2a:	3a c6       	rjmp	.+3188   	; 0xca0 <readIr+0x120>
      2c:	3d c6       	rjmp	.+3194   	; 0xca8 <readIr+0x128>
      2e:	49 c6       	rjmp	.+3218   	; 0xcc2 <readIr+0x142>
      30:	59 c6       	rjmp	.+3250   	; 0xce4 <readIr+0x164>
      32:	6c c6       	rjmp	.+3288   	; 0xd0c <readIr+0x18c>
      34:	7c c6       	rjmp	.+3320   	; 0xd2e <readIr+0x1ae>
      36:	91 c6       	rjmp	.+3362   	; 0xd5a <readIr+0x1da>
      38:	92 c6       	rjmp	.+3364   	; 0xd5e <readIr+0x1de>
      3a:	93 c6       	rjmp	.+3366   	; 0xd62 <readIr+0x1e2>
      3c:	9f c6       	rjmp	.+3390   	; 0xd7c <readIr+0x1fc>
      3e:	a1 c6       	rjmp	.+3394   	; 0xd82 <readIr+0x202>
      40:	a2 c6       	rjmp	.+3396   	; 0xd86 <readIr+0x206>
      42:	a3 c6       	rjmp	.+3398   	; 0xd8a <readIr+0x20a>
      44:	ab c6       	rjmp	.+3414   	; 0xd9c <readIr+0x21c>
      46:	b5 c6       	rjmp	.+3434   	; 0xdb2 <readIr+0x232>
      48:	b4 c6       	rjmp	.+3432   	; 0xdb2 <readIr+0x232>
      4a:	b3 c6       	rjmp	.+3430   	; 0xdb2 <readIr+0x232>
      4c:	aa c6       	rjmp	.+3412   	; 0xda2 <readIr+0x222>
      4e:	b1 c6       	rjmp	.+3426   	; 0xdb2 <readIr+0x232>
      50:	b0 c6       	rjmp	.+3424   	; 0xdb2 <readIr+0x232>
      52:	af c6       	rjmp	.+3422   	; 0xdb2 <readIr+0x232>
      54:	a9 c6       	rjmp	.+3410   	; 0xda8 <readIr+0x228>

00000056 <__ctors_end>:
      56:	11 24       	eor	r1, r1
      58:	1f be       	out	0x3f, r1	; 63
      5a:	cf e5       	ldi	r28, 0x5F	; 95
      5c:	d4 e0       	ldi	r29, 0x04	; 4
      5e:	de bf       	out	0x3e, r29	; 62
      60:	cd bf       	out	0x3d, r28	; 61

00000062 <__do_copy_data>:
      62:	12 e0       	ldi	r17, 0x02	; 2
      64:	a0 e6       	ldi	r26, 0x60	; 96
      66:	b0 e0       	ldi	r27, 0x00	; 0
      68:	ee ee       	ldi	r30, 0xEE	; 238
      6a:	f5 e1       	ldi	r31, 0x15	; 21
      6c:	02 c0       	rjmp	.+4      	; 0x72 <.do_copy_data_start>

0000006e <.do_copy_data_loop>:
      6e:	05 90       	lpm	r0, Z+
      70:	0d 92       	st	X+, r0

00000072 <.do_copy_data_start>:
      72:	ae 35       	cpi	r26, 0x5E	; 94
      74:	b1 07       	cpc	r27, r17
      76:	d9 f7       	brne	.-10     	; 0x6e <.do_copy_data_loop>

00000078 <__do_clear_bss>:
      78:	12 e0       	ldi	r17, 0x02	; 2
      7a:	ae e5       	ldi	r26, 0x5E	; 94
      7c:	b2 e0       	ldi	r27, 0x02	; 2
      7e:	01 c0       	rjmp	.+2      	; 0x82 <.do_clear_bss_start>

00000080 <.do_clear_bss_loop>:
      80:	1d 92       	st	X+, r1

00000082 <.do_clear_bss_start>:
      82:	ac 36       	cpi	r26, 0x6C	; 108
      84:	b1 07       	cpc	r27, r17
      86:	e1 f7       	brne	.-8      	; 0x80 <.do_clear_bss_loop>
      88:	20 d7       	rcall	.+3648   	; 0xeca <main>
      8a:	af ca       	rjmp	.-2722   	; 0xfffff5ea <__eeprom_end+0xff7ef5ea>

0000008c <__bad_interrupt>:
      8c:	b9 cf       	rjmp	.-142    	; 0x0 <__vectors>

0000008e <i2c_master_init>:
      8e:	80 91 5e 02 	lds	r24, 0x025E
      92:	88 23       	and	r24, r24
      94:	31 f4       	brne	.+12     	; 0xa2 <i2c_master_init+0x14>
      96:	11 b8       	out	0x01, r1	; 1
      98:	81 e4       	ldi	r24, 0x41	; 65
      9a:	80 b9       	out	0x00, r24	; 0
      9c:	81 e0       	ldi	r24, 0x01	; 1
      9e:	80 93 5e 02 	sts	0x025E, r24
      a2:	80 e0       	ldi	r24, 0x00	; 0
      a4:	08 95       	ret

000000a6 <i2c_master_start>:
      a6:	98 2f       	mov	r25, r24
      a8:	fb 01       	movw	r30, r22
      aa:	84 ea       	ldi	r24, 0xA4	; 164
      ac:	86 bf       	out	0x36, r24	; 54
      ae:	06 b6       	in	r0, 0x36	; 54
      b0:	07 fe       	sbrs	r0, 7
      b2:	fd cf       	rjmp	.-6      	; 0xae <i2c_master_start+0x8>
      b4:	81 b1       	in	r24, 0x01	; 1
      b6:	88 7f       	andi	r24, 0xF8	; 248
      b8:	88 30       	cpi	r24, 0x08	; 8
      ba:	11 f0       	breq	.+4      	; 0xc0 <i2c_master_start+0x1a>
      bc:	80 31       	cpi	r24, 0x10	; 16
      be:	61 f4       	brne	.+24     	; 0xd8 <i2c_master_start+0x32>
      c0:	93 b9       	out	0x03, r25	; 3
      c2:	84 e8       	ldi	r24, 0x84	; 132
      c4:	86 bf       	out	0x36, r24	; 54
      c6:	06 b6       	in	r0, 0x36	; 54
      c8:	07 fe       	sbrs	r0, 7
      ca:	fd cf       	rjmp	.-6      	; 0xc6 <i2c_master_start+0x20>
      cc:	81 b1       	in	r24, 0x01	; 1
      ce:	88 7f       	andi	r24, 0xF8	; 248
      d0:	88 31       	cpi	r24, 0x18	; 24
      d2:	29 f0       	breq	.+10     	; 0xde <i2c_master_start+0x38>
      d4:	80 34       	cpi	r24, 0x40	; 64
      d6:	19 f0       	breq	.+6      	; 0xde <i2c_master_start+0x38>
      d8:	80 83       	st	Z, r24
      da:	81 e0       	ldi	r24, 0x01	; 1
      dc:	08 95       	ret
      de:	80 e0       	ldi	r24, 0x00	; 0
      e0:	08 95       	ret

000000e2 <i2c_master_start_wait>:
      e2:	41 e0       	ldi	r20, 0x01	; 1
      e4:	50 e0       	ldi	r21, 0x00	; 0
      e6:	b1 e3       	ldi	r27, 0x31	; 49
      e8:	a4 ea       	ldi	r26, 0xA4	; 164
      ea:	f4 e8       	ldi	r31, 0x84	; 132
      ec:	e4 e9       	ldi	r30, 0x94	; 148
      ee:	07 c0       	rjmp	.+14     	; 0xfe <i2c_master_start_wait+0x1c>
      f0:	9a 01       	movw	r18, r20
      f2:	2f 5f       	subi	r18, 0xFF	; 255
      f4:	3f 4f       	sbci	r19, 0xFF	; 255
      f6:	64 17       	cp	r22, r20
      f8:	75 07       	cpc	r23, r21
      fa:	00 f1       	brcs	.+64     	; 0x13c <i2c_master_start_wait+0x5a>
      fc:	a9 01       	movw	r20, r18
      fe:	9b 2f       	mov	r25, r27
     100:	9a 95       	dec	r25
     102:	f1 f7       	brne	.-4      	; 0x100 <i2c_master_start_wait+0x1e>
     104:	a6 bf       	out	0x36, r26	; 54
     106:	06 b6       	in	r0, 0x36	; 54
     108:	07 fe       	sbrs	r0, 7
     10a:	fd cf       	rjmp	.-6      	; 0x106 <i2c_master_start_wait+0x24>
     10c:	91 b1       	in	r25, 0x01	; 1
     10e:	98 7f       	andi	r25, 0xF8	; 248
     110:	98 30       	cpi	r25, 0x08	; 8
     112:	11 f0       	breq	.+4      	; 0x118 <i2c_master_start_wait+0x36>
     114:	90 31       	cpi	r25, 0x10	; 16
     116:	61 f7       	brne	.-40     	; 0xf0 <i2c_master_start_wait+0xe>
     118:	83 b9       	out	0x03, r24	; 3
     11a:	f6 bf       	out	0x36, r31	; 54
     11c:	06 b6       	in	r0, 0x36	; 54
     11e:	07 fe       	sbrs	r0, 7
     120:	fd cf       	rjmp	.-6      	; 0x11c <i2c_master_start_wait+0x3a>
     122:	91 b1       	in	r25, 0x01	; 1
     124:	98 7f       	andi	r25, 0xF8	; 248
     126:	90 32       	cpi	r25, 0x20	; 32
     128:	21 f0       	breq	.+8      	; 0x132 <i2c_master_start_wait+0x50>
     12a:	98 35       	cpi	r25, 0x58	; 88
     12c:	11 f0       	breq	.+4      	; 0x132 <i2c_master_start_wait+0x50>
     12e:	81 e0       	ldi	r24, 0x01	; 1
     130:	08 95       	ret
     132:	e6 bf       	out	0x36, r30	; 54
     134:	06 b6       	in	r0, 0x36	; 54
     136:	04 fc       	sbrc	r0, 4
     138:	fd cf       	rjmp	.-6      	; 0x134 <i2c_master_start_wait+0x52>
     13a:	da cf       	rjmp	.-76     	; 0xf0 <i2c_master_start_wait+0xe>
     13c:	80 e0       	ldi	r24, 0x00	; 0
     13e:	08 95       	ret

00000140 <i2c_master_rep_start>:
     140:	b2 df       	rcall	.-156    	; 0xa6 <i2c_master_start>
     142:	08 95       	ret

00000144 <i2c_master_stop>:
     144:	84 e9       	ldi	r24, 0x94	; 148
     146:	86 bf       	out	0x36, r24	; 54
     148:	06 b6       	in	r0, 0x36	; 54
     14a:	04 fc       	sbrc	r0, 4
     14c:	fd cf       	rjmp	.-6      	; 0x148 <i2c_master_stop+0x4>
     14e:	08 95       	ret

00000150 <i2c_master_write>:
     150:	fb 01       	movw	r30, r22
     152:	83 b9       	out	0x03, r24	; 3
     154:	84 e8       	ldi	r24, 0x84	; 132
     156:	86 bf       	out	0x36, r24	; 54
     158:	06 b6       	in	r0, 0x36	; 54
     15a:	07 fe       	sbrs	r0, 7
     15c:	fd cf       	rjmp	.-6      	; 0x158 <i2c_master_write+0x8>
     15e:	81 b1       	in	r24, 0x01	; 1
     160:	88 7f       	andi	r24, 0xF8	; 248
     162:	88 32       	cpi	r24, 0x28	; 40
     164:	11 f4       	brne	.+4      	; 0x16a <i2c_master_write+0x1a>
     166:	80 e0       	ldi	r24, 0x00	; 0
     168:	08 95       	ret
     16a:	80 83       	st	Z, r24
     16c:	81 e0       	ldi	r24, 0x01	; 1
     16e:	08 95       	ret

00000170 <i2c_master_read_ack>:
     170:	84 ec       	ldi	r24, 0xC4	; 196
     172:	86 bf       	out	0x36, r24	; 54
     174:	06 b6       	in	r0, 0x36	; 54
     176:	07 fe       	sbrs	r0, 7
     178:	fd cf       	rjmp	.-6      	; 0x174 <i2c_master_read_ack+0x4>
     17a:	83 b1       	in	r24, 0x03	; 3
     17c:	08 95       	ret

0000017e <i2c_master_read_nak>:
     17e:	84 e8       	ldi	r24, 0x84	; 132
     180:	86 bf       	out	0x36, r24	; 54
     182:	06 b6       	in	r0, 0x36	; 54
     184:	07 fe       	sbrs	r0, 7
     186:	fd cf       	rjmp	.-6      	; 0x182 <i2c_master_read_nak+0x4>
     188:	83 b1       	in	r24, 0x03	; 3
     18a:	08 95       	ret

0000018c <bcdtoi>:
     18c:	28 2f       	mov	r18, r24
     18e:	22 95       	swap	r18
     190:	2f 70       	andi	r18, 0x0F	; 15
     192:	9a e0       	ldi	r25, 0x0A	; 10
     194:	29 9f       	mul	r18, r25
     196:	90 01       	movw	r18, r0
     198:	11 24       	eor	r1, r1
     19a:	8f 70       	andi	r24, 0x0F	; 15
     19c:	82 0f       	add	r24, r18
     19e:	08 95       	ret

000001a0 <itobcd>:
     1a0:	38 2f       	mov	r19, r24
     1a2:	8d ec       	ldi	r24, 0xCD	; 205
     1a4:	38 9f       	mul	r19, r24
     1a6:	c0 01       	movw	r24, r0
     1a8:	11 24       	eor	r1, r1
     1aa:	29 2f       	mov	r18, r25
     1ac:	26 95       	lsr	r18
     1ae:	26 95       	lsr	r18
     1b0:	26 95       	lsr	r18
     1b2:	86 ef       	ldi	r24, 0xF6	; 246
     1b4:	9f ef       	ldi	r25, 0xFF	; 255
     1b6:	28 9f       	mul	r18, r24
     1b8:	80 2d       	mov	r24, r0
     1ba:	11 24       	eor	r1, r1
     1bc:	83 0f       	add	r24, r19
     1be:	22 95       	swap	r18
     1c0:	20 7f       	andi	r18, 0xF0	; 240
     1c2:	82 2b       	or	r24, r18
     1c4:	08 95       	ret

000001c6 <i2c_rtc_get_status>:
     1c6:	80 91 61 02 	lds	r24, 0x0261
     1ca:	08 95       	ret

000001cc <add_year>:
     1cc:	fc 01       	movw	r30, r24
     1ce:	80 81       	ld	r24, Z
     1d0:	8f 5f       	subi	r24, 0xFF	; 255
     1d2:	80 83       	st	Z, r24
     1d4:	08 95       	ret

000001d6 <sub_year>:
     1d6:	fc 01       	movw	r30, r24
     1d8:	80 81       	ld	r24, Z
     1da:	81 50       	subi	r24, 0x01	; 1
     1dc:	80 83       	st	Z, r24
     1de:	08 95       	ret

000001e0 <add_month>:
     1e0:	fc 01       	movw	r30, r24
     1e2:	81 81       	ldd	r24, Z+1	; 0x01
     1e4:	8f 5f       	subi	r24, 0xFF	; 255
     1e6:	81 83       	std	Z+1, r24	; 0x01
     1e8:	8d 30       	cpi	r24, 0x0D	; 13
     1ea:	28 f0       	brcs	.+10     	; 0x1f6 <add_month+0x16>
     1ec:	81 e0       	ldi	r24, 0x01	; 1
     1ee:	81 83       	std	Z+1, r24	; 0x01
     1f0:	80 81       	ld	r24, Z
     1f2:	8f 5f       	subi	r24, 0xFF	; 255
     1f4:	80 83       	st	Z, r24
     1f6:	08 95       	ret

000001f8 <sub_month>:
     1f8:	fc 01       	movw	r30, r24
     1fa:	81 81       	ldd	r24, Z+1	; 0x01
     1fc:	81 50       	subi	r24, 0x01	; 1
     1fe:	81 83       	std	Z+1, r24	; 0x01
     200:	88 23       	and	r24, r24
     202:	29 f4       	brne	.+10     	; 0x20e <sub_month+0x16>
     204:	8c e0       	ldi	r24, 0x0C	; 12
     206:	81 83       	std	Z+1, r24	; 0x01
     208:	80 81       	ld	r24, Z
     20a:	81 50       	subi	r24, 0x01	; 1
     20c:	80 83       	st	Z, r24
     20e:	08 95       	ret

00000210 <add_day>:
     210:	fc 01       	movw	r30, r24
     212:	32 81       	ldd	r19, Z+2	; 0x02
     214:	3f 5f       	subi	r19, 0xFF	; 255
     216:	32 83       	std	Z+2, r19	; 0x02
     218:	81 81       	ldd	r24, Z+1	; 0x01
     21a:	86 30       	cpi	r24, 0x06	; 6
     21c:	59 f0       	breq	.+22     	; 0x234 <add_day+0x24>
     21e:	87 30       	cpi	r24, 0x07	; 7
     220:	28 f4       	brcc	.+10     	; 0x22c <add_day+0x1c>
     222:	82 30       	cpi	r24, 0x02	; 2
     224:	59 f0       	breq	.+22     	; 0x23c <add_day+0x2c>
     226:	84 30       	cpi	r24, 0x04	; 4
     228:	39 f4       	brne	.+14     	; 0x238 <add_day+0x28>
     22a:	04 c0       	rjmp	.+8      	; 0x234 <add_day+0x24>
     22c:	89 30       	cpi	r24, 0x09	; 9
     22e:	11 f0       	breq	.+4      	; 0x234 <add_day+0x24>
     230:	8b 30       	cpi	r24, 0x0B	; 11
     232:	11 f4       	brne	.+4      	; 0x238 <add_day+0x28>
     234:	8e e1       	ldi	r24, 0x1E	; 30
     236:	11 c0       	rjmp	.+34     	; 0x25a <add_day+0x4a>
     238:	8f e1       	ldi	r24, 0x1F	; 31
     23a:	0f c0       	rjmp	.+30     	; 0x25a <add_day+0x4a>
     23c:	20 81       	ld	r18, Z
     23e:	82 2f       	mov	r24, r18
     240:	90 e0       	ldi	r25, 0x00	; 0
     242:	83 70       	andi	r24, 0x03	; 3
     244:	90 70       	andi	r25, 0x00	; 0
     246:	89 2b       	or	r24, r25
     248:	39 f4       	brne	.+14     	; 0x258 <add_day+0x48>
     24a:	82 2f       	mov	r24, r18
     24c:	64 e6       	ldi	r22, 0x64	; 100
     24e:	9a d9       	rcall	.-3276   	; 0xfffff584 <__eeprom_end+0xff7ef584>
     250:	99 23       	and	r25, r25
     252:	11 f0       	breq	.+4      	; 0x258 <add_day+0x48>
     254:	8d e1       	ldi	r24, 0x1D	; 29
     256:	01 c0       	rjmp	.+2      	; 0x25a <add_day+0x4a>
     258:	8c e1       	ldi	r24, 0x1C	; 28
     25a:	83 17       	cp	r24, r19
     25c:	58 f4       	brcc	.+22     	; 0x274 <add_day+0x64>
     25e:	91 e0       	ldi	r25, 0x01	; 1
     260:	92 83       	std	Z+2, r25	; 0x02
     262:	81 81       	ldd	r24, Z+1	; 0x01
     264:	8f 5f       	subi	r24, 0xFF	; 255
     266:	81 83       	std	Z+1, r24	; 0x01
     268:	8d 30       	cpi	r24, 0x0D	; 13
     26a:	20 f0       	brcs	.+8      	; 0x274 <add_day+0x64>
     26c:	91 83       	std	Z+1, r25	; 0x01
     26e:	80 81       	ld	r24, Z
     270:	8f 5f       	subi	r24, 0xFF	; 255
     272:	80 83       	st	Z, r24
     274:	08 95       	ret

00000276 <sub_day>:
     276:	fc 01       	movw	r30, r24
     278:	32 81       	ldd	r19, Z+2	; 0x02
     27a:	31 50       	subi	r19, 0x01	; 1
     27c:	32 83       	std	Z+2, r19	; 0x02
     27e:	81 81       	ldd	r24, Z+1	; 0x01
     280:	90 e0       	ldi	r25, 0x00	; 0
     282:	01 97       	sbiw	r24, 0x01	; 1
     284:	86 30       	cpi	r24, 0x06	; 6
     286:	91 05       	cpc	r25, r1
     288:	71 f0       	breq	.+28     	; 0x2a6 <sub_day+0x30>
     28a:	87 30       	cpi	r24, 0x07	; 7
     28c:	91 05       	cpc	r25, r1
     28e:	34 f4       	brge	.+12     	; 0x29c <sub_day+0x26>
     290:	82 30       	cpi	r24, 0x02	; 2
     292:	91 05       	cpc	r25, r1
     294:	61 f0       	breq	.+24     	; 0x2ae <sub_day+0x38>
     296:	04 97       	sbiw	r24, 0x04	; 4
     298:	41 f4       	brne	.+16     	; 0x2aa <sub_day+0x34>
     29a:	05 c0       	rjmp	.+10     	; 0x2a6 <sub_day+0x30>
     29c:	89 30       	cpi	r24, 0x09	; 9
     29e:	91 05       	cpc	r25, r1
     2a0:	11 f0       	breq	.+4      	; 0x2a6 <sub_day+0x30>
     2a2:	0b 97       	sbiw	r24, 0x0b	; 11
     2a4:	11 f4       	brne	.+4      	; 0x2aa <sub_day+0x34>
     2a6:	8e e1       	ldi	r24, 0x1E	; 30
     2a8:	11 c0       	rjmp	.+34     	; 0x2cc <sub_day+0x56>
     2aa:	8f e1       	ldi	r24, 0x1F	; 31
     2ac:	0f c0       	rjmp	.+30     	; 0x2cc <sub_day+0x56>
     2ae:	20 81       	ld	r18, Z
     2b0:	82 2f       	mov	r24, r18
     2b2:	90 e0       	ldi	r25, 0x00	; 0
     2b4:	83 70       	andi	r24, 0x03	; 3
     2b6:	90 70       	andi	r25, 0x00	; 0
     2b8:	89 2b       	or	r24, r25
     2ba:	39 f4       	brne	.+14     	; 0x2ca <sub_day+0x54>
     2bc:	82 2f       	mov	r24, r18
     2be:	64 e6       	ldi	r22, 0x64	; 100
     2c0:	61 d9       	rcall	.-3390   	; 0xfffff584 <__eeprom_end+0xff7ef584>
     2c2:	99 23       	and	r25, r25
     2c4:	11 f0       	breq	.+4      	; 0x2ca <sub_day+0x54>
     2c6:	8d e1       	ldi	r24, 0x1D	; 29
     2c8:	01 c0       	rjmp	.+2      	; 0x2cc <sub_day+0x56>
     2ca:	8c e1       	ldi	r24, 0x1C	; 28
     2cc:	33 23       	and	r19, r19
     2ce:	59 f4       	brne	.+22     	; 0x2e6 <sub_day+0x70>
     2d0:	82 83       	std	Z+2, r24	; 0x02
     2d2:	81 81       	ldd	r24, Z+1	; 0x01
     2d4:	81 50       	subi	r24, 0x01	; 1
     2d6:	81 83       	std	Z+1, r24	; 0x01
     2d8:	88 23       	and	r24, r24
     2da:	29 f4       	brne	.+10     	; 0x2e6 <sub_day+0x70>
     2dc:	8c e0       	ldi	r24, 0x0C	; 12
     2de:	81 83       	std	Z+1, r24	; 0x01
     2e0:	80 81       	ld	r24, Z
     2e2:	81 50       	subi	r24, 0x01	; 1
     2e4:	80 83       	st	Z, r24
     2e6:	08 95       	ret

000002e8 <add_hour>:
     2e8:	fc 01       	movw	r30, r24
     2ea:	83 81       	ldd	r24, Z+3	; 0x03
     2ec:	8f 5f       	subi	r24, 0xFF	; 255
     2ee:	83 83       	std	Z+3, r24	; 0x03
     2f0:	88 31       	cpi	r24, 0x18	; 24
     2f2:	18 f0       	brcs	.+6      	; 0x2fa <add_hour+0x12>
     2f4:	13 82       	std	Z+3, r1	; 0x03
     2f6:	cf 01       	movw	r24, r30
     2f8:	8b df       	rcall	.-234    	; 0x210 <add_day>
     2fa:	08 95       	ret

000002fc <sub_hour>:
     2fc:	fc 01       	movw	r30, r24
     2fe:	83 81       	ldd	r24, Z+3	; 0x03
     300:	88 23       	and	r24, r24
     302:	29 f4       	brne	.+10     	; 0x30e <sub_hour+0x12>
     304:	87 e1       	ldi	r24, 0x17	; 23
     306:	83 83       	std	Z+3, r24	; 0x03
     308:	cf 01       	movw	r24, r30
     30a:	b5 df       	rcall	.-150    	; 0x276 <sub_day>
     30c:	08 95       	ret
     30e:	81 50       	subi	r24, 0x01	; 1
     310:	83 83       	std	Z+3, r24	; 0x03
     312:	08 95       	ret

00000314 <add_minute>:
     314:	fc 01       	movw	r30, r24
     316:	84 81       	ldd	r24, Z+4	; 0x04
     318:	8f 5f       	subi	r24, 0xFF	; 255
     31a:	84 83       	std	Z+4, r24	; 0x04
     31c:	8c 33       	cpi	r24, 0x3C	; 60
     31e:	18 f0       	brcs	.+6      	; 0x326 <add_minute+0x12>
     320:	14 82       	std	Z+4, r1	; 0x04
     322:	cf 01       	movw	r24, r30
     324:	e1 df       	rcall	.-62     	; 0x2e8 <add_hour>
     326:	08 95       	ret

00000328 <sub_minute>:
     328:	fc 01       	movw	r30, r24
     32a:	84 81       	ldd	r24, Z+4	; 0x04
     32c:	88 23       	and	r24, r24
     32e:	29 f4       	brne	.+10     	; 0x33a <sub_minute+0x12>
     330:	8b e3       	ldi	r24, 0x3B	; 59
     332:	84 83       	std	Z+4, r24	; 0x04
     334:	cf 01       	movw	r24, r30
     336:	e2 df       	rcall	.-60     	; 0x2fc <sub_hour>
     338:	08 95       	ret
     33a:	81 50       	subi	r24, 0x01	; 1
     33c:	84 83       	std	Z+4, r24	; 0x04
     33e:	08 95       	ret

00000340 <i2c_rtc_sram_read>:
     340:	ef 92       	push	r14
     342:	ff 92       	push	r15
     344:	0f 93       	push	r16
     346:	1f 93       	push	r17
     348:	cf 93       	push	r28
     34a:	df 93       	push	r29
     34c:	18 2f       	mov	r17, r24
     34e:	f6 2e       	mov	r15, r22
     350:	e7 2e       	mov	r14, r23
     352:	04 2f       	mov	r16, r20
     354:	80 91 60 02 	lds	r24, 0x0260
     358:	88 23       	and	r24, r24
     35a:	81 f1       	breq	.+96     	; 0x3bc <i2c_rtc_sram_read+0x7c>
     35c:	44 23       	and	r20, r20
     35e:	71 f1       	breq	.+92     	; 0x3bc <i2c_rtc_sram_read+0x7c>
     360:	81 2f       	mov	r24, r17
     362:	90 e0       	ldi	r25, 0x00	; 0
     364:	84 0f       	add	r24, r20
     366:	91 1d       	adc	r25, r1
     368:	81 34       	cpi	r24, 0x41	; 65
     36a:	91 05       	cpc	r25, r1
     36c:	3c f5       	brge	.+78     	; 0x3bc <i2c_rtc_sram_read+0x7c>
     36e:	80 ed       	ldi	r24, 0xD0	; 208
     370:	64 e6       	ldi	r22, 0x64	; 100
     372:	70 e0       	ldi	r23, 0x00	; 0
     374:	b6 de       	rcall	.-660    	; 0xe2 <i2c_master_start_wait>
     376:	88 23       	and	r24, r24
     378:	f1 f0       	breq	.+60     	; 0x3b6 <i2c_rtc_sram_read+0x76>
     37a:	81 2f       	mov	r24, r17
     37c:	61 e6       	ldi	r22, 0x61	; 97
     37e:	72 e0       	ldi	r23, 0x02	; 2
     380:	e7 de       	rcall	.-562    	; 0x150 <i2c_master_write>
     382:	88 23       	and	r24, r24
     384:	c1 f4       	brne	.+48     	; 0x3b6 <i2c_rtc_sram_read+0x76>
     386:	81 ed       	ldi	r24, 0xD1	; 209
     388:	61 e6       	ldi	r22, 0x61	; 97
     38a:	72 e0       	ldi	r23, 0x02	; 2
     38c:	d9 de       	rcall	.-590    	; 0x140 <i2c_master_rep_start>
     38e:	88 23       	and	r24, r24
     390:	91 f4       	brne	.+36     	; 0x3b6 <i2c_rtc_sram_read+0x76>
     392:	cf 2d       	mov	r28, r15
     394:	de 2d       	mov	r29, r14
     396:	10 2f       	mov	r17, r16
     398:	7e 01       	movw	r14, r28
     39a:	04 c0       	rjmp	.+8      	; 0x3a4 <i2c_rtc_sram_read+0x64>
     39c:	e9 de       	rcall	.-558    	; 0x170 <i2c_master_read_ack>
     39e:	f7 01       	movw	r30, r14
     3a0:	81 93       	st	Z+, r24
     3a2:	7f 01       	movw	r14, r30
     3a4:	11 50       	subi	r17, 0x01	; 1
     3a6:	d1 f7       	brne	.-12     	; 0x39c <i2c_rtc_sram_read+0x5c>
     3a8:	ea de       	rcall	.-556    	; 0x17e <i2c_master_read_nak>
     3aa:	01 50       	subi	r16, 0x01	; 1
     3ac:	c0 0f       	add	r28, r16
     3ae:	d1 1d       	adc	r29, r1
     3b0:	88 83       	st	Y, r24
     3b2:	11 e0       	ldi	r17, 0x01	; 1
     3b4:	01 c0       	rjmp	.+2      	; 0x3b8 <i2c_rtc_sram_read+0x78>
     3b6:	10 e0       	ldi	r17, 0x00	; 0
     3b8:	c5 de       	rcall	.-630    	; 0x144 <i2c_master_stop>
     3ba:	01 c0       	rjmp	.+2      	; 0x3be <i2c_rtc_sram_read+0x7e>
     3bc:	10 e0       	ldi	r17, 0x00	; 0
     3be:	81 2f       	mov	r24, r17
     3c0:	df 91       	pop	r29
     3c2:	cf 91       	pop	r28
     3c4:	1f 91       	pop	r17
     3c6:	0f 91       	pop	r16
     3c8:	ff 90       	pop	r15
     3ca:	ef 90       	pop	r14
     3cc:	08 95       	ret

000003ce <i2c_rtc_read>:
     3ce:	7f 92       	push	r7
     3d0:	8f 92       	push	r8
     3d2:	9f 92       	push	r9
     3d4:	af 92       	push	r10
     3d6:	bf 92       	push	r11
     3d8:	cf 92       	push	r12
     3da:	df 92       	push	r13
     3dc:	ef 92       	push	r14
     3de:	ff 92       	push	r15
     3e0:	0f 93       	push	r16
     3e2:	1f 93       	push	r17
     3e4:	df 93       	push	r29
     3e6:	cf 93       	push	r28
     3e8:	cd b7       	in	r28, 0x3d	; 61
     3ea:	de b7       	in	r29, 0x3e	; 62
     3ec:	27 97       	sbiw	r28, 0x07	; 7
     3ee:	0f b6       	in	r0, 0x3f	; 63
     3f0:	f8 94       	cli
     3f2:	de bf       	out	0x3e, r29	; 62
     3f4:	0f be       	out	0x3f, r0	; 63
     3f6:	cd bf       	out	0x3d, r28	; 61
     3f8:	6c 01       	movw	r12, r24
     3fa:	e6 2e       	mov	r14, r22
     3fc:	80 91 60 02 	lds	r24, 0x0260
     400:	88 23       	and	r24, r24
     402:	11 f4       	brne	.+4      	; 0x408 <i2c_rtc_read+0x3a>
     404:	77 24       	eor	r7, r7
     406:	a5 c1       	rjmp	.+842    	; 0x752 <__stack+0x2f3>
     408:	80 e0       	ldi	r24, 0x00	; 0
     40a:	be 01       	movw	r22, r28
     40c:	6f 5f       	subi	r22, 0xFF	; 255
     40e:	7f 4f       	sbci	r23, 0xFF	; 255
     410:	47 e0       	ldi	r20, 0x07	; 7
     412:	96 df       	rcall	.-212    	; 0x340 <i2c_rtc_sram_read>
     414:	88 23       	and	r24, r24
     416:	11 f4       	brne	.+4      	; 0x41c <i2c_rtc_read+0x4e>
     418:	77 24       	eor	r7, r7
     41a:	71 c0       	rjmp	.+226    	; 0x4fe <__stack+0x9f>
     41c:	4f 81       	ldd	r20, Y+7	; 0x07
     41e:	84 2f       	mov	r24, r20
     420:	82 95       	swap	r24
     422:	8f 70       	andi	r24, 0x0F	; 15
     424:	3a e0       	ldi	r19, 0x0A	; 10
     426:	83 9f       	mul	r24, r19
     428:	c0 01       	movw	r24, r0
     42a:	11 24       	eor	r1, r1
     42c:	4f 70       	andi	r20, 0x0F	; 15
     42e:	48 0f       	add	r20, r24
     430:	d6 01       	movw	r26, r12
     432:	4c 93       	st	X, r20
     434:	2e 81       	ldd	r18, Y+6	; 0x06
     436:	82 2f       	mov	r24, r18
     438:	82 95       	swap	r24
     43a:	8f 70       	andi	r24, 0x0F	; 15
     43c:	83 9f       	mul	r24, r19
     43e:	c0 01       	movw	r24, r0
     440:	11 24       	eor	r1, r1
     442:	12 2f       	mov	r17, r18
     444:	1f 70       	andi	r17, 0x0F	; 15
     446:	18 0f       	add	r17, r24
     448:	11 96       	adiw	r26, 0x01	; 1
     44a:	1c 93       	st	X, r17
     44c:	11 97       	sbiw	r26, 0x01	; 1
     44e:	2d 81       	ldd	r18, Y+5	; 0x05
     450:	82 2f       	mov	r24, r18
     452:	82 95       	swap	r24
     454:	8f 70       	andi	r24, 0x0F	; 15
     456:	83 9f       	mul	r24, r19
     458:	c0 01       	movw	r24, r0
     45a:	11 24       	eor	r1, r1
     45c:	02 2f       	mov	r16, r18
     45e:	0f 70       	andi	r16, 0x0F	; 15
     460:	08 0f       	add	r16, r24
     462:	12 96       	adiw	r26, 0x02	; 2
     464:	0c 93       	st	X, r16
     466:	12 97       	sbiw	r26, 0x02	; 2
     468:	2b 81       	ldd	r18, Y+3	; 0x03
     46a:	82 2f       	mov	r24, r18
     46c:	82 95       	swap	r24
     46e:	8f 70       	andi	r24, 0x0F	; 15
     470:	83 9f       	mul	r24, r19
     472:	c0 01       	movw	r24, r0
     474:	11 24       	eor	r1, r1
     476:	2f 70       	andi	r18, 0x0F	; 15
     478:	28 0f       	add	r18, r24
     47a:	13 96       	adiw	r26, 0x03	; 3
     47c:	2c 93       	st	X, r18
     47e:	13 97       	sbiw	r26, 0x03	; 3
     480:	2a 81       	ldd	r18, Y+2	; 0x02
     482:	82 2f       	mov	r24, r18
     484:	82 95       	swap	r24
     486:	8f 70       	andi	r24, 0x0F	; 15
     488:	83 9f       	mul	r24, r19
     48a:	c0 01       	movw	r24, r0
     48c:	11 24       	eor	r1, r1
     48e:	2f 70       	andi	r18, 0x0F	; 15
     490:	28 0f       	add	r18, r24
     492:	14 96       	adiw	r26, 0x04	; 4
     494:	2c 93       	st	X, r18
     496:	14 97       	sbiw	r26, 0x04	; 4
     498:	29 81       	ldd	r18, Y+1	; 0x01
     49a:	82 2f       	mov	r24, r18
     49c:	82 95       	swap	r24
     49e:	8f 70       	andi	r24, 0x0F	; 15
     4a0:	83 9f       	mul	r24, r19
     4a2:	c0 01       	movw	r24, r0
     4a4:	11 24       	eor	r1, r1
     4a6:	2f 70       	andi	r18, 0x0F	; 15
     4a8:	28 0f       	add	r18, r24
     4aa:	15 96       	adiw	r26, 0x05	; 5
     4ac:	2c 93       	st	X, r18
     4ae:	e1 2f       	mov	r30, r17
     4b0:	f0 e0       	ldi	r31, 0x00	; 0
     4b2:	e1 5a       	subi	r30, 0xA1	; 161
     4b4:	ff 4f       	sbci	r31, 0xFF	; 255
     4b6:	e0 81       	ld	r30, Z
     4b8:	24 2f       	mov	r18, r20
     4ba:	30 e0       	ldi	r19, 0x00	; 0
     4bc:	46 95       	lsr	r20
     4be:	46 95       	lsr	r20
     4c0:	c9 01       	movw	r24, r18
     4c2:	84 0f       	add	r24, r20
     4c4:	91 1d       	adc	r25, r1
     4c6:	67 e0       	ldi	r22, 0x07	; 7
     4c8:	70 e0       	ldi	r23, 0x00	; 0
     4ca:	68 d8       	rcall	.-3888   	; 0xfffff59c <__eeprom_end+0xff7ef59c>
     4cc:	48 2f       	mov	r20, r24
     4ce:	23 70       	andi	r18, 0x03	; 3
     4d0:	30 70       	andi	r19, 0x00	; 0
     4d2:	23 2b       	or	r18, r19
     4d4:	19 f4       	brne	.+6      	; 0x4dc <__stack+0x7d>
     4d6:	13 30       	cpi	r17, 0x03	; 3
     4d8:	08 f4       	brcc	.+2      	; 0x4dc <__stack+0x7d>
     4da:	4a 5f       	subi	r20, 0xFA	; 250
     4dc:	80 2f       	mov	r24, r16
     4de:	67 e0       	ldi	r22, 0x07	; 7
     4e0:	51 d8       	rcall	.-3934   	; 0xfffff584 <__eeprom_end+0xff7ef584>
     4e2:	89 2f       	mov	r24, r25
     4e4:	90 e0       	ldi	r25, 0x00	; 0
     4e6:	06 96       	adiw	r24, 0x06	; 6
     4e8:	8e 0f       	add	r24, r30
     4ea:	91 1d       	adc	r25, r1
     4ec:	84 0f       	add	r24, r20
     4ee:	91 1d       	adc	r25, r1
     4f0:	67 e0       	ldi	r22, 0x07	; 7
     4f2:	70 e0       	ldi	r23, 0x00	; 0
     4f4:	53 d8       	rcall	.-3930   	; 0xfffff59c <__eeprom_end+0xff7ef59c>
     4f6:	f6 01       	movw	r30, r12
     4f8:	86 83       	std	Z+6, r24	; 0x06
     4fa:	77 24       	eor	r7, r7
     4fc:	73 94       	inc	r7
     4fe:	ee 20       	and	r14, r14
     500:	09 f4       	brne	.+2      	; 0x504 <__stack+0xa5>
     502:	27 c1       	rjmp	.+590    	; 0x752 <__stack+0x2f3>
     504:	d6 01       	movw	r26, r12
     506:	11 96       	adiw	r26, 0x01	; 1
     508:	ec 91       	ld	r30, X
     50a:	8e 2f       	mov	r24, r30
     50c:	90 e0       	ldi	r25, 0x00	; 0
     50e:	fc 01       	movw	r30, r24
     510:	ee 0f       	add	r30, r30
     512:	ff 1f       	adc	r31, r31
     514:	df 01       	movw	r26, r30
     516:	a4 59       	subi	r26, 0x94	; 148
     518:	bf 4f       	sbci	r27, 0xFF	; 255
     51a:	0d 91       	ld	r16, X+
     51c:	1c 91       	ld	r17, X
     51e:	e8 57       	subi	r30, 0x78	; 120
     520:	ff 4f       	sbci	r31, 0xFF	; 255
     522:	e0 80       	ld	r14, Z
     524:	f1 80       	ldd	r15, Z+1	; 0x01
     526:	5c 01       	movw	r10, r24
     528:	08 94       	sec
     52a:	a1 1c       	adc	r10, r1
     52c:	b1 1c       	adc	r11, r1
     52e:	f6 01       	movw	r30, r12
     530:	22 81       	ldd	r18, Z+2	; 0x02
     532:	30 e0       	ldi	r19, 0x00	; 0
     534:	aa 0c       	add	r10, r10
     536:	bb 1c       	adc	r11, r11
     538:	f5 01       	movw	r30, r10
     53a:	e4 59       	subi	r30, 0x94	; 148
     53c:	ff 4f       	sbci	r31, 0xFF	; 255
     53e:	80 81       	ld	r24, Z
     540:	91 81       	ldd	r25, Z+1	; 0x01
     542:	80 1b       	sub	r24, r16
     544:	91 0b       	sbc	r25, r17
     546:	ac 01       	movw	r20, r24
     548:	42 9f       	mul	r20, r18
     54a:	c0 01       	movw	r24, r0
     54c:	43 9f       	mul	r20, r19
     54e:	90 0d       	add	r25, r0
     550:	52 9f       	mul	r21, r18
     552:	90 0d       	add	r25, r0
     554:	11 24       	eor	r1, r1
     556:	6f e1       	ldi	r22, 0x1F	; 31
     558:	70 e0       	ldi	r23, 0x00	; 0
     55a:	20 d8       	rcall	.-4032   	; 0xfffff59c <__eeprom_end+0xff7ef59c>
     55c:	4b 01       	movw	r8, r22
     55e:	80 0e       	add	r8, r16
     560:	91 1e       	adc	r9, r17
     562:	88 e8       	ldi	r24, 0x88	; 136
     564:	90 e0       	ldi	r25, 0x00	; 0
     566:	a8 0e       	add	r10, r24
     568:	b9 1e       	adc	r11, r25
     56a:	d5 01       	movw	r26, r10
     56c:	8d 91       	ld	r24, X+
     56e:	9c 91       	ld	r25, X
     570:	8e 19       	sub	r24, r14
     572:	9f 09       	sbc	r25, r15
     574:	fc 01       	movw	r30, r24
     576:	e2 9f       	mul	r30, r18
     578:	c0 01       	movw	r24, r0
     57a:	e3 9f       	mul	r30, r19
     57c:	90 0d       	add	r25, r0
     57e:	f2 9f       	mul	r31, r18
     580:	90 0d       	add	r25, r0
     582:	11 24       	eor	r1, r1
     584:	6f e1       	ldi	r22, 0x1F	; 31
     586:	70 e0       	ldi	r23, 0x00	; 0
     588:	09 d8       	rcall	.-4078   	; 0xfffff59c <__eeprom_end+0xff7ef59c>
     58a:	fb 01       	movw	r30, r22
     58c:	ee 0d       	add	r30, r14
     58e:	ff 1d       	adc	r31, r15
     590:	c4 01       	movw	r24, r8
     592:	64 e6       	ldi	r22, 0x64	; 100
     594:	70 e0       	ldi	r23, 0x00	; 0
     596:	02 d8       	rcall	.-4092   	; 0xfffff59c <__eeprom_end+0xff7ef59c>
     598:	d6 01       	movw	r26, r12
     59a:	19 96       	adiw	r26, 0x09	; 9
     59c:	6c 93       	st	X, r22
     59e:	cf 01       	movw	r24, r30
     5a0:	64 e6       	ldi	r22, 0x64	; 100
     5a2:	70 e0       	ldi	r23, 0x00	; 0
     5a4:	fb d7       	rcall	.+4086   	; 0x159c <__divmodhi4>
     5a6:	d6 01       	movw	r26, r12
     5a8:	1b 96       	adiw	r26, 0x0b	; 11
     5aa:	6c 93       	st	X, r22
     5ac:	c4 01       	movw	r24, r8
     5ae:	64 e6       	ldi	r22, 0x64	; 100
     5b0:	70 e0       	ldi	r23, 0x00	; 0
     5b2:	f4 d7       	rcall	.+4072   	; 0x159c <__divmodhi4>
     5b4:	2c e3       	ldi	r18, 0x3C	; 60
     5b6:	30 e0       	ldi	r19, 0x00	; 0
     5b8:	ac 01       	movw	r20, r24
     5ba:	42 9f       	mul	r20, r18
     5bc:	c0 01       	movw	r24, r0
     5be:	43 9f       	mul	r20, r19
     5c0:	90 0d       	add	r25, r0
     5c2:	52 9f       	mul	r21, r18
     5c4:	90 0d       	add	r25, r0
     5c6:	11 24       	eor	r1, r1
     5c8:	64 e6       	ldi	r22, 0x64	; 100
     5ca:	70 e0       	ldi	r23, 0x00	; 0
     5cc:	e7 d7       	rcall	.+4046   	; 0x159c <__divmodhi4>
     5ce:	d6 01       	movw	r26, r12
     5d0:	1a 96       	adiw	r26, 0x0a	; 10
     5d2:	6c 93       	st	X, r22
     5d4:	cf 01       	movw	r24, r30
     5d6:	64 e6       	ldi	r22, 0x64	; 100
     5d8:	70 e0       	ldi	r23, 0x00	; 0
     5da:	e0 d7       	rcall	.+4032   	; 0x159c <__divmodhi4>
     5dc:	ac 01       	movw	r20, r24
     5de:	42 9f       	mul	r20, r18
     5e0:	c0 01       	movw	r24, r0
     5e2:	43 9f       	mul	r20, r19
     5e4:	90 0d       	add	r25, r0
     5e6:	52 9f       	mul	r21, r18
     5e8:	90 0d       	add	r25, r0
     5ea:	11 24       	eor	r1, r1
     5ec:	64 e6       	ldi	r22, 0x64	; 100
     5ee:	70 e0       	ldi	r23, 0x00	; 0
     5f0:	d5 d7       	rcall	.+4010   	; 0x159c <__divmodhi4>
     5f2:	d6 01       	movw	r26, r12
     5f4:	1c 96       	adiw	r26, 0x0c	; 12
     5f6:	6c 93       	st	X, r22
     5f8:	1c 97       	sbiw	r26, 0x0c	; 12
     5fa:	14 96       	adiw	r26, 0x04	; 4
     5fc:	8c 91       	ld	r24, X
     5fe:	24 e6       	ldi	r18, 0x64	; 100
     600:	82 9f       	mul	r24, r18
     602:	c0 01       	movw	r24, r0
     604:	11 24       	eor	r1, r1
     606:	6c e3       	ldi	r22, 0x3C	; 60
     608:	70 e0       	ldi	r23, 0x00	; 0
     60a:	c8 d7       	rcall	.+3984   	; 0x159c <__divmodhi4>
     60c:	d6 01       	movw	r26, r12
     60e:	13 96       	adiw	r26, 0x03	; 3
     610:	8c 91       	ld	r24, X
     612:	13 97       	sbiw	r26, 0x03	; 3
     614:	82 9f       	mul	r24, r18
     616:	c0 01       	movw	r24, r0
     618:	11 24       	eor	r1, r1
     61a:	68 0f       	add	r22, r24
     61c:	79 1f       	adc	r23, r25
     61e:	68 15       	cp	r22, r8
     620:	79 05       	cpc	r23, r9
     622:	2c f4       	brge	.+10     	; 0x62e <__stack+0x1cf>
     624:	18 96       	adiw	r26, 0x08	; 8
     626:	1c 92       	st	X, r1
     628:	00 e0       	ldi	r16, 0x00	; 0
     62a:	10 e0       	ldi	r17, 0x00	; 0
     62c:	41 c0       	rjmp	.+130    	; 0x6b0 <__stack+0x251>
     62e:	c4 01       	movw	r24, r8
     630:	8c 59       	subi	r24, 0x9C	; 156
     632:	9f 4f       	sbci	r25, 0xFF	; 255
     634:	68 17       	cp	r22, r24
     636:	79 07       	cpc	r23, r25
     638:	2c f4       	brge	.+10     	; 0x644 <__stack+0x1e5>
     63a:	68 19       	sub	r22, r8
     63c:	79 09       	sbc	r23, r9
     63e:	f6 01       	movw	r30, r12
     640:	60 87       	std	Z+8, r22	; 0x08
     642:	f2 cf       	rjmp	.-28     	; 0x628 <__stack+0x1c9>
     644:	6e 17       	cp	r22, r30
     646:	7f 07       	cpc	r23, r31
     648:	24 f4       	brge	.+8      	; 0x652 <__stack+0x1f3>
     64a:	d6 01       	movw	r26, r12
     64c:	18 96       	adiw	r26, 0x08	; 8
     64e:	2c 93       	st	X, r18
     650:	eb cf       	rjmp	.-42     	; 0x628 <__stack+0x1c9>
     652:	cf 01       	movw	r24, r30
     654:	8c 59       	subi	r24, 0x9C	; 156
     656:	9f 4f       	sbci	r25, 0xFF	; 255
     658:	68 17       	cp	r22, r24
     65a:	79 07       	cpc	r23, r25
     65c:	3c f4       	brge	.+14     	; 0x66c <__stack+0x20d>
     65e:	e6 1b       	sub	r30, r22
     660:	f7 0b       	sbc	r31, r23
     662:	8e 2f       	mov	r24, r30
     664:	8c 59       	subi	r24, 0x9C	; 156
     666:	f6 01       	movw	r30, r12
     668:	80 87       	std	Z+8, r24	; 0x08
     66a:	de cf       	rjmp	.-68     	; 0x628 <__stack+0x1c9>
     66c:	d6 01       	movw	r26, r12
     66e:	da cf       	rjmp	.-76     	; 0x624 <__stack+0x1c5>
     670:	12 16       	cp	r1, r18
     672:	64 f4       	brge	.+24     	; 0x68c <__stack+0x22d>
     674:	c6 01       	movw	r24, r12
     676:	38 de       	rcall	.-912    	; 0x2e8 <add_hour>
     678:	f6 01       	movw	r30, r12
     67a:	81 85       	ldd	r24, Z+9	; 0x09
     67c:	8f 5f       	subi	r24, 0xFF	; 255
     67e:	81 87       	std	Z+9, r24	; 0x09
     680:	83 85       	ldd	r24, Z+11	; 0x0b
     682:	8f 5f       	subi	r24, 0xFF	; 255
     684:	83 87       	std	Z+11, r24	; 0x0b
     686:	0f 5f       	subi	r16, 0xFF	; 255
     688:	1f 4f       	sbci	r17, 0xFF	; 255
     68a:	12 c0       	rjmp	.+36     	; 0x6b0 <__stack+0x251>
     68c:	c6 01       	movw	r24, r12
     68e:	36 de       	rcall	.-916    	; 0x2fc <sub_hour>
     690:	d6 01       	movw	r26, r12
     692:	19 96       	adiw	r26, 0x09	; 9
     694:	8c 91       	ld	r24, X
     696:	19 97       	sbiw	r26, 0x09	; 9
     698:	81 50       	subi	r24, 0x01	; 1
     69a:	19 96       	adiw	r26, 0x09	; 9
     69c:	8c 93       	st	X, r24
     69e:	19 97       	sbiw	r26, 0x09	; 9
     6a0:	1b 96       	adiw	r26, 0x0b	; 11
     6a2:	8c 91       	ld	r24, X
     6a4:	1b 97       	sbiw	r26, 0x0b	; 11
     6a6:	81 50       	subi	r24, 0x01	; 1
     6a8:	1b 96       	adiw	r26, 0x0b	; 11
     6aa:	8c 93       	st	X, r24
     6ac:	01 50       	subi	r16, 0x01	; 1
     6ae:	10 40       	sbci	r17, 0x00	; 0
     6b0:	20 91 5f 02 	lds	r18, 0x025F
     6b4:	82 2f       	mov	r24, r18
     6b6:	99 27       	eor	r25, r25
     6b8:	87 fd       	sbrc	r24, 7
     6ba:	90 95       	com	r25
     6bc:	08 17       	cp	r16, r24
     6be:	19 07       	cpc	r17, r25
     6c0:	b9 f6       	brne	.-82     	; 0x670 <__stack+0x211>
     6c2:	f6 01       	movw	r30, r12
     6c4:	21 81       	ldd	r18, Z+1	; 0x01
     6c6:	82 2f       	mov	r24, r18
     6c8:	83 50       	subi	r24, 0x03	; 3
     6ca:	88 30       	cpi	r24, 0x08	; 8
     6cc:	c8 f4       	brcc	.+50     	; 0x700 <__stack+0x2a1>
     6ce:	82 2f       	mov	r24, r18
     6d0:	84 50       	subi	r24, 0x04	; 4
     6d2:	86 30       	cpi	r24, 0x06	; 6
     6d4:	b8 f0       	brcs	.+46     	; 0x704 <__stack+0x2a5>
     6d6:	d6 01       	movw	r26, r12
     6d8:	16 96       	adiw	r26, 0x06	; 6
     6da:	3c 91       	ld	r19, X
     6dc:	16 97       	sbiw	r26, 0x06	; 6
     6de:	12 96       	adiw	r26, 0x02	; 2
     6e0:	8c 91       	ld	r24, X
     6e2:	12 97       	sbiw	r26, 0x02	; 2
     6e4:	90 e0       	ldi	r25, 0x00	; 0
     6e6:	83 1b       	sub	r24, r19
     6e8:	91 09       	sbc	r25, r1
     6ea:	49 97       	sbiw	r24, 0x19	; 25
     6ec:	fc f0       	brlt	.+62     	; 0x72c <__stack+0x2cd>
     6ee:	33 23       	and	r19, r19
     6f0:	21 f4       	brne	.+8      	; 0x6fa <__stack+0x29b>
     6f2:	13 96       	adiw	r26, 0x03	; 3
     6f4:	8c 91       	ld	r24, X
     6f6:	83 30       	cpi	r24, 0x03	; 3
     6f8:	c8 f0       	brcs	.+50     	; 0x72c <__stack+0x2cd>
     6fa:	2a 30       	cpi	r18, 0x0A	; 10
     6fc:	19 f4       	brne	.+6      	; 0x704 <__stack+0x2a5>
     6fe:	f6 01       	movw	r30, r12
     700:	17 82       	std	Z+7, r1	; 0x07
     702:	27 c0       	rjmp	.+78     	; 0x752 <__stack+0x2f3>
     704:	d6 01       	movw	r26, r12
     706:	19 96       	adiw	r26, 0x09	; 9
     708:	8c 91       	ld	r24, X
     70a:	19 97       	sbiw	r26, 0x09	; 9
     70c:	8f 5f       	subi	r24, 0xFF	; 255
     70e:	19 96       	adiw	r26, 0x09	; 9
     710:	8c 93       	st	X, r24
     712:	19 97       	sbiw	r26, 0x09	; 9
     714:	1b 96       	adiw	r26, 0x0b	; 11
     716:	8c 91       	ld	r24, X
     718:	1b 97       	sbiw	r26, 0x0b	; 11
     71a:	8f 5f       	subi	r24, 0xFF	; 255
     71c:	1b 96       	adiw	r26, 0x0b	; 11
     71e:	8c 93       	st	X, r24
     720:	c6 01       	movw	r24, r12
     722:	e2 dd       	rcall	.-1084   	; 0x2e8 <add_hour>
     724:	81 e0       	ldi	r24, 0x01	; 1
     726:	f6 01       	movw	r30, r12
     728:	87 83       	std	Z+7, r24	; 0x07
     72a:	13 c0       	rjmp	.+38     	; 0x752 <__stack+0x2f3>
     72c:	23 30       	cpi	r18, 0x03	; 3
     72e:	21 f4       	brne	.+8      	; 0x738 <__stack+0x2d9>
     730:	d6 01       	movw	r26, r12
     732:	17 96       	adiw	r26, 0x07	; 7
     734:	1c 92       	st	X, r1
     736:	0d c0       	rjmp	.+26     	; 0x752 <__stack+0x2f3>
     738:	f6 01       	movw	r30, r12
     73a:	81 85       	ldd	r24, Z+9	; 0x09
     73c:	8f 5f       	subi	r24, 0xFF	; 255
     73e:	81 87       	std	Z+9, r24	; 0x09
     740:	83 85       	ldd	r24, Z+11	; 0x0b
     742:	8f 5f       	subi	r24, 0xFF	; 255
     744:	83 87       	std	Z+11, r24	; 0x0b
     746:	c6 01       	movw	r24, r12
     748:	cf dd       	rcall	.-1122   	; 0x2e8 <add_hour>
     74a:	81 e0       	ldi	r24, 0x01	; 1
     74c:	d6 01       	movw	r26, r12
     74e:	17 96       	adiw	r26, 0x07	; 7
     750:	8c 93       	st	X, r24
     752:	87 2d       	mov	r24, r7
     754:	27 96       	adiw	r28, 0x07	; 7
     756:	0f b6       	in	r0, 0x3f	; 63
     758:	f8 94       	cli
     75a:	de bf       	out	0x3e, r29	; 62
     75c:	0f be       	out	0x3f, r0	; 63
     75e:	cd bf       	out	0x3d, r28	; 61
     760:	cf 91       	pop	r28
     762:	df 91       	pop	r29
     764:	1f 91       	pop	r17
     766:	0f 91       	pop	r16
     768:	ff 90       	pop	r15
     76a:	ef 90       	pop	r14
     76c:	df 90       	pop	r13
     76e:	cf 90       	pop	r12
     770:	bf 90       	pop	r11
     772:	af 90       	pop	r10
     774:	9f 90       	pop	r9
     776:	8f 90       	pop	r8
     778:	7f 90       	pop	r7
     77a:	08 95       	ret

0000077c <read_byte>:
     77c:	80 5f       	subi	r24, 0xF0	; 240
     77e:	41 e0       	ldi	r20, 0x01	; 1
     780:	df dd       	rcall	.-1090   	; 0x340 <i2c_rtc_sram_read>
     782:	08 95       	ret

00000784 <i2c_rtc_sram_write>:
     784:	ef 92       	push	r14
     786:	ff 92       	push	r15
     788:	0f 93       	push	r16
     78a:	1f 93       	push	r17
     78c:	cf 93       	push	r28
     78e:	df 93       	push	r29
     790:	08 2f       	mov	r16, r24
     792:	f6 2e       	mov	r15, r22
     794:	e7 2e       	mov	r14, r23
     796:	14 2f       	mov	r17, r20
     798:	80 91 60 02 	lds	r24, 0x0260
     79c:	88 23       	and	r24, r24
     79e:	41 f1       	breq	.+80     	; 0x7f0 <i2c_rtc_sram_write+0x6c>
     7a0:	44 23       	and	r20, r20
     7a2:	31 f1       	breq	.+76     	; 0x7f0 <i2c_rtc_sram_write+0x6c>
     7a4:	80 2f       	mov	r24, r16
     7a6:	90 e0       	ldi	r25, 0x00	; 0
     7a8:	84 0f       	add	r24, r20
     7aa:	91 1d       	adc	r25, r1
     7ac:	81 34       	cpi	r24, 0x41	; 65
     7ae:	91 05       	cpc	r25, r1
     7b0:	fc f4       	brge	.+62     	; 0x7f0 <i2c_rtc_sram_write+0x6c>
     7b2:	80 ed       	ldi	r24, 0xD0	; 208
     7b4:	64 e6       	ldi	r22, 0x64	; 100
     7b6:	70 e0       	ldi	r23, 0x00	; 0
     7b8:	94 dc       	rcall	.-1752   	; 0xe2 <i2c_master_start_wait>
     7ba:	88 23       	and	r24, r24
     7bc:	b1 f0       	breq	.+44     	; 0x7ea <i2c_rtc_sram_write+0x66>
     7be:	80 2f       	mov	r24, r16
     7c0:	61 e6       	ldi	r22, 0x61	; 97
     7c2:	72 e0       	ldi	r23, 0x02	; 2
     7c4:	c5 dc       	rcall	.-1654   	; 0x150 <i2c_master_write>
     7c6:	88 23       	and	r24, r24
     7c8:	81 f4       	brne	.+32     	; 0x7ea <i2c_rtc_sram_write+0x66>
     7ca:	8f 2d       	mov	r24, r15
     7cc:	9e 2d       	mov	r25, r14
     7ce:	9c 01       	movw	r18, r24
     7d0:	e9 01       	movw	r28, r18
     7d2:	88 81       	ld	r24, Y
     7d4:	61 e6       	ldi	r22, 0x61	; 97
     7d6:	72 e0       	ldi	r23, 0x02	; 2
     7d8:	bb dc       	rcall	.-1674   	; 0x150 <i2c_master_write>
     7da:	11 50       	subi	r17, 0x01	; 1
     7dc:	88 23       	and	r24, r24
     7de:	29 f4       	brne	.+10     	; 0x7ea <i2c_rtc_sram_write+0x66>
     7e0:	21 96       	adiw	r28, 0x01	; 1
     7e2:	11 23       	and	r17, r17
     7e4:	b1 f7       	brne	.-20     	; 0x7d2 <i2c_rtc_sram_write+0x4e>
     7e6:	11 e0       	ldi	r17, 0x01	; 1
     7e8:	01 c0       	rjmp	.+2      	; 0x7ec <i2c_rtc_sram_write+0x68>
     7ea:	10 e0       	ldi	r17, 0x00	; 0
     7ec:	ab dc       	rcall	.-1706   	; 0x144 <i2c_master_stop>
     7ee:	01 c0       	rjmp	.+2      	; 0x7f2 <i2c_rtc_sram_write+0x6e>
     7f0:	10 e0       	ldi	r17, 0x00	; 0
     7f2:	81 2f       	mov	r24, r17
     7f4:	df 91       	pop	r29
     7f6:	cf 91       	pop	r28
     7f8:	1f 91       	pop	r17
     7fa:	0f 91       	pop	r16
     7fc:	ff 90       	pop	r15
     7fe:	ef 90       	pop	r14
     800:	08 95       	ret

00000802 <i2c_rtc_init>:
     802:	ef 92       	push	r14
     804:	ff 92       	push	r15
     806:	0f 93       	push	r16
     808:	1f 93       	push	r17
     80a:	df 93       	push	r29
     80c:	cf 93       	push	r28
     80e:	00 d0       	rcall	.+0      	; 0x810 <i2c_rtc_init+0xe>
     810:	cd b7       	in	r28, 0x3d	; 61
     812:	de b7       	in	r29, 0x3e	; 62
     814:	8c 01       	movw	r16, r24
     816:	7b 01       	movw	r14, r22
     818:	8f ef       	ldi	r24, 0xFF	; 255
     81a:	fb 01       	movw	r30, r22
     81c:	80 83       	st	Z, r24
     81e:	37 dc       	rcall	.-1938   	; 0x8e <i2c_master_init>
     820:	f8 01       	movw	r30, r16
     822:	80 83       	st	Z, r24
     824:	88 23       	and	r24, r24
     826:	c1 f4       	brne	.+48     	; 0x858 <i2c_rtc_init+0x56>
     828:	81 e0       	ldi	r24, 0x01	; 1
     82a:	80 93 60 02 	sts	0x0260, r24
     82e:	80 e8       	ldi	r24, 0x80	; 128
     830:	80 93 62 02 	sts	0x0262, r24
     834:	80 91 62 02 	lds	r24, 0x0262
     838:	8a 83       	std	Y+2, r24	; 0x02
     83a:	87 e0       	ldi	r24, 0x07	; 7
     83c:	be 01       	movw	r22, r28
     83e:	6e 5f       	subi	r22, 0xFE	; 254
     840:	7f 4f       	sbci	r23, 0xFF	; 255
     842:	41 e0       	ldi	r20, 0x01	; 1
     844:	9f df       	rcall	.-194    	; 0x784 <i2c_rtc_sram_write>
     846:	88 23       	and	r24, r24
     848:	01 f5       	brne	.+64     	; 0x88a <i2c_rtc_init+0x88>
     84a:	83 e0       	ldi	r24, 0x03	; 3
     84c:	f8 01       	movw	r30, r16
     84e:	80 83       	st	Z, r24
     850:	80 91 61 02 	lds	r24, 0x0261
     854:	f7 01       	movw	r30, r14
     856:	80 83       	st	Z, r24
     858:	80 e0       	ldi	r24, 0x00	; 0
     85a:	0e c0       	rjmp	.+28     	; 0x878 <i2c_rtc_init+0x76>
     85c:	89 81       	ldd	r24, Y+1	; 0x01
     85e:	87 ff       	sbrs	r24, 7
     860:	06 c0       	rjmp	.+12     	; 0x86e <i2c_rtc_init+0x6c>
     862:	8f 77       	andi	r24, 0x7F	; 127
     864:	89 83       	std	Y+1, r24	; 0x01
     866:	80 e0       	ldi	r24, 0x00	; 0
     868:	b8 01       	movw	r22, r16
     86a:	41 e0       	ldi	r20, 0x01	; 1
     86c:	8b df       	rcall	.-234    	; 0x784 <i2c_rtc_sram_write>
     86e:	81 e0       	ldi	r24, 0x01	; 1
     870:	6f e5       	ldi	r22, 0x5F	; 95
     872:	72 e0       	ldi	r23, 0x02	; 2
     874:	83 df       	rcall	.-250    	; 0x77c <read_byte>
     876:	81 e0       	ldi	r24, 0x01	; 1
     878:	0f 90       	pop	r0
     87a:	0f 90       	pop	r0
     87c:	cf 91       	pop	r28
     87e:	df 91       	pop	r29
     880:	1f 91       	pop	r17
     882:	0f 91       	pop	r16
     884:	ff 90       	pop	r15
     886:	ef 90       	pop	r14
     888:	08 95       	ret
     88a:	80 e0       	ldi	r24, 0x00	; 0
     88c:	8e 01       	movw	r16, r28
     88e:	0f 5f       	subi	r16, 0xFF	; 255
     890:	1f 4f       	sbci	r17, 0xFF	; 255
     892:	b8 01       	movw	r22, r16
     894:	41 e0       	ldi	r20, 0x01	; 1
     896:	54 dd       	rcall	.-1368   	; 0x340 <i2c_rtc_sram_read>
     898:	88 23       	and	r24, r24
     89a:	01 f7       	brne	.-64     	; 0x85c <i2c_rtc_init+0x5a>
     89c:	e8 cf       	rjmp	.-48     	; 0x86e <i2c_rtc_init+0x6c>

0000089e <i2c_rtc_write>:
     89e:	df 93       	push	r29
     8a0:	cf 93       	push	r28
     8a2:	cd b7       	in	r28, 0x3d	; 61
     8a4:	de b7       	in	r29, 0x3e	; 62
     8a6:	27 97       	sbiw	r28, 0x07	; 7
     8a8:	0f b6       	in	r0, 0x3f	; 63
     8aa:	f8 94       	cli
     8ac:	de bf       	out	0x3e, r29	; 62
     8ae:	0f be       	out	0x3f, r0	; 63
     8b0:	cd bf       	out	0x3d, r28	; 61
     8b2:	fc 01       	movw	r30, r24
     8b4:	80 91 60 02 	lds	r24, 0x0260
     8b8:	88 23       	and	r24, r24
     8ba:	09 f4       	brne	.+2      	; 0x8be <i2c_rtc_write+0x20>
     8bc:	76 c0       	rjmp	.+236    	; 0x9aa <i2c_rtc_write+0x10c>
     8be:	65 81       	ldd	r22, Z+5	; 0x05
     8c0:	4d ec       	ldi	r20, 0xCD	; 205
     8c2:	64 9f       	mul	r22, r20
     8c4:	c0 01       	movw	r24, r0
     8c6:	11 24       	eor	r1, r1
     8c8:	96 95       	lsr	r25
     8ca:	96 95       	lsr	r25
     8cc:	96 95       	lsr	r25
     8ce:	26 ef       	ldi	r18, 0xF6	; 246
     8d0:	3f ef       	ldi	r19, 0xFF	; 255
     8d2:	92 9f       	mul	r25, r18
     8d4:	80 2d       	mov	r24, r0
     8d6:	11 24       	eor	r1, r1
     8d8:	86 0f       	add	r24, r22
     8da:	92 95       	swap	r25
     8dc:	90 7f       	andi	r25, 0xF0	; 240
     8de:	89 2b       	or	r24, r25
     8e0:	89 83       	std	Y+1, r24	; 0x01
     8e2:	64 81       	ldd	r22, Z+4	; 0x04
     8e4:	64 9f       	mul	r22, r20
     8e6:	c0 01       	movw	r24, r0
     8e8:	11 24       	eor	r1, r1
     8ea:	96 95       	lsr	r25
     8ec:	96 95       	lsr	r25
     8ee:	96 95       	lsr	r25
     8f0:	92 9f       	mul	r25, r18
     8f2:	80 2d       	mov	r24, r0
     8f4:	11 24       	eor	r1, r1
     8f6:	86 0f       	add	r24, r22
     8f8:	92 95       	swap	r25
     8fa:	90 7f       	andi	r25, 0xF0	; 240
     8fc:	89 2b       	or	r24, r25
     8fe:	8a 83       	std	Y+2, r24	; 0x02
     900:	63 81       	ldd	r22, Z+3	; 0x03
     902:	64 9f       	mul	r22, r20
     904:	c0 01       	movw	r24, r0
     906:	11 24       	eor	r1, r1
     908:	96 95       	lsr	r25
     90a:	96 95       	lsr	r25
     90c:	96 95       	lsr	r25
     90e:	92 9f       	mul	r25, r18
     910:	80 2d       	mov	r24, r0
     912:	11 24       	eor	r1, r1
     914:	86 0f       	add	r24, r22
     916:	92 95       	swap	r25
     918:	90 7f       	andi	r25, 0xF0	; 240
     91a:	89 2b       	or	r24, r25
     91c:	8b 83       	std	Y+3, r24	; 0x03
     91e:	66 81       	ldd	r22, Z+6	; 0x06
     920:	64 9f       	mul	r22, r20
     922:	c0 01       	movw	r24, r0
     924:	11 24       	eor	r1, r1
     926:	96 95       	lsr	r25
     928:	96 95       	lsr	r25
     92a:	96 95       	lsr	r25
     92c:	92 9f       	mul	r25, r18
     92e:	80 2d       	mov	r24, r0
     930:	11 24       	eor	r1, r1
     932:	86 0f       	add	r24, r22
     934:	92 95       	swap	r25
     936:	90 7f       	andi	r25, 0xF0	; 240
     938:	89 2b       	or	r24, r25
     93a:	8f 5f       	subi	r24, 0xFF	; 255
     93c:	8c 83       	std	Y+4, r24	; 0x04
     93e:	62 81       	ldd	r22, Z+2	; 0x02
     940:	64 9f       	mul	r22, r20
     942:	c0 01       	movw	r24, r0
     944:	11 24       	eor	r1, r1
     946:	96 95       	lsr	r25
     948:	96 95       	lsr	r25
     94a:	96 95       	lsr	r25
     94c:	92 9f       	mul	r25, r18
     94e:	80 2d       	mov	r24, r0
     950:	11 24       	eor	r1, r1
     952:	86 0f       	add	r24, r22
     954:	92 95       	swap	r25
     956:	90 7f       	andi	r25, 0xF0	; 240
     958:	89 2b       	or	r24, r25
     95a:	8d 83       	std	Y+5, r24	; 0x05
     95c:	61 81       	ldd	r22, Z+1	; 0x01
     95e:	64 9f       	mul	r22, r20
     960:	c0 01       	movw	r24, r0
     962:	11 24       	eor	r1, r1
     964:	96 95       	lsr	r25
     966:	96 95       	lsr	r25
     968:	96 95       	lsr	r25
     96a:	92 9f       	mul	r25, r18
     96c:	80 2d       	mov	r24, r0
     96e:	11 24       	eor	r1, r1
     970:	86 0f       	add	r24, r22
     972:	92 95       	swap	r25
     974:	90 7f       	andi	r25, 0xF0	; 240
     976:	89 2b       	or	r24, r25
     978:	8e 83       	std	Y+6, r24	; 0x06
     97a:	90 81       	ld	r25, Z
     97c:	94 9f       	mul	r25, r20
     97e:	a0 01       	movw	r20, r0
     980:	11 24       	eor	r1, r1
     982:	85 2f       	mov	r24, r21
     984:	86 95       	lsr	r24
     986:	86 95       	lsr	r24
     988:	86 95       	lsr	r24
     98a:	82 9f       	mul	r24, r18
     98c:	20 2d       	mov	r18, r0
     98e:	11 24       	eor	r1, r1
     990:	29 0f       	add	r18, r25
     992:	82 95       	swap	r24
     994:	80 7f       	andi	r24, 0xF0	; 240
     996:	28 2b       	or	r18, r24
     998:	2f 83       	std	Y+7, r18	; 0x07
     99a:	80 e0       	ldi	r24, 0x00	; 0
     99c:	be 01       	movw	r22, r28
     99e:	6f 5f       	subi	r22, 0xFF	; 255
     9a0:	7f 4f       	sbci	r23, 0xFF	; 255
     9a2:	47 e0       	ldi	r20, 0x07	; 7
     9a4:	ef de       	rcall	.-546    	; 0x784 <i2c_rtc_sram_write>
     9a6:	81 11       	cpse	r24, r1
     9a8:	81 e0       	ldi	r24, 0x01	; 1
     9aa:	27 96       	adiw	r28, 0x07	; 7
     9ac:	0f b6       	in	r0, 0x3f	; 63
     9ae:	f8 94       	cli
     9b0:	de bf       	out	0x3e, r29	; 62
     9b2:	0f be       	out	0x3f, r0	; 63
     9b4:	cd bf       	out	0x3d, r28	; 61
     9b6:	cf 91       	pop	r28
     9b8:	df 91       	pop	r29
     9ba:	08 95       	ret

000009bc <save_byte>:
     9bc:	df 93       	push	r29
     9be:	cf 93       	push	r28
     9c0:	0f 92       	push	r0
     9c2:	cd b7       	in	r28, 0x3d	; 61
     9c4:	de b7       	in	r29, 0x3e	; 62
     9c6:	69 83       	std	Y+1, r22	; 0x01
     9c8:	80 5f       	subi	r24, 0xF0	; 240
     9ca:	be 01       	movw	r22, r28
     9cc:	6f 5f       	subi	r22, 0xFF	; 255
     9ce:	7f 4f       	sbci	r23, 0xFF	; 255
     9d0:	41 e0       	ldi	r20, 0x01	; 1
     9d2:	d8 de       	rcall	.-592    	; 0x784 <i2c_rtc_sram_write>
     9d4:	0f 90       	pop	r0
     9d6:	cf 91       	pop	r28
     9d8:	df 91       	pop	r29
     9da:	08 95       	ret

000009dc <set_offset>:
     9dc:	68 2f       	mov	r22, r24
     9de:	28 2f       	mov	r18, r24
     9e0:	30 e0       	ldi	r19, 0x00	; 0
     9e2:	80 91 5f 02 	lds	r24, 0x025F
     9e6:	99 27       	eor	r25, r25
     9e8:	87 fd       	sbrc	r24, 7
     9ea:	90 95       	com	r25
     9ec:	28 17       	cp	r18, r24
     9ee:	39 07       	cpc	r19, r25
     9f0:	21 f0       	breq	.+8      	; 0x9fa <set_offset+0x1e>
     9f2:	60 93 5f 02 	sts	0x025F, r22
     9f6:	81 e0       	ldi	r24, 0x01	; 1
     9f8:	e1 df       	rcall	.-62     	; 0x9bc <save_byte>
     9fa:	08 95       	ret

000009fc <uartPutc>:
     9fc:	5d 9b       	sbis	0x0b, 5	; 11
     9fe:	fe cf       	rjmp	.-4      	; 0x9fc <uartPutc>
     a00:	8c b9       	out	0x0c, r24	; 12
     a02:	08 95       	ret

00000a04 <uartPuts>:
     a04:	fc 01       	movw	r30, r24
     a06:	04 c0       	rjmp	.+8      	; 0xa10 <uartPuts+0xc>
     a08:	5d 9b       	sbis	0x0b, 5	; 11
     a0a:	fe cf       	rjmp	.-4      	; 0xa08 <uartPuts+0x4>
     a0c:	8c b9       	out	0x0c, r24	; 12
     a0e:	31 96       	adiw	r30, 0x01	; 1
     a10:	80 81       	ld	r24, Z
     a12:	88 23       	and	r24, r24
     a14:	c9 f7       	brne	.-14     	; 0xa08 <uartPuts+0x4>
     a16:	08 95       	ret

00000a18 <__vector_11>:
     a18:	1f 92       	push	r1
     a1a:	0f 92       	push	r0
     a1c:	0f b6       	in	r0, 0x3f	; 63
     a1e:	0f 92       	push	r0
     a20:	11 24       	eor	r1, r1
     a22:	8f 93       	push	r24
     a24:	9f 93       	push	r25
     a26:	ef 93       	push	r30
     a28:	ff 93       	push	r31
     a2a:	9c b1       	in	r25, 0x0c	; 12
     a2c:	80 91 63 02 	lds	r24, 0x0263
     a30:	88 23       	and	r24, r24
     a32:	f9 f4       	brne	.+62     	; 0xa72 <__vector_11+0x5a>
     a34:	9a 30       	cpi	r25, 0x0A	; 10
     a36:	91 f0       	breq	.+36     	; 0xa5c <__vector_11+0x44>
     a38:	9d 30       	cpi	r25, 0x0D	; 13
     a3a:	81 f0       	breq	.+32     	; 0xa5c <__vector_11+0x44>
     a3c:	80 91 64 02 	lds	r24, 0x0264
     a40:	83 36       	cpi	r24, 0x63	; 99
     a42:	60 f4       	brcc	.+24     	; 0xa5c <__vector_11+0x44>
     a44:	e0 91 64 02 	lds	r30, 0x0264
     a48:	f0 e0       	ldi	r31, 0x00	; 0
     a4a:	e8 50       	subi	r30, 0x08	; 8
     a4c:	fe 4f       	sbci	r31, 0xFE	; 254
     a4e:	90 83       	st	Z, r25
     a50:	80 91 64 02 	lds	r24, 0x0264
     a54:	8f 5f       	subi	r24, 0xFF	; 255
     a56:	80 93 64 02 	sts	0x0264, r24
     a5a:	0b c0       	rjmp	.+22     	; 0xa72 <__vector_11+0x5a>
     a5c:	e0 91 64 02 	lds	r30, 0x0264
     a60:	f0 e0       	ldi	r31, 0x00	; 0
     a62:	e8 50       	subi	r30, 0x08	; 8
     a64:	fe 4f       	sbci	r31, 0xFE	; 254
     a66:	10 82       	st	Z, r1
     a68:	10 92 64 02 	sts	0x0264, r1
     a6c:	81 e0       	ldi	r24, 0x01	; 1
     a6e:	80 93 63 02 	sts	0x0263, r24
     a72:	ff 91       	pop	r31
     a74:	ef 91       	pop	r30
     a76:	9f 91       	pop	r25
     a78:	8f 91       	pop	r24
     a7a:	0f 90       	pop	r0
     a7c:	0f be       	out	0x3f, r0	; 63
     a7e:	0f 90       	pop	r0
     a80:	1f 90       	pop	r1
     a82:	18 95       	reti

00000a84 <hex2dez_c>:
     a84:	98 2f       	mov	r25, r24
     a86:	80 53       	subi	r24, 0x30	; 48
     a88:	8a 30       	cpi	r24, 0x0A	; 10
     a8a:	28 f4       	brcc	.+10     	; 0xa96 <hex2dez_c+0x12>
     a8c:	29 2f       	mov	r18, r25
     a8e:	30 e0       	ldi	r19, 0x00	; 0
     a90:	20 53       	subi	r18, 0x30	; 48
     a92:	30 40       	sbci	r19, 0x00	; 0
     a94:	14 c0       	rjmp	.+40     	; 0xabe <hex2dez_c+0x3a>
     a96:	89 2f       	mov	r24, r25
     a98:	81 54       	subi	r24, 0x41	; 65
     a9a:	86 30       	cpi	r24, 0x06	; 6
     a9c:	28 f4       	brcc	.+10     	; 0xaa8 <hex2dez_c+0x24>
     a9e:	29 2f       	mov	r18, r25
     aa0:	30 e0       	ldi	r19, 0x00	; 0
     aa2:	27 53       	subi	r18, 0x37	; 55
     aa4:	30 40       	sbci	r19, 0x00	; 0
     aa6:	0b c0       	rjmp	.+22     	; 0xabe <hex2dez_c+0x3a>
     aa8:	89 2f       	mov	r24, r25
     aaa:	81 56       	subi	r24, 0x61	; 97
     aac:	86 30       	cpi	r24, 0x06	; 6
     aae:	18 f0       	brcs	.+6      	; 0xab6 <hex2dez_c+0x32>
     ab0:	2f ef       	ldi	r18, 0xFF	; 255
     ab2:	3f ef       	ldi	r19, 0xFF	; 255
     ab4:	04 c0       	rjmp	.+8      	; 0xabe <hex2dez_c+0x3a>
     ab6:	29 2f       	mov	r18, r25
     ab8:	30 e0       	ldi	r19, 0x00	; 0
     aba:	27 55       	subi	r18, 0x57	; 87
     abc:	30 40       	sbci	r19, 0x00	; 0
     abe:	c9 01       	movw	r24, r18
     ac0:	08 95       	ret

00000ac2 <hex2dez>:
     ac2:	fc 01       	movw	r30, r24
     ac4:	90 81       	ld	r25, Z
     ac6:	89 2f       	mov	r24, r25
     ac8:	80 53       	subi	r24, 0x30	; 48
     aca:	8a 30       	cpi	r24, 0x0A	; 10
     acc:	28 f4       	brcc	.+10     	; 0xad8 <hex2dez+0x16>
     ace:	29 2f       	mov	r18, r25
     ad0:	30 e0       	ldi	r19, 0x00	; 0
     ad2:	20 53       	subi	r18, 0x30	; 48
     ad4:	30 40       	sbci	r19, 0x00	; 0
     ad6:	14 c0       	rjmp	.+40     	; 0xb00 <hex2dez+0x3e>
     ad8:	89 2f       	mov	r24, r25
     ada:	81 54       	subi	r24, 0x41	; 65
     adc:	86 30       	cpi	r24, 0x06	; 6
     ade:	28 f4       	brcc	.+10     	; 0xaea <hex2dez+0x28>
     ae0:	29 2f       	mov	r18, r25
     ae2:	30 e0       	ldi	r19, 0x00	; 0
     ae4:	27 53       	subi	r18, 0x37	; 55
     ae6:	30 40       	sbci	r19, 0x00	; 0
     ae8:	0b c0       	rjmp	.+22     	; 0xb00 <hex2dez+0x3e>
     aea:	89 2f       	mov	r24, r25
     aec:	81 56       	subi	r24, 0x61	; 97
     aee:	86 30       	cpi	r24, 0x06	; 6
     af0:	18 f0       	brcs	.+6      	; 0xaf8 <hex2dez+0x36>
     af2:	2f ef       	ldi	r18, 0xFF	; 255
     af4:	3f ef       	ldi	r19, 0xFF	; 255
     af6:	04 c0       	rjmp	.+8      	; 0xb00 <hex2dez+0x3e>
     af8:	29 2f       	mov	r18, r25
     afa:	30 e0       	ldi	r19, 0x00	; 0
     afc:	27 55       	subi	r18, 0x57	; 87
     afe:	30 40       	sbci	r19, 0x00	; 0
     b00:	91 81       	ldd	r25, Z+1	; 0x01
     b02:	89 2f       	mov	r24, r25
     b04:	80 53       	subi	r24, 0x30	; 48
     b06:	8a 30       	cpi	r24, 0x0A	; 10
     b08:	20 f4       	brcc	.+8      	; 0xb12 <hex2dez+0x50>
     b0a:	89 2f       	mov	r24, r25
     b0c:	90 e0       	ldi	r25, 0x00	; 0
     b0e:	c0 97       	sbiw	r24, 0x30	; 48
     b10:	13 c0       	rjmp	.+38     	; 0xb38 <hex2dez+0x76>
     b12:	89 2f       	mov	r24, r25
     b14:	81 54       	subi	r24, 0x41	; 65
     b16:	86 30       	cpi	r24, 0x06	; 6
     b18:	20 f4       	brcc	.+8      	; 0xb22 <hex2dez+0x60>
     b1a:	89 2f       	mov	r24, r25
     b1c:	90 e0       	ldi	r25, 0x00	; 0
     b1e:	c7 97       	sbiw	r24, 0x37	; 55
     b20:	0b c0       	rjmp	.+22     	; 0xb38 <hex2dez+0x76>
     b22:	89 2f       	mov	r24, r25
     b24:	81 56       	subi	r24, 0x61	; 97
     b26:	86 30       	cpi	r24, 0x06	; 6
     b28:	18 f0       	brcs	.+6      	; 0xb30 <hex2dez+0x6e>
     b2a:	8f ef       	ldi	r24, 0xFF	; 255
     b2c:	9f ef       	ldi	r25, 0xFF	; 255
     b2e:	04 c0       	rjmp	.+8      	; 0xb38 <hex2dez+0x76>
     b30:	89 2f       	mov	r24, r25
     b32:	90 e0       	ldi	r25, 0x00	; 0
     b34:	87 55       	subi	r24, 0x57	; 87
     b36:	90 40       	sbci	r25, 0x00	; 0
     b38:	37 fd       	sbrc	r19, 7
     b3a:	0a c0       	rjmp	.+20     	; 0xb50 <hex2dez+0x8e>
     b3c:	97 fd       	sbrc	r25, 7
     b3e:	08 c0       	rjmp	.+16     	; 0xb50 <hex2dez+0x8e>
     b40:	44 e0       	ldi	r20, 0x04	; 4
     b42:	22 0f       	add	r18, r18
     b44:	33 1f       	adc	r19, r19
     b46:	4a 95       	dec	r20
     b48:	e1 f7       	brne	.-8      	; 0xb42 <hex2dez+0x80>
     b4a:	28 0f       	add	r18, r24
     b4c:	39 1f       	adc	r19, r25
     b4e:	02 c0       	rjmp	.+4      	; 0xb54 <hex2dez+0x92>
     b50:	2f ef       	ldi	r18, 0xFF	; 255
     b52:	3f ef       	ldi	r19, 0xFF	; 255
     b54:	c9 01       	movw	r24, r18
     b56:	08 95       	ret

00000b58 <InitPWM>:
     b58:	8e e0       	ldi	r24, 0x0E	; 14
     b5a:	87 bb       	out	0x17, r24	; 23
     b5c:	81 ea       	ldi	r24, 0xA1	; 161
     b5e:	8f bd       	out	0x2f, r24	; 47
     b60:	81 e0       	ldi	r24, 0x01	; 1
     b62:	8e bd       	out	0x2e, r24	; 46
     b64:	81 e6       	ldi	r24, 0x61	; 97
     b66:	85 bd       	out	0x25, r24	; 37
     b68:	08 95       	ret

00000b6a <LinearizeForEye>:
     b6a:	08 95       	ret

00000b6c <SetColor>:
     b6c:	80 93 65 02 	sts	0x0265, r24
     b70:	60 93 66 02 	sts	0x0266, r22
     b74:	40 93 67 02 	sts	0x0267, r20
     b78:	8a bd       	out	0x2a, r24	; 42
     b7a:	68 bd       	out	0x28, r22	; 40
     b7c:	43 bd       	out	0x23, r20	; 35
     b7e:	08 95       	ret

00000b80 <readIr>:
     b80:	2f 92       	push	r2
     b82:	3f 92       	push	r3
     b84:	4f 92       	push	r4
     b86:	5f 92       	push	r5
     b88:	6f 92       	push	r6
     b8a:	7f 92       	push	r7
     b8c:	8f 92       	push	r8
     b8e:	9f 92       	push	r9
     b90:	af 92       	push	r10
     b92:	bf 92       	push	r11
     b94:	cf 92       	push	r12
     b96:	df 92       	push	r13
     b98:	ef 92       	push	r14
     b9a:	ff 92       	push	r15
     b9c:	0f 93       	push	r16
     b9e:	1f 93       	push	r17
     ba0:	df 93       	push	r29
     ba2:	cf 93       	push	r28
     ba4:	00 d0       	rcall	.+0      	; 0xba6 <readIr+0x26>
     ba6:	cd b7       	in	r28, 0x3d	; 61
     ba8:	de b7       	in	r29, 0x3e	; 62
     baa:	5c 01       	movw	r10, r24
     bac:	1b 01       	movw	r2, r22
     bae:	6a 01       	movw	r12, r20
     bb0:	49 01       	movw	r8, r18
     bb2:	38 01       	movw	r6, r16
     bb4:	27 01       	movw	r4, r14
     bb6:	84 e3       	ldi	r24, 0x34	; 52
     bb8:	64 e6       	ldi	r22, 0x64	; 100
     bba:	70 e0       	ldi	r23, 0x00	; 0
     bbc:	92 da       	rcall	.-2780   	; 0xe2 <i2c_master_start_wait>
     bbe:	88 23       	and	r24, r24
     bc0:	59 f4       	brne	.+22     	; 0xbd8 <readIr+0x58>
     bc2:	e4 ea       	ldi	r30, 0xA4	; 164
     bc4:	f0 e0       	ldi	r31, 0x00	; 0
     bc6:	04 c0       	rjmp	.+8      	; 0xbd0 <readIr+0x50>
     bc8:	5d 9b       	sbis	0x0b, 5	; 11
     bca:	fe cf       	rjmp	.-4      	; 0xbc8 <readIr+0x48>
     bcc:	8c b9       	out	0x0c, r24	; 12
     bce:	31 96       	adiw	r30, 0x01	; 1
     bd0:	80 81       	ld	r24, Z
     bd2:	88 23       	and	r24, r24
     bd4:	c9 f7       	brne	.-14     	; 0xbc8 <readIr+0x48>
     bd6:	fa c0       	rjmp	.+500    	; 0xdcc <readIr+0x24c>
     bd8:	80 e0       	ldi	r24, 0x00	; 0
     bda:	be 01       	movw	r22, r28
     bdc:	6f 5f       	subi	r22, 0xFF	; 255
     bde:	7f 4f       	sbci	r23, 0xFF	; 255
     be0:	b7 da       	rcall	.-2706   	; 0x150 <i2c_master_write>
     be2:	88 23       	and	r24, r24
     be4:	09 f0       	breq	.+2      	; 0xbe8 <readIr+0x68>
     be6:	f4 c0       	rjmp	.+488    	; 0xdd0 <readIr+0x250>
     be8:	85 e3       	ldi	r24, 0x35	; 53
     bea:	be 01       	movw	r22, r28
     bec:	6f 5f       	subi	r22, 0xFF	; 255
     bee:	7f 4f       	sbci	r23, 0xFF	; 255
     bf0:	a7 da       	rcall	.-2738   	; 0x140 <i2c_master_rep_start>
     bf2:	88 23       	and	r24, r24
     bf4:	09 f0       	breq	.+2      	; 0xbf8 <readIr+0x78>
     bf6:	ec c0       	rjmp	.+472    	; 0xdd0 <readIr+0x250>
     bf8:	bb da       	rcall	.-2698   	; 0x170 <i2c_master_read_ack>
     bfa:	8a 83       	std	Y+2, r24	; 0x02
     bfc:	b9 da       	rcall	.-2702   	; 0x170 <i2c_master_read_ack>
     bfe:	e8 2e       	mov	r14, r24
     c00:	b7 da       	rcall	.-2706   	; 0x170 <i2c_master_read_ack>
     c02:	f8 2e       	mov	r15, r24
     c04:	bc da       	rcall	.-2696   	; 0x17e <i2c_master_read_nak>
     c06:	08 2f       	mov	r16, r24
     c08:	9d da       	rcall	.-2758   	; 0x144 <i2c_master_stop>
     c0a:	9f 2d       	mov	r25, r15
     c0c:	80 e0       	ldi	r24, 0x00	; 0
     c0e:	10 e0       	ldi	r17, 0x00	; 0
     c10:	80 2b       	or	r24, r16
     c12:	91 2b       	or	r25, r17
     c14:	80 50       	subi	r24, 0x00	; 0
     c16:	9f 4e       	sbci	r25, 0xEF	; 239
     c18:	09 f0       	breq	.+2      	; 0xc1c <readIr+0x9c>
     c1a:	da c0       	rjmp	.+436    	; 0xdd0 <readIr+0x250>
     c1c:	84 e3       	ldi	r24, 0x34	; 52
     c1e:	64 e6       	ldi	r22, 0x64	; 100
     c20:	70 e0       	ldi	r23, 0x00	; 0
     c22:	5f da       	rcall	.-2882   	; 0xe2 <i2c_master_start_wait>
     c24:	88 23       	and	r24, r24
     c26:	59 f4       	brne	.+22     	; 0xc3e <readIr+0xbe>
     c28:	eb eb       	ldi	r30, 0xBB	; 187
     c2a:	f0 e0       	ldi	r31, 0x00	; 0
     c2c:	04 c0       	rjmp	.+8      	; 0xc36 <readIr+0xb6>
     c2e:	5d 9b       	sbis	0x0b, 5	; 11
     c30:	fe cf       	rjmp	.-4      	; 0xc2e <readIr+0xae>
     c32:	8c b9       	out	0x0c, r24	; 12
     c34:	31 96       	adiw	r30, 0x01	; 1
     c36:	80 81       	ld	r24, Z
     c38:	88 23       	and	r24, r24
     c3a:	c9 f7       	brne	.-14     	; 0xc2e <readIr+0xae>
     c3c:	c7 c0       	rjmp	.+398    	; 0xdcc <readIr+0x24c>
     c3e:	83 e0       	ldi	r24, 0x03	; 3
     c40:	be 01       	movw	r22, r28
     c42:	6f 5f       	subi	r22, 0xFF	; 255
     c44:	7f 4f       	sbci	r23, 0xFF	; 255
     c46:	84 da       	rcall	.-2808   	; 0x150 <i2c_master_write>
     c48:	8a ea       	ldi	r24, 0xAA	; 170
     c4a:	be 01       	movw	r22, r28
     c4c:	6f 5f       	subi	r22, 0xFF	; 255
     c4e:	7f 4f       	sbci	r23, 0xFF	; 255
     c50:	7f da       	rcall	.-2818   	; 0x150 <i2c_master_write>
     c52:	78 da       	rcall	.-2832   	; 0x144 <i2c_master_stop>
     c54:	9a 81       	ldd	r25, Y+2	; 0x02
     c56:	80 e0       	ldi	r24, 0x00	; 0
     c58:	ee 2d       	mov	r30, r14
     c5a:	f0 e0       	ldi	r31, 0x00	; 0
     c5c:	e8 2b       	or	r30, r24
     c5e:	f9 2b       	or	r31, r25
     c60:	e8 31       	cpi	r30, 0x18	; 24
     c62:	f1 05       	cpc	r31, r1
     c64:	08 f0       	brcs	.+2      	; 0xc68 <readIr+0xe8>
     c66:	a5 c0       	rjmp	.+330    	; 0xdb2 <readIr+0x232>
     c68:	ed 5e       	subi	r30, 0xED	; 237
     c6a:	ff 4f       	sbci	r31, 0xFF	; 255
     c6c:	09 94       	ijmp
     c6e:	f5 01       	movw	r30, r10
     c70:	80 81       	ld	r24, Z
     c72:	91 81       	ldd	r25, Z+1	; 0x01
     c74:	02 96       	adiw	r24, 0x02	; 2
     c76:	91 83       	std	Z+1, r25	; 0x01
     c78:	80 83       	st	Z, r24
     c7a:	85 36       	cpi	r24, 0x65	; 101
     c7c:	91 05       	cpc	r25, r1
     c7e:	0c f4       	brge	.+2      	; 0xc82 <readIr+0x102>
     c80:	98 c0       	rjmp	.+304    	; 0xdb2 <readIr+0x232>
     c82:	84 e6       	ldi	r24, 0x64	; 100
     c84:	90 e0       	ldi	r25, 0x00	; 0
     c86:	93 c0       	rjmp	.+294    	; 0xdae <readIr+0x22e>
     c88:	f5 01       	movw	r30, r10
     c8a:	80 81       	ld	r24, Z
     c8c:	91 81       	ldd	r25, Z+1	; 0x01
     c8e:	02 97       	sbiw	r24, 0x02	; 2
     c90:	91 83       	std	Z+1, r25	; 0x01
     c92:	80 83       	st	Z, r24
     c94:	05 97       	sbiw	r24, 0x05	; 5
     c96:	0c f0       	brlt	.+2      	; 0xc9a <readIr+0x11a>
     c98:	8c c0       	rjmp	.+280    	; 0xdb2 <readIr+0x232>
     c9a:	85 e0       	ldi	r24, 0x05	; 5
     c9c:	90 e0       	ldi	r25, 0x00	; 0
     c9e:	87 c0       	rjmp	.+270    	; 0xdae <readIr+0x22e>
     ca0:	f1 01       	movw	r30, r2
     ca2:	11 82       	std	Z+1, r1	; 0x01
     ca4:	10 82       	st	Z, r1
     ca6:	08 c0       	rjmp	.+16     	; 0xcb8 <readIr+0x138>
     ca8:	f6 01       	movw	r30, r12
     caa:	11 82       	std	Z+1, r1	; 0x01
     cac:	10 82       	st	Z, r1
     cae:	81 e0       	ldi	r24, 0x01	; 1
     cb0:	90 e0       	ldi	r25, 0x00	; 0
     cb2:	f1 01       	movw	r30, r2
     cb4:	91 83       	std	Z+1, r25	; 0x01
     cb6:	80 83       	st	Z, r24
     cb8:	86 e1       	ldi	r24, 0x16	; 22
     cba:	b1 01       	movw	r22, r2
     cbc:	42 e0       	ldi	r20, 0x02	; 2
     cbe:	62 dd       	rcall	.-1340   	; 0x784 <i2c_rtc_sram_write>
     cc0:	78 c0       	rjmp	.+240    	; 0xdb2 <readIr+0x232>
     cc2:	f6 01       	movw	r30, r12
     cc4:	11 82       	std	Z+1, r1	; 0x01
     cc6:	10 82       	st	Z, r1
     cc8:	84 e6       	ldi	r24, 0x64	; 100
     cca:	90 e0       	ldi	r25, 0x00	; 0
     ccc:	f5 01       	movw	r30, r10
     cce:	91 83       	std	Z+1, r25	; 0x01
     cd0:	80 83       	st	Z, r24
     cd2:	8f ef       	ldi	r24, 0xFF	; 255
     cd4:	90 e0       	ldi	r25, 0x00	; 0
     cd6:	f4 01       	movw	r30, r8
     cd8:	91 83       	std	Z+1, r25	; 0x01
     cda:	80 83       	st	Z, r24
     cdc:	f3 01       	movw	r30, r6
     cde:	11 82       	std	Z+1, r1	; 0x01
     ce0:	10 82       	st	Z, r1
     ce2:	10 c0       	rjmp	.+32     	; 0xd04 <readIr+0x184>
     ce4:	f6 01       	movw	r30, r12
     ce6:	11 82       	std	Z+1, r1	; 0x01
     ce8:	10 82       	st	Z, r1
     cea:	84 e6       	ldi	r24, 0x64	; 100
     cec:	90 e0       	ldi	r25, 0x00	; 0
     cee:	f5 01       	movw	r30, r10
     cf0:	91 83       	std	Z+1, r25	; 0x01
     cf2:	80 83       	st	Z, r24
     cf4:	f4 01       	movw	r30, r8
     cf6:	11 82       	std	Z+1, r1	; 0x01
     cf8:	10 82       	st	Z, r1
     cfa:	8f ef       	ldi	r24, 0xFF	; 255
     cfc:	90 e0       	ldi	r25, 0x00	; 0
     cfe:	f3 01       	movw	r30, r6
     d00:	91 83       	std	Z+1, r25	; 0x01
     d02:	80 83       	st	Z, r24
     d04:	f2 01       	movw	r30, r4
     d06:	11 82       	std	Z+1, r1	; 0x01
     d08:	10 82       	st	Z, r1
     d0a:	53 c0       	rjmp	.+166    	; 0xdb2 <readIr+0x232>
     d0c:	f6 01       	movw	r30, r12
     d0e:	11 82       	std	Z+1, r1	; 0x01
     d10:	10 82       	st	Z, r1
     d12:	84 e6       	ldi	r24, 0x64	; 100
     d14:	90 e0       	ldi	r25, 0x00	; 0
     d16:	f5 01       	movw	r30, r10
     d18:	91 83       	std	Z+1, r25	; 0x01
     d1a:	80 83       	st	Z, r24
     d1c:	f4 01       	movw	r30, r8
     d1e:	11 82       	std	Z+1, r1	; 0x01
     d20:	10 82       	st	Z, r1
     d22:	f3 01       	movw	r30, r6
     d24:	11 82       	std	Z+1, r1	; 0x01
     d26:	10 82       	st	Z, r1
     d28:	8f ef       	ldi	r24, 0xFF	; 255
     d2a:	90 e0       	ldi	r25, 0x00	; 0
     d2c:	14 c0       	rjmp	.+40     	; 0xd56 <readIr+0x1d6>
     d2e:	f6 01       	movw	r30, r12
     d30:	11 82       	std	Z+1, r1	; 0x01
     d32:	10 82       	st	Z, r1
     d34:	84 e6       	ldi	r24, 0x64	; 100
     d36:	90 e0       	ldi	r25, 0x00	; 0
     d38:	f5 01       	movw	r30, r10
     d3a:	91 83       	std	Z+1, r25	; 0x01
     d3c:	80 83       	st	Z, r24
     d3e:	8f ef       	ldi	r24, 0xFF	; 255
     d40:	90 e0       	ldi	r25, 0x00	; 0
     d42:	f4 01       	movw	r30, r8
     d44:	91 83       	std	Z+1, r25	; 0x01
     d46:	80 83       	st	Z, r24
     d48:	8f ee       	ldi	r24, 0xEF	; 239
     d4a:	90 e0       	ldi	r25, 0x00	; 0
     d4c:	f3 01       	movw	r30, r6
     d4e:	91 83       	std	Z+1, r25	; 0x01
     d50:	80 83       	st	Z, r24
     d52:	8f eb       	ldi	r24, 0xBF	; 191
     d54:	90 e0       	ldi	r25, 0x00	; 0
     d56:	f2 01       	movw	r30, r4
     d58:	2a c0       	rjmp	.+84     	; 0xdae <readIr+0x22e>
     d5a:	f4 01       	movw	r30, r8
     d5c:	03 c0       	rjmp	.+6      	; 0xd64 <readIr+0x1e4>
     d5e:	f3 01       	movw	r30, r6
     d60:	01 c0       	rjmp	.+2      	; 0xd64 <readIr+0x1e4>
     d62:	f2 01       	movw	r30, r4
     d64:	80 81       	ld	r24, Z
     d66:	91 81       	ldd	r25, Z+1	; 0x01
     d68:	08 96       	adiw	r24, 0x08	; 8
     d6a:	91 83       	std	Z+1, r25	; 0x01
     d6c:	80 83       	st	Z, r24
     d6e:	8f 3f       	cpi	r24, 0xFF	; 255
     d70:	91 05       	cpc	r25, r1
     d72:	f9 f0       	breq	.+62     	; 0xdb2 <readIr+0x232>
     d74:	f4 f0       	brlt	.+60     	; 0xdb2 <readIr+0x232>
     d76:	8f ef       	ldi	r24, 0xFF	; 255
     d78:	90 e0       	ldi	r25, 0x00	; 0
     d7a:	19 c0       	rjmp	.+50     	; 0xdae <readIr+0x22e>
     d7c:	81 e0       	ldi	r24, 0x01	; 1
     d7e:	90 e0       	ldi	r25, 0x00	; 0
     d80:	15 c0       	rjmp	.+42     	; 0xdac <readIr+0x22c>
     d82:	f4 01       	movw	r30, r8
     d84:	03 c0       	rjmp	.+6      	; 0xd8c <readIr+0x20c>
     d86:	f3 01       	movw	r30, r6
     d88:	01 c0       	rjmp	.+2      	; 0xd8c <readIr+0x20c>
     d8a:	f2 01       	movw	r30, r4
     d8c:	80 81       	ld	r24, Z
     d8e:	91 81       	ldd	r25, Z+1	; 0x01
     d90:	08 97       	sbiw	r24, 0x08	; 8
     d92:	91 83       	std	Z+1, r25	; 0x01
     d94:	80 83       	st	Z, r24
     d96:	97 ff       	sbrs	r25, 7
     d98:	0c c0       	rjmp	.+24     	; 0xdb2 <readIr+0x232>
     d9a:	b5 cf       	rjmp	.-150    	; 0xd06 <readIr+0x186>
     d9c:	82 e0       	ldi	r24, 0x02	; 2
     d9e:	90 e0       	ldi	r25, 0x00	; 0
     da0:	05 c0       	rjmp	.+10     	; 0xdac <readIr+0x22c>
     da2:	83 e0       	ldi	r24, 0x03	; 3
     da4:	90 e0       	ldi	r25, 0x00	; 0
     da6:	02 c0       	rjmp	.+4      	; 0xdac <readIr+0x22c>
     da8:	84 e0       	ldi	r24, 0x04	; 4
     daa:	90 e0       	ldi	r25, 0x00	; 0
     dac:	f6 01       	movw	r30, r12
     dae:	91 83       	std	Z+1, r25	; 0x01
     db0:	80 83       	st	Z, r24
     db2:	80 e1       	ldi	r24, 0x10	; 16
     db4:	b4 01       	movw	r22, r8
     db6:	42 e0       	ldi	r20, 0x02	; 2
     db8:	e5 dc       	rcall	.-1590   	; 0x784 <i2c_rtc_sram_write>
     dba:	82 e1       	ldi	r24, 0x12	; 18
     dbc:	b3 01       	movw	r22, r6
     dbe:	42 e0       	ldi	r20, 0x02	; 2
     dc0:	e1 dc       	rcall	.-1598   	; 0x784 <i2c_rtc_sram_write>
     dc2:	84 e1       	ldi	r24, 0x14	; 20
     dc4:	b2 01       	movw	r22, r4
     dc6:	42 e0       	ldi	r20, 0x02	; 2
     dc8:	dd dc       	rcall	.-1606   	; 0x784 <i2c_rtc_sram_write>
     dca:	02 c0       	rjmp	.+4      	; 0xdd0 <readIr+0x250>
     dcc:	80 e0       	ldi	r24, 0x00	; 0
     dce:	01 c0       	rjmp	.+2      	; 0xdd2 <readIr+0x252>
     dd0:	81 e0       	ldi	r24, 0x01	; 1
     dd2:	0f 90       	pop	r0
     dd4:	0f 90       	pop	r0
     dd6:	cf 91       	pop	r28
     dd8:	df 91       	pop	r29
     dda:	1f 91       	pop	r17
     ddc:	0f 91       	pop	r16
     dde:	ff 90       	pop	r15
     de0:	ef 90       	pop	r14
     de2:	df 90       	pop	r13
     de4:	cf 90       	pop	r12
     de6:	bf 90       	pop	r11
     de8:	af 90       	pop	r10
     dea:	9f 90       	pop	r9
     dec:	8f 90       	pop	r8
     dee:	7f 90       	pop	r7
     df0:	6f 90       	pop	r6
     df2:	5f 90       	pop	r5
     df4:	4f 90       	pop	r4
     df6:	3f 90       	pop	r3
     df8:	2f 90       	pop	r2
     dfa:	08 95       	ret

00000dfc <read_distance>:
     dfc:	bf 92       	push	r11
     dfe:	cf 92       	push	r12
     e00:	df 92       	push	r13
     e02:	ef 92       	push	r14
     e04:	ff 92       	push	r15
     e06:	0f 93       	push	r16
     e08:	1f 93       	push	r17
     e0a:	df 93       	push	r29
     e0c:	cf 93       	push	r28
     e0e:	0f 92       	push	r0
     e10:	cd b7       	in	r28, 0x3d	; 61
     e12:	de b7       	in	r29, 0x3e	; 62
     e14:	b8 2e       	mov	r11, r24
     e16:	7b 01       	movw	r14, r22
     e18:	8a 01       	movw	r16, r20
     e1a:	64 e6       	ldi	r22, 0x64	; 100
     e1c:	70 e0       	ldi	r23, 0x00	; 0
     e1e:	61 d9       	rcall	.-3390   	; 0xe2 <i2c_master_start_wait>
     e20:	88 23       	and	r24, r24
     e22:	59 f4       	brne	.+22     	; 0xe3a <read_distance+0x3e>
     e24:	e3 ed       	ldi	r30, 0xD3	; 211
     e26:	f0 e0       	ldi	r31, 0x00	; 0
     e28:	04 c0       	rjmp	.+8      	; 0xe32 <read_distance+0x36>
     e2a:	5d 9b       	sbis	0x0b, 5	; 11
     e2c:	fe cf       	rjmp	.-4      	; 0xe2a <read_distance+0x2e>
     e2e:	8c b9       	out	0x0c, r24	; 12
     e30:	31 96       	adiw	r30, 0x01	; 1
     e32:	80 81       	ld	r24, Z
     e34:	88 23       	and	r24, r24
     e36:	c9 f7       	brne	.-14     	; 0xe2a <read_distance+0x2e>
     e38:	3a c0       	rjmp	.+116    	; 0xeae <read_distance+0xb2>
     e3a:	80 e0       	ldi	r24, 0x00	; 0
     e3c:	6e 01       	movw	r12, r28
     e3e:	08 94       	sec
     e40:	c1 1c       	adc	r12, r1
     e42:	d1 1c       	adc	r13, r1
     e44:	b6 01       	movw	r22, r12
     e46:	84 d9       	rcall	.-3320   	; 0x150 <i2c_master_write>
     e48:	88 23       	and	r24, r24
     e4a:	99 f5       	brne	.+102    	; 0xeb2 <read_distance+0xb6>
     e4c:	8b 2d       	mov	r24, r11
     e4e:	8f 5f       	subi	r24, 0xFF	; 255
     e50:	b6 01       	movw	r22, r12
     e52:	76 d9       	rcall	.-3348   	; 0x140 <i2c_master_rep_start>
     e54:	88 23       	and	r24, r24
     e56:	69 f5       	brne	.+90     	; 0xeb2 <read_distance+0xb6>
     e58:	8b d9       	rcall	.-3306   	; 0x170 <i2c_master_read_ack>
     e5a:	f7 01       	movw	r30, r14
     e5c:	80 83       	st	Z, r24
     e5e:	11 82       	std	Z+1, r1	; 0x01
     e60:	f8 01       	movw	r30, r16
     e62:	80 81       	ld	r24, Z
     e64:	91 81       	ldd	r25, Z+1	; 0x01
     e66:	89 2b       	or	r24, r25
     e68:	29 f4       	brne	.+10     	; 0xe74 <read_distance+0x78>
     e6a:	89 d9       	rcall	.-3310   	; 0x17e <i2c_master_read_nak>
     e6c:	f8 01       	movw	r30, r16
     e6e:	80 83       	st	Z, r24
     e70:	11 82       	std	Z+1, r1	; 0x01
     e72:	01 c0       	rjmp	.+2      	; 0xe76 <read_distance+0x7a>
     e74:	84 d9       	rcall	.-3320   	; 0x17e <i2c_master_read_nak>
     e76:	66 d9       	rcall	.-3380   	; 0x144 <i2c_master_stop>
     e78:	80 e0       	ldi	r24, 0x00	; 0
     e7a:	90 e9       	ldi	r25, 0x90	; 144
     e7c:	01 97       	sbiw	r24, 0x01	; 1
     e7e:	f1 f7       	brne	.-4      	; 0xe7c <read_distance+0x80>
     e80:	f7 01       	movw	r30, r14
     e82:	80 81       	ld	r24, Z
     e84:	91 81       	ldd	r25, Z+1	; 0x01
     e86:	18 16       	cp	r1, r24
     e88:	19 06       	cpc	r1, r25
     e8a:	9c f4       	brge	.+38     	; 0xeb2 <read_distance+0xb6>
     e8c:	8b 2d       	mov	r24, r11
     e8e:	64 e6       	ldi	r22, 0x64	; 100
     e90:	70 e0       	ldi	r23, 0x00	; 0
     e92:	27 d9       	rcall	.-3506   	; 0xe2 <i2c_master_start_wait>
     e94:	88 23       	and	r24, r24
     e96:	59 f0       	breq	.+22     	; 0xeae <read_distance+0xb2>
     e98:	83 e0       	ldi	r24, 0x03	; 3
     e9a:	8e 01       	movw	r16, r28
     e9c:	0f 5f       	subi	r16, 0xFF	; 255
     e9e:	1f 4f       	sbci	r17, 0xFF	; 255
     ea0:	b8 01       	movw	r22, r16
     ea2:	56 d9       	rcall	.-3412   	; 0x150 <i2c_master_write>
     ea4:	8a ea       	ldi	r24, 0xAA	; 170
     ea6:	b8 01       	movw	r22, r16
     ea8:	53 d9       	rcall	.-3418   	; 0x150 <i2c_master_write>
     eaa:	4c d9       	rcall	.-3432   	; 0x144 <i2c_master_stop>
     eac:	02 c0       	rjmp	.+4      	; 0xeb2 <read_distance+0xb6>
     eae:	80 e0       	ldi	r24, 0x00	; 0
     eb0:	01 c0       	rjmp	.+2      	; 0xeb4 <read_distance+0xb8>
     eb2:	81 e0       	ldi	r24, 0x01	; 1
     eb4:	0f 90       	pop	r0
     eb6:	cf 91       	pop	r28
     eb8:	df 91       	pop	r29
     eba:	1f 91       	pop	r17
     ebc:	0f 91       	pop	r16
     ebe:	ff 90       	pop	r15
     ec0:	ef 90       	pop	r14
     ec2:	df 90       	pop	r13
     ec4:	cf 90       	pop	r12
     ec6:	bf 90       	pop	r11
     ec8:	08 95       	ret

00000eca <main>:
     eca:	2f 92       	push	r2
     ecc:	3f 92       	push	r3
     ece:	4f 92       	push	r4
     ed0:	5f 92       	push	r5
     ed2:	6f 92       	push	r6
     ed4:	7f 92       	push	r7
     ed6:	8f 92       	push	r8
     ed8:	9f 92       	push	r9
     eda:	af 92       	push	r10
     edc:	bf 92       	push	r11
     ede:	cf 92       	push	r12
     ee0:	df 92       	push	r13
     ee2:	ef 92       	push	r14
     ee4:	ff 92       	push	r15
     ee6:	0f 93       	push	r16
     ee8:	1f 93       	push	r17
     eea:	df 93       	push	r29
     eec:	cf 93       	push	r28
     eee:	cd b7       	in	r28, 0x3d	; 61
     ef0:	de b7       	in	r29, 0x3e	; 62
     ef2:	68 97       	sbiw	r28, 0x18	; 24
     ef4:	0f b6       	in	r0, 0x3f	; 63
     ef6:	f8 94       	cli
     ef8:	de bf       	out	0x3e, r29	; 62
     efa:	0f be       	out	0x3f, r0	; 63
     efc:	cd bf       	out	0x3d, r28	; 61
     efe:	8a b1       	in	r24, 0x0a	; 10
     f00:	88 69       	ori	r24, 0x98	; 152
     f02:	8a b9       	out	0x0a, r24	; 10
     f04:	80 b5       	in	r24, 0x20	; 32
     f06:	86 68       	ori	r24, 0x86	; 134
     f08:	80 bd       	out	0x20, r24	; 32
     f0a:	10 bc       	out	0x20, r1	; 32
     f0c:	87 e0       	ldi	r24, 0x07	; 7
     f0e:	89 b9       	out	0x09, r24	; 9
     f10:	a8 95       	wdr
     f12:	2f e0       	ldi	r18, 0x0F	; 15
     f14:	88 e1       	ldi	r24, 0x18	; 24
     f16:	90 e0       	ldi	r25, 0x00	; 0
     f18:	0f b6       	in	r0, 0x3f	; 63
     f1a:	f8 94       	cli
     f1c:	a8 95       	wdr
     f1e:	81 bd       	out	0x21, r24	; 33
     f20:	0f be       	out	0x3f, r0	; 63
     f22:	21 bd       	out	0x21, r18	; 33
     f24:	a8 95       	wdr
     f26:	ec ee       	ldi	r30, 0xEC	; 236
     f28:	f0 e0       	ldi	r31, 0x00	; 0
     f2a:	04 c0       	rjmp	.+8      	; 0xf34 <main+0x6a>
     f2c:	5d 9b       	sbis	0x0b, 5	; 11
     f2e:	fe cf       	rjmp	.-4      	; 0xf2c <main+0x62>
     f30:	8c b9       	out	0x0c, r24	; 12
     f32:	31 96       	adiw	r30, 0x01	; 1
     f34:	80 81       	ld	r24, Z
     f36:	88 23       	and	r24, r24
     f38:	c9 f7       	brne	.-14     	; 0xf2c <main+0x62>
     f3a:	84 b7       	in	r24, 0x34	; 52
     f3c:	90 e0       	ldi	r25, 0x00	; 0
     f3e:	8f 71       	andi	r24, 0x1F	; 31
     f40:	90 70       	andi	r25, 0x00	; 0
     f42:	84 30       	cpi	r24, 0x04	; 4
     f44:	91 05       	cpc	r25, r1
     f46:	b9 f0       	breq	.+46     	; 0xf76 <main+0xac>
     f48:	85 30       	cpi	r24, 0x05	; 5
     f4a:	91 05       	cpc	r25, r1
     f4c:	34 f4       	brge	.+12     	; 0xf5a <main+0x90>
     f4e:	81 30       	cpi	r24, 0x01	; 1
     f50:	91 05       	cpc	r25, r1
     f52:	b9 f0       	breq	.+46     	; 0xf82 <main+0xb8>
     f54:	02 97       	sbiw	r24, 0x02	; 2
     f56:	31 f4       	brne	.+12     	; 0xf64 <main+0x9a>
     f58:	11 c0       	rjmp	.+34     	; 0xf7c <main+0xb2>
     f5a:	88 30       	cpi	r24, 0x08	; 8
     f5c:	91 05       	cpc	r25, r1
     f5e:	41 f0       	breq	.+16     	; 0xf70 <main+0xa6>
     f60:	40 97       	sbiw	r24, 0x10	; 16
     f62:	19 f0       	breq	.+6      	; 0xf6a <main+0xa0>
     f64:	eb ef       	ldi	r30, 0xFB	; 251
     f66:	f0 e0       	ldi	r31, 0x00	; 0
     f68:	3d c0       	rjmp	.+122    	; 0xfe4 <main+0x11a>
     f6a:	e5 e0       	ldi	r30, 0x05	; 5
     f6c:	f1 e0       	ldi	r31, 0x01	; 1
     f6e:	32 c0       	rjmp	.+100    	; 0xfd4 <main+0x10a>
     f70:	e2 e1       	ldi	r30, 0x12	; 18
     f72:	f1 e0       	ldi	r31, 0x01	; 1
     f74:	27 c0       	rjmp	.+78     	; 0xfc4 <main+0xfa>
     f76:	e3 e2       	ldi	r30, 0x23	; 35
     f78:	f1 e0       	ldi	r31, 0x01	; 1
     f7a:	1c c0       	rjmp	.+56     	; 0xfb4 <main+0xea>
     f7c:	e5 e3       	ldi	r30, 0x35	; 53
     f7e:	f1 e0       	ldi	r31, 0x01	; 1
     f80:	11 c0       	rjmp	.+34     	; 0xfa4 <main+0xda>
     f82:	e6 e4       	ldi	r30, 0x46	; 70
     f84:	f1 e0       	ldi	r31, 0x01	; 1
     f86:	04 c0       	rjmp	.+8      	; 0xf90 <main+0xc6>
     f88:	5d 9b       	sbis	0x0b, 5	; 11
     f8a:	fe cf       	rjmp	.-4      	; 0xf88 <main+0xbe>
     f8c:	8c b9       	out	0x0c, r24	; 12
     f8e:	31 96       	adiw	r30, 0x01	; 1
     f90:	80 81       	ld	r24, Z
     f92:	88 23       	and	r24, r24
     f94:	c9 f7       	brne	.-14     	; 0xf88 <main+0xbe>
     f96:	e7 e5       	ldi	r30, 0x57	; 87
     f98:	f1 e0       	ldi	r31, 0x01	; 1
     f9a:	2c c0       	rjmp	.+88     	; 0xff4 <main+0x12a>
     f9c:	5d 9b       	sbis	0x0b, 5	; 11
     f9e:	fe cf       	rjmp	.-4      	; 0xf9c <main+0xd2>
     fa0:	8c b9       	out	0x0c, r24	; 12
     fa2:	31 96       	adiw	r30, 0x01	; 1
     fa4:	80 81       	ld	r24, Z
     fa6:	88 23       	and	r24, r24
     fa8:	c9 f7       	brne	.-14     	; 0xf9c <main+0xd2>
     faa:	f5 cf       	rjmp	.-22     	; 0xf96 <main+0xcc>
     fac:	5d 9b       	sbis	0x0b, 5	; 11
     fae:	fe cf       	rjmp	.-4      	; 0xfac <main+0xe2>
     fb0:	8c b9       	out	0x0c, r24	; 12
     fb2:	31 96       	adiw	r30, 0x01	; 1
     fb4:	80 81       	ld	r24, Z
     fb6:	88 23       	and	r24, r24
     fb8:	c9 f7       	brne	.-14     	; 0xfac <main+0xe2>
     fba:	ed cf       	rjmp	.-38     	; 0xf96 <main+0xcc>
     fbc:	5d 9b       	sbis	0x0b, 5	; 11
     fbe:	fe cf       	rjmp	.-4      	; 0xfbc <main+0xf2>
     fc0:	8c b9       	out	0x0c, r24	; 12
     fc2:	31 96       	adiw	r30, 0x01	; 1
     fc4:	80 81       	ld	r24, Z
     fc6:	88 23       	and	r24, r24
     fc8:	c9 f7       	brne	.-14     	; 0xfbc <main+0xf2>
     fca:	e5 cf       	rjmp	.-54     	; 0xf96 <main+0xcc>
     fcc:	5d 9b       	sbis	0x0b, 5	; 11
     fce:	fe cf       	rjmp	.-4      	; 0xfcc <main+0x102>
     fd0:	8c b9       	out	0x0c, r24	; 12
     fd2:	31 96       	adiw	r30, 0x01	; 1
     fd4:	80 81       	ld	r24, Z
     fd6:	88 23       	and	r24, r24
     fd8:	c9 f7       	brne	.-14     	; 0xfcc <main+0x102>
     fda:	dd cf       	rjmp	.-70     	; 0xf96 <main+0xcc>
     fdc:	5d 9b       	sbis	0x0b, 5	; 11
     fde:	fe cf       	rjmp	.-4      	; 0xfdc <main+0x112>
     fe0:	8c b9       	out	0x0c, r24	; 12
     fe2:	31 96       	adiw	r30, 0x01	; 1
     fe4:	80 81       	ld	r24, Z
     fe6:	88 23       	and	r24, r24
     fe8:	c9 f7       	brne	.-14     	; 0xfdc <main+0x112>
     fea:	d5 cf       	rjmp	.-86     	; 0xf96 <main+0xcc>
     fec:	5d 9b       	sbis	0x0b, 5	; 11
     fee:	fe cf       	rjmp	.-4      	; 0xfec <main+0x122>
     ff0:	8c b9       	out	0x0c, r24	; 12
     ff2:	31 96       	adiw	r30, 0x01	; 1
     ff4:	80 81       	ld	r24, Z
     ff6:	88 23       	and	r24, r24
     ff8:	c9 f7       	brne	.-14     	; 0xfec <main+0x122>
     ffa:	8e e0       	ldi	r24, 0x0E	; 14
     ffc:	87 bb       	out	0x17, r24	; 23
     ffe:	81 ea       	ldi	r24, 0xA1	; 161
    1000:	8f bd       	out	0x2f, r24	; 47
    1002:	81 e0       	ldi	r24, 0x01	; 1
    1004:	8e bd       	out	0x2e, r24	; 46
    1006:	81 e6       	ldi	r24, 0x61	; 97
    1008:	85 bd       	out	0x25, r24	; 37
    100a:	a9 98       	cbi	0x15, 1	; 21
    100c:	82 e0       	ldi	r24, 0x02	; 2
    100e:	84 bb       	out	0x14, r24	; 20
    1010:	a9 9a       	sbi	0x15, 1	; 21
    1012:	02 e6       	ldi	r16, 0x62	; 98
    1014:	11 e0       	ldi	r17, 0x01	; 1
    1016:	f8 01       	movw	r30, r16
    1018:	04 c0       	rjmp	.+8      	; 0x1022 <main+0x158>
    101a:	5d 9b       	sbis	0x0b, 5	; 11
    101c:	fe cf       	rjmp	.-4      	; 0x101a <main+0x150>
    101e:	8c b9       	out	0x0c, r24	; 12
    1020:	31 96       	adiw	r30, 0x01	; 1
    1022:	80 81       	ld	r24, Z
    1024:	88 23       	and	r24, r24
    1026:	c9 f7       	brne	.-14     	; 0x101a <main+0x150>
    1028:	04 b6       	in	r0, 0x34	; 52
    102a:	03 fe       	sbrs	r0, 3
    102c:	17 c0       	rjmp	.+46     	; 0x105c <main+0x192>
    102e:	20 e0       	ldi	r18, 0x00	; 0
    1030:	40 e0       	ldi	r20, 0x00	; 0
    1032:	50 e9       	ldi	r21, 0x90	; 144
    1034:	20 93 65 02 	sts	0x0265, r18
    1038:	10 92 66 02 	sts	0x0266, r1
    103c:	10 92 67 02 	sts	0x0267, r1
    1040:	2a bd       	out	0x2a, r18	; 42
    1042:	18 bc       	out	0x28, r1	; 40
    1044:	13 bc       	out	0x23, r1	; 35
    1046:	ca 01       	movw	r24, r20
    1048:	01 97       	sbiw	r24, 0x01	; 1
    104a:	f1 f7       	brne	.-4      	; 0x1048 <main+0x17e>
    104c:	a8 95       	wdr
    104e:	2f 5f       	subi	r18, 0xFF	; 255
    1050:	2f 3f       	cpi	r18, 0xFF	; 255
    1052:	81 f7       	brne	.-32     	; 0x1034 <main+0x16a>
    1054:	84 b7       	in	r24, 0x34	; 52
    1056:	87 7f       	andi	r24, 0xF7	; 247
    1058:	84 bf       	out	0x34, r24	; 52
    105a:	13 c0       	rjmp	.+38     	; 0x1082 <main+0x1b8>
    105c:	20 e0       	ldi	r18, 0x00	; 0
    105e:	40 e0       	ldi	r20, 0x00	; 0
    1060:	50 e9       	ldi	r21, 0x90	; 144
    1062:	10 92 65 02 	sts	0x0265, r1
    1066:	20 93 66 02 	sts	0x0266, r18
    106a:	10 92 67 02 	sts	0x0267, r1
    106e:	1a bc       	out	0x2a, r1	; 42
    1070:	28 bd       	out	0x28, r18	; 40
    1072:	13 bc       	out	0x23, r1	; 35
    1074:	ca 01       	movw	r24, r20
    1076:	01 97       	sbiw	r24, 0x01	; 1
    1078:	f1 f7       	brne	.-4      	; 0x1076 <main+0x1ac>
    107a:	a8 95       	wdr
    107c:	2f 5f       	subi	r18, 0xFF	; 255
    107e:	2f 3f       	cpi	r18, 0xFF	; 255
    1080:	81 f7       	brne	.-32     	; 0x1062 <main+0x198>
    1082:	14 be       	out	0x34, r1	; 52
    1084:	a8 95       	wdr
    1086:	e7 e6       	ldi	r30, 0x67	; 103
    1088:	f1 e0       	ldi	r31, 0x01	; 1
    108a:	04 c0       	rjmp	.+8      	; 0x1094 <main+0x1ca>
    108c:	5d 9b       	sbis	0x0b, 5	; 11
    108e:	fe cf       	rjmp	.-4      	; 0x108c <main+0x1c2>
    1090:	8c b9       	out	0x0c, r24	; 12
    1092:	31 96       	adiw	r30, 0x01	; 1
    1094:	80 81       	ld	r24, Z
    1096:	88 23       	and	r24, r24
    1098:	c9 f7       	brne	.-14     	; 0x108c <main+0x1c2>
    109a:	f8 94       	cli
    109c:	f8 d7       	rcall	.+4080   	; 0x208e <__data_load_end+0x8a2>
    109e:	10 92 65 02 	sts	0x0265, r1
    10a2:	8f ef       	ldi	r24, 0xFF	; 255
    10a4:	80 93 66 02 	sts	0x0266, r24
    10a8:	80 93 67 02 	sts	0x0267, r24
    10ac:	1a bc       	out	0x2a, r1	; 42
    10ae:	88 bd       	out	0x28, r24	; 40
    10b0:	83 bd       	out	0x23, r24	; 35
    10b2:	78 94       	sei
    10b4:	e2 e6       	ldi	r30, 0x62	; 98
    10b6:	f1 e0       	ldi	r31, 0x01	; 1
    10b8:	04 c0       	rjmp	.+8      	; 0x10c2 <main+0x1f8>
    10ba:	5d 9b       	sbis	0x0b, 5	; 11
    10bc:	fe cf       	rjmp	.-4      	; 0x10ba <main+0x1f0>
    10be:	8c b9       	out	0x0c, r24	; 12
    10c0:	31 96       	adiw	r30, 0x01	; 1
    10c2:	80 81       	ld	r24, Z
    10c4:	88 23       	and	r24, r24
    10c6:	c9 f7       	brne	.-14     	; 0x10ba <main+0x1f0>
    10c8:	a8 95       	wdr
    10ca:	ce 01       	movw	r24, r28
    10cc:	01 96       	adiw	r24, 0x01	; 1
    10ce:	be 01       	movw	r22, r28
    10d0:	6e 5f       	subi	r22, 0xFE	; 254
    10d2:	7f 4f       	sbci	r23, 0xFF	; 255
    10d4:	96 db       	rcall	.-2260   	; 0x802 <i2c_rtc_init>
    10d6:	88 23       	and	r24, r24
    10d8:	19 f0       	breq	.+6      	; 0x10e0 <main+0x216>
    10da:	e3 e7       	ldi	r30, 0x73	; 115
    10dc:	f1 e0       	ldi	r31, 0x01	; 1
    10de:	1c c0       	rjmp	.+56     	; 0x1118 <main+0x24e>
    10e0:	4f ef       	ldi	r20, 0xFF	; 255
    10e2:	20 e7       	ldi	r18, 0x70	; 112
    10e4:	31 e0       	ldi	r19, 0x01	; 1
    10e6:	1a bc       	out	0x2a, r1	; 42
    10e8:	18 bc       	out	0x28, r1	; 40
    10ea:	43 bd       	out	0x23, r20	; 35
    10ec:	88 ee       	ldi	r24, 0xE8	; 232
    10ee:	93 e0       	ldi	r25, 0x03	; 3
    10f0:	f9 01       	movw	r30, r18
    10f2:	31 97       	sbiw	r30, 0x01	; 1
    10f4:	f1 f7       	brne	.-4      	; 0x10f2 <main+0x228>
    10f6:	01 97       	sbiw	r24, 0x01	; 1
    10f8:	d9 f7       	brne	.-10     	; 0x10f0 <main+0x226>
    10fa:	1a bc       	out	0x2a, r1	; 42
    10fc:	18 bc       	out	0x28, r1	; 40
    10fe:	13 bc       	out	0x23, r1	; 35
    1100:	88 ee       	ldi	r24, 0xE8	; 232
    1102:	93 e0       	ldi	r25, 0x03	; 3
    1104:	f9 01       	movw	r30, r18
    1106:	31 97       	sbiw	r30, 0x01	; 1
    1108:	f1 f7       	brne	.-4      	; 0x1106 <main+0x23c>
    110a:	01 97       	sbiw	r24, 0x01	; 1
    110c:	d9 f7       	brne	.-10     	; 0x1104 <main+0x23a>
    110e:	eb cf       	rjmp	.-42     	; 0x10e6 <main+0x21c>
    1110:	5d 9b       	sbis	0x0b, 5	; 11
    1112:	fe cf       	rjmp	.-4      	; 0x1110 <main+0x246>
    1114:	8c b9       	out	0x0c, r24	; 12
    1116:	31 96       	adiw	r30, 0x01	; 1
    1118:	80 81       	ld	r24, Z
    111a:	88 23       	and	r24, r24
    111c:	c9 f7       	brne	.-14     	; 0x1110 <main+0x246>
    111e:	20 e0       	ldi	r18, 0x00	; 0
    1120:	40 e0       	ldi	r20, 0x00	; 0
    1122:	50 e9       	ldi	r21, 0x90	; 144
    1124:	2a bd       	out	0x2a, r18	; 42
    1126:	28 bd       	out	0x28, r18	; 40
    1128:	23 bd       	out	0x23, r18	; 35
    112a:	ca 01       	movw	r24, r20
    112c:	01 97       	sbiw	r24, 0x01	; 1
    112e:	f1 f7       	brne	.-4      	; 0x112c <main+0x262>
    1130:	a8 95       	wdr
    1132:	26 5f       	subi	r18, 0xF6	; 246
    1134:	24 30       	cpi	r18, 0x04	; 4
    1136:	b1 f7       	brne	.-20     	; 0x1124 <main+0x25a>
    1138:	10 92 65 02 	sts	0x0265, r1
    113c:	10 92 66 02 	sts	0x0266, r1
    1140:	10 92 67 02 	sts	0x0267, r1
    1144:	1a bc       	out	0x2a, r1	; 42
    1146:	18 bc       	out	0x28, r1	; 40
    1148:	13 bc       	out	0x23, r1	; 35
    114a:	05 c0       	rjmp	.+10     	; 0x1156 <main+0x28c>
    114c:	5d 9b       	sbis	0x0b, 5	; 11
    114e:	fe cf       	rjmp	.-4      	; 0x114c <main+0x282>
    1150:	8c b9       	out	0x0c, r24	; 12
    1152:	0f 5f       	subi	r16, 0xFF	; 255
    1154:	1f 4f       	sbci	r17, 0xFF	; 255
    1156:	f8 01       	movw	r30, r16
    1158:	80 81       	ld	r24, Z
    115a:	88 23       	and	r24, r24
    115c:	b9 f7       	brne	.-18     	; 0x114c <main+0x282>
    115e:	1c 82       	std	Y+4, r1	; 0x04
    1160:	1b 82       	std	Y+3, r1	; 0x03
    1162:	1e 82       	std	Y+6, r1	; 0x06
    1164:	1d 82       	std	Y+5, r1	; 0x05
    1166:	84 e6       	ldi	r24, 0x64	; 100
    1168:	90 e0       	ldi	r25, 0x00	; 0
    116a:	98 87       	std	Y+8, r25	; 0x08
    116c:	8f 83       	std	Y+7, r24	; 0x07
    116e:	1a 86       	std	Y+10, r1	; 0x0a
    1170:	19 86       	std	Y+9, r1	; 0x09
    1172:	1c 86       	std	Y+12, r1	; 0x0c
    1174:	1b 86       	std	Y+11, r1	; 0x0b
    1176:	8f ef       	ldi	r24, 0xFF	; 255
    1178:	90 e0       	ldi	r25, 0x00	; 0
    117a:	9e 87       	std	Y+14, r25	; 0x0e
    117c:	8d 87       	std	Y+13, r24	; 0x0d
    117e:	8f ee       	ldi	r24, 0xEF	; 239
    1180:	90 e0       	ldi	r25, 0x00	; 0
    1182:	98 8b       	std	Y+16, r25	; 0x10
    1184:	8f 87       	std	Y+15, r24	; 0x0f
    1186:	8f eb       	ldi	r24, 0xBF	; 191
    1188:	90 e0       	ldi	r25, 0x00	; 0
    118a:	9a 8b       	std	Y+18, r25	; 0x12
    118c:	89 8b       	std	Y+17, r24	; 0x11
    118e:	bd e0       	ldi	r27, 0x0D	; 13
    1190:	ab 2e       	mov	r10, r27
    1192:	b1 2c       	mov	r11, r1
    1194:	ac 0e       	add	r10, r28
    1196:	bd 1e       	adc	r11, r29
    1198:	80 e1       	ldi	r24, 0x10	; 16
    119a:	b5 01       	movw	r22, r10
    119c:	42 e0       	ldi	r20, 0x02	; 2
    119e:	d0 d8       	rcall	.-3680   	; 0x340 <i2c_rtc_sram_read>
    11a0:	af e0       	ldi	r26, 0x0F	; 15
    11a2:	ca 2e       	mov	r12, r26
    11a4:	d1 2c       	mov	r13, r1
    11a6:	cc 0e       	add	r12, r28
    11a8:	dd 1e       	adc	r13, r29
    11aa:	82 e1       	ldi	r24, 0x12	; 18
    11ac:	b6 01       	movw	r22, r12
    11ae:	42 e0       	ldi	r20, 0x02	; 2
    11b0:	c7 d8       	rcall	.-3698   	; 0x340 <i2c_rtc_sram_read>
    11b2:	f1 e1       	ldi	r31, 0x11	; 17
    11b4:	ef 2e       	mov	r14, r31
    11b6:	f1 2c       	mov	r15, r1
    11b8:	ec 0e       	add	r14, r28
    11ba:	fd 1e       	adc	r15, r29
    11bc:	84 e1       	ldi	r24, 0x14	; 20
    11be:	b7 01       	movw	r22, r14
    11c0:	42 e0       	ldi	r20, 0x02	; 2
    11c2:	be d8       	rcall	.-3716   	; 0x340 <i2c_rtc_sram_read>
    11c4:	8e 01       	movw	r16, r28
    11c6:	0d 5f       	subi	r16, 0xFD	; 253
    11c8:	1f 4f       	sbci	r17, 0xFF	; 255
    11ca:	86 e1       	ldi	r24, 0x16	; 22
    11cc:	b8 01       	movw	r22, r16
    11ce:	42 e0       	ldi	r20, 0x02	; 2
    11d0:	b7 d8       	rcall	.-3730   	; 0x340 <i2c_rtc_sram_read>
    11d2:	66 24       	eor	r6, r6
    11d4:	77 24       	eor	r7, r7
    11d6:	41 2c       	mov	r4, r1
    11d8:	e0 e9       	ldi	r30, 0x90	; 144
    11da:	5e 2e       	mov	r5, r30
    11dc:	48 01       	movw	r8, r16
    11de:	ab 8a       	std	Y+19, r10	; 0x13
    11e0:	bc 8a       	std	Y+20, r11	; 0x14
    11e2:	cd 8a       	std	Y+21, r12	; 0x15
    11e4:	de 8a       	std	Y+22, r13	; 0x16
    11e6:	ef 8a       	std	Y+23, r14	; 0x17
    11e8:	f8 8e       	std	Y+24, r15	; 0x18
    11ea:	bb 24       	eor	r11, r11
    11ec:	ba 94       	dec	r11
    11ee:	72 e2       	ldi	r23, 0x22	; 34
    11f0:	27 2e       	mov	r2, r23
    11f2:	60 ea       	ldi	r22, 0xA0	; 160
    11f4:	36 2e       	mov	r3, r22
    11f6:	e1 e8       	ldi	r30, 0x81	; 129
    11f8:	f1 e0       	ldi	r31, 0x01	; 1
    11fa:	04 c0       	rjmp	.+8      	; 0x1204 <main+0x33a>
    11fc:	5d 9b       	sbis	0x0b, 5	; 11
    11fe:	fe cf       	rjmp	.-4      	; 0x11fc <main+0x332>
    1200:	8c b9       	out	0x0c, r24	; 12
    1202:	31 96       	adiw	r30, 0x01	; 1
    1204:	80 81       	ld	r24, Z
    1206:	88 23       	and	r24, r24
    1208:	c9 f7       	brne	.-14     	; 0x11fc <main+0x332>
    120a:	63 94       	inc	r6
    120c:	a8 95       	wdr
    120e:	c2 01       	movw	r24, r4
    1210:	01 97       	sbiw	r24, 0x01	; 1
    1212:	f1 f7       	brne	.-4      	; 0x1210 <main+0x346>
    1214:	e0 e9       	ldi	r30, 0x90	; 144
    1216:	f1 e0       	ldi	r31, 0x01	; 1
    1218:	04 c0       	rjmp	.+8      	; 0x1222 <main+0x358>
    121a:	5d 9b       	sbis	0x0b, 5	; 11
    121c:	fe cf       	rjmp	.-4      	; 0x121a <main+0x350>
    121e:	8c b9       	out	0x0c, r24	; 12
    1220:	31 96       	adiw	r30, 0x01	; 1
    1222:	80 81       	ld	r24, Z
    1224:	88 23       	and	r24, r24
    1226:	c9 f7       	brne	.-14     	; 0x121a <main+0x350>
    1228:	1c 86       	std	Y+12, r1	; 0x0c
    122a:	1b 86       	std	Y+11, r1	; 0x0b
    122c:	8c e2       	ldi	r24, 0x2C	; 44
    122e:	90 e0       	ldi	r25, 0x00	; 0
    1230:	be 01       	movw	r22, r28
    1232:	67 5f       	subi	r22, 0xF7	; 247
    1234:	7f 4f       	sbci	r23, 0xFF	; 255
    1236:	ae 01       	movw	r20, r28
    1238:	45 5f       	subi	r20, 0xF5	; 245
    123a:	5f 4f       	sbci	r21, 0xFF	; 255
    123c:	df dd       	rcall	.-1090   	; 0xdfc <read_distance>
    123e:	88 23       	and	r24, r24
    1240:	19 f4       	brne	.+6      	; 0x1248 <main+0x37e>
    1242:	ef e9       	ldi	r30, 0x9F	; 159
    1244:	f1 e0       	ldi	r31, 0x01	; 1
    1246:	19 c0       	rjmp	.+50     	; 0x127a <main+0x3b0>
    1248:	89 85       	ldd	r24, Y+9	; 0x09
    124a:	9a 85       	ldd	r25, Y+10	; 0x0a
    124c:	81 30       	cpi	r24, 0x01	; 1
    124e:	91 05       	cpc	r25, r1
    1250:	19 f0       	breq	.+6      	; 0x1258 <main+0x38e>
    1252:	02 97       	sbiw	r24, 0x02	; 2
    1254:	39 f4       	brne	.+14     	; 0x1264 <main+0x39a>
    1256:	08 c0       	rjmp	.+16     	; 0x1268 <main+0x39e>
    1258:	1c 82       	std	Y+4, r1	; 0x04
    125a:	1b 82       	std	Y+3, r1	; 0x03
    125c:	86 e1       	ldi	r24, 0x16	; 22
    125e:	b4 01       	movw	r22, r8
    1260:	42 e0       	ldi	r20, 0x02	; 2
    1262:	90 da       	rcall	.-2784   	; 0x784 <i2c_rtc_sram_write>
    1264:	aa 24       	eor	r10, r10
    1266:	0e c0       	rjmp	.+28     	; 0x1284 <main+0x3ba>
    1268:	21 e0       	ldi	r18, 0x01	; 1
    126a:	30 e0       	ldi	r19, 0x00	; 0
    126c:	3c 83       	std	Y+4, r19	; 0x04
    126e:	2b 83       	std	Y+3, r18	; 0x03
    1270:	f5 cf       	rjmp	.-22     	; 0x125c <main+0x392>
    1272:	5d 9b       	sbis	0x0b, 5	; 11
    1274:	fe cf       	rjmp	.-4      	; 0x1272 <main+0x3a8>
    1276:	8c b9       	out	0x0c, r24	; 12
    1278:	31 96       	adiw	r30, 0x01	; 1
    127a:	80 81       	ld	r24, Z
    127c:	88 23       	and	r24, r24
    127e:	c9 f7       	brne	.-14     	; 0x1272 <main+0x3a8>
    1280:	aa 24       	eor	r10, r10
    1282:	a3 94       	inc	r10
    1284:	56 ea       	ldi	r21, 0xA6	; 166
    1286:	c5 2e       	mov	r12, r21
    1288:	51 e0       	ldi	r21, 0x01	; 1
    128a:	d5 2e       	mov	r13, r21
    128c:	f6 01       	movw	r30, r12
    128e:	04 c0       	rjmp	.+8      	; 0x1298 <main+0x3ce>
    1290:	5d 9b       	sbis	0x0b, 5	; 11
    1292:	fe cf       	rjmp	.-4      	; 0x1290 <main+0x3c6>
    1294:	8c b9       	out	0x0c, r24	; 12
    1296:	31 96       	adiw	r30, 0x01	; 1
    1298:	80 81       	ld	r24, Z
    129a:	88 23       	and	r24, r24
    129c:	c9 f7       	brne	.-14     	; 0x1290 <main+0x3c6>
    129e:	a8 95       	wdr
    12a0:	c2 01       	movw	r24, r4
    12a2:	01 97       	sbiw	r24, 0x01	; 1
    12a4:	f1 f7       	brne	.-4      	; 0x12a2 <main+0x3d8>
    12a6:	e8 ea       	ldi	r30, 0xA8	; 168
    12a8:	f1 e0       	ldi	r31, 0x01	; 1
    12aa:	04 c0       	rjmp	.+8      	; 0x12b4 <main+0x3ea>
    12ac:	5d 9b       	sbis	0x0b, 5	; 11
    12ae:	fe cf       	rjmp	.-4      	; 0x12ac <main+0x3e2>
    12b0:	8c b9       	out	0x0c, r24	; 12
    12b2:	31 96       	adiw	r30, 0x01	; 1
    12b4:	80 81       	ld	r24, Z
    12b6:	88 23       	and	r24, r24
    12b8:	c9 f7       	brne	.-14     	; 0x12ac <main+0x3e2>
    12ba:	84 e2       	ldi	r24, 0x24	; 36
    12bc:	90 e0       	ldi	r25, 0x00	; 0
    12be:	be 01       	movw	r22, r28
    12c0:	67 5f       	subi	r22, 0xF7	; 247
    12c2:	7f 4f       	sbci	r23, 0xFF	; 255
    12c4:	ae 01       	movw	r20, r28
    12c6:	45 5f       	subi	r20, 0xF5	; 245
    12c8:	5f 4f       	sbci	r21, 0xFF	; 255
    12ca:	98 dd       	rcall	.-1232   	; 0xdfc <read_distance>
    12cc:	88 23       	and	r24, r24
    12ce:	19 f4       	brne	.+6      	; 0x12d6 <main+0x40c>
    12d0:	ef e9       	ldi	r30, 0x9F	; 159
    12d2:	f1 e0       	ldi	r31, 0x01	; 1
    12d4:	18 c0       	rjmp	.+48     	; 0x1306 <main+0x43c>
    12d6:	89 85       	ldd	r24, Y+9	; 0x09
    12d8:	9a 85       	ldd	r25, Y+10	; 0x0a
    12da:	81 30       	cpi	r24, 0x01	; 1
    12dc:	91 05       	cpc	r25, r1
    12de:	19 f0       	breq	.+6      	; 0x12e6 <main+0x41c>
    12e0:	02 97       	sbiw	r24, 0x02	; 2
    12e2:	b1 f4       	brne	.+44     	; 0x1310 <main+0x446>
    12e4:	03 c0       	rjmp	.+6      	; 0x12ec <main+0x422>
    12e6:	1c 82       	std	Y+4, r1	; 0x04
    12e8:	1b 82       	std	Y+3, r1	; 0x03
    12ea:	04 c0       	rjmp	.+8      	; 0x12f4 <main+0x42a>
    12ec:	41 e0       	ldi	r20, 0x01	; 1
    12ee:	50 e0       	ldi	r21, 0x00	; 0
    12f0:	5c 83       	std	Y+4, r21	; 0x04
    12f2:	4b 83       	std	Y+3, r20	; 0x03
    12f4:	86 e1       	ldi	r24, 0x16	; 22
    12f6:	b4 01       	movw	r22, r8
    12f8:	42 e0       	ldi	r20, 0x02	; 2
    12fa:	44 da       	rcall	.-2936   	; 0x784 <i2c_rtc_sram_write>
    12fc:	09 c0       	rjmp	.+18     	; 0x1310 <main+0x446>
    12fe:	5d 9b       	sbis	0x0b, 5	; 11
    1300:	fe cf       	rjmp	.-4      	; 0x12fe <main+0x434>
    1302:	8c b9       	out	0x0c, r24	; 12
    1304:	31 96       	adiw	r30, 0x01	; 1
    1306:	80 81       	ld	r24, Z
    1308:	88 23       	and	r24, r24
    130a:	c9 f7       	brne	.-14     	; 0x12fe <main+0x434>
    130c:	aa 24       	eor	r10, r10
    130e:	a3 94       	inc	r10
    1310:	e6 ea       	ldi	r30, 0xA6	; 166
    1312:	f1 e0       	ldi	r31, 0x01	; 1
    1314:	04 c0       	rjmp	.+8      	; 0x131e <main+0x454>
    1316:	5d 9b       	sbis	0x0b, 5	; 11
    1318:	fe cf       	rjmp	.-4      	; 0x1316 <main+0x44c>
    131a:	8c b9       	out	0x0c, r24	; 12
    131c:	31 96       	adiw	r30, 0x01	; 1
    131e:	80 81       	ld	r24, Z
    1320:	88 23       	and	r24, r24
    1322:	c9 f7       	brne	.-14     	; 0x1316 <main+0x44c>
    1324:	a8 95       	wdr
    1326:	c2 01       	movw	r24, r4
    1328:	01 97       	sbiw	r24, 0x01	; 1
    132a:	f1 f7       	brne	.-4      	; 0x1328 <main+0x45e>
    132c:	e7 eb       	ldi	r30, 0xB7	; 183
    132e:	f1 e0       	ldi	r31, 0x01	; 1
    1330:	04 c0       	rjmp	.+8      	; 0x133a <main+0x470>
    1332:	5d 9b       	sbis	0x0b, 5	; 11
    1334:	fe cf       	rjmp	.-4      	; 0x1332 <main+0x468>
    1336:	8c b9       	out	0x0c, r24	; 12
    1338:	31 96       	adiw	r30, 0x01	; 1
    133a:	80 81       	ld	r24, Z
    133c:	88 23       	and	r24, r24
    133e:	c9 f7       	brne	.-14     	; 0x1332 <main+0x468>
    1340:	ce 01       	movw	r24, r28
    1342:	07 96       	adiw	r24, 0x07	; 7
    1344:	b4 01       	movw	r22, r8
    1346:	ae 01       	movw	r20, r28
    1348:	4b 5f       	subi	r20, 0xFB	; 251
    134a:	5f 4f       	sbci	r21, 0xFF	; 255
    134c:	2b 89       	ldd	r18, Y+19	; 0x13
    134e:	3c 89       	ldd	r19, Y+20	; 0x14
    1350:	0d 89       	ldd	r16, Y+21	; 0x15
    1352:	1e 89       	ldd	r17, Y+22	; 0x16
    1354:	ef 88       	ldd	r14, Y+23	; 0x17
    1356:	f8 8c       	ldd	r15, Y+24	; 0x18
    1358:	13 dc       	rcall	.-2010   	; 0xb80 <readIr>
    135a:	88 23       	and	r24, r24
    135c:	99 f4       	brne	.+38     	; 0x1384 <main+0x4ba>
    135e:	ef e9       	ldi	r30, 0x9F	; 159
    1360:	f1 e0       	ldi	r31, 0x01	; 1
    1362:	04 c0       	rjmp	.+8      	; 0x136c <main+0x4a2>
    1364:	5d 9b       	sbis	0x0b, 5	; 11
    1366:	fe cf       	rjmp	.-4      	; 0x1364 <main+0x49a>
    1368:	8c b9       	out	0x0c, r24	; 12
    136a:	31 96       	adiw	r30, 0x01	; 1
    136c:	80 81       	ld	r24, Z
    136e:	88 23       	and	r24, r24
    1370:	c9 f7       	brne	.-14     	; 0x1364 <main+0x49a>
    1372:	aa 24       	eor	r10, r10
    1374:	a3 94       	inc	r10
    1376:	06 c0       	rjmp	.+12     	; 0x1384 <main+0x4ba>
    1378:	5d 9b       	sbis	0x0b, 5	; 11
    137a:	fe cf       	rjmp	.-4      	; 0x1378 <main+0x4ae>
    137c:	8c b9       	out	0x0c, r24	; 12
    137e:	08 94       	sec
    1380:	c1 1c       	adc	r12, r1
    1382:	d1 1c       	adc	r13, r1
    1384:	f6 01       	movw	r30, r12
    1386:	80 81       	ld	r24, Z
    1388:	88 23       	and	r24, r24
    138a:	b1 f7       	brne	.-20     	; 0x1378 <main+0x4ae>
    138c:	8b 85       	ldd	r24, Y+11	; 0x0b
    138e:	9c 85       	ldd	r25, Y+12	; 0x0c
    1390:	83 30       	cpi	r24, 0x03	; 3
    1392:	91 05       	cpc	r25, r1
    1394:	39 f1       	breq	.+78     	; 0x13e4 <main+0x51a>
    1396:	84 30       	cpi	r24, 0x04	; 4
    1398:	91 05       	cpc	r25, r1
    139a:	3c f4       	brge	.+14     	; 0x13aa <main+0x4e0>
    139c:	81 30       	cpi	r24, 0x01	; 1
    139e:	91 05       	cpc	r25, r1
    13a0:	69 f0       	breq	.+26     	; 0x13bc <main+0x4f2>
    13a2:	02 97       	sbiw	r24, 0x02	; 2
    13a4:	09 f0       	breq	.+2      	; 0x13a8 <main+0x4de>
    13a6:	42 c0       	rjmp	.+132    	; 0x142c <main+0x562>
    13a8:	13 c0       	rjmp	.+38     	; 0x13d0 <main+0x506>
    13aa:	85 30       	cpi	r24, 0x05	; 5
    13ac:	91 05       	cpc	r25, r1
    13ae:	61 f1       	breq	.+88     	; 0x1408 <main+0x53e>
    13b0:	85 30       	cpi	r24, 0x05	; 5
    13b2:	91 05       	cpc	r25, r1
    13b4:	fc f0       	brlt	.+62     	; 0x13f4 <main+0x52a>
    13b6:	06 97       	sbiw	r24, 0x06	; 6
    13b8:	c9 f5       	brne	.+114    	; 0x142c <main+0x562>
    13ba:	2f c0       	rjmp	.+94     	; 0x141a <main+0x550>
    13bc:	20 92 65 02 	sts	0x0265, r2
    13c0:	20 92 66 02 	sts	0x0266, r2
    13c4:	20 92 67 02 	sts	0x0267, r2
    13c8:	2a bc       	out	0x2a, r2	; 42
    13ca:	28 bc       	out	0x28, r2	; 40
    13cc:	23 bc       	out	0x23, r2	; 35
    13ce:	a5 c0       	rjmp	.+330    	; 0x151a <main+0x650>
    13d0:	30 92 65 02 	sts	0x0265, r3
    13d4:	30 92 66 02 	sts	0x0266, r3
    13d8:	30 92 67 02 	sts	0x0267, r3
    13dc:	3a bc       	out	0x2a, r3	; 42
    13de:	38 bc       	out	0x28, r3	; 40
    13e0:	33 bc       	out	0x23, r3	; 35
    13e2:	9b c0       	rjmp	.+310    	; 0x151a <main+0x650>
    13e4:	10 92 65 02 	sts	0x0265, r1
    13e8:	10 92 66 02 	sts	0x0266, r1
    13ec:	b0 92 67 02 	sts	0x0267, r11
    13f0:	1a bc       	out	0x2a, r1	; 42
    13f2:	11 c0       	rjmp	.+34     	; 0x1416 <main+0x54c>
    13f4:	10 92 65 02 	sts	0x0265, r1
    13f8:	b0 92 66 02 	sts	0x0266, r11
    13fc:	b0 92 67 02 	sts	0x0267, r11
    1400:	1a bc       	out	0x2a, r1	; 42
    1402:	b8 bc       	out	0x28, r11	; 40
    1404:	b3 bc       	out	0x23, r11	; 35
    1406:	89 c0       	rjmp	.+274    	; 0x151a <main+0x650>
    1408:	b0 92 65 02 	sts	0x0265, r11
    140c:	10 92 66 02 	sts	0x0266, r1
    1410:	b0 92 67 02 	sts	0x0267, r11
    1414:	ba bc       	out	0x2a, r11	; 42
    1416:	18 bc       	out	0x28, r1	; 40
    1418:	f5 cf       	rjmp	.-22     	; 0x1404 <main+0x53a>
    141a:	b0 92 65 02 	sts	0x0265, r11
    141e:	b0 92 66 02 	sts	0x0266, r11
    1422:	10 92 67 02 	sts	0x0267, r1
    1426:	ba bc       	out	0x2a, r11	; 42
    1428:	b8 bc       	out	0x28, r11	; 40
    142a:	0d c0       	rjmp	.+26     	; 0x1446 <main+0x57c>
    142c:	2b 81       	ldd	r18, Y+3	; 0x03
    142e:	3c 81       	ldd	r19, Y+4	; 0x04
    1430:	21 15       	cp	r18, r1
    1432:	31 05       	cpc	r19, r1
    1434:	51 f4       	brne	.+20     	; 0x144a <main+0x580>
    1436:	10 92 65 02 	sts	0x0265, r1
    143a:	10 92 66 02 	sts	0x0266, r1
    143e:	10 92 67 02 	sts	0x0267, r1
    1442:	1a bc       	out	0x2a, r1	; 42
    1444:	18 bc       	out	0x28, r1	; 40
    1446:	13 bc       	out	0x23, r1	; 35
    1448:	68 c0       	rjmp	.+208    	; 0x151a <main+0x650>
    144a:	21 30       	cpi	r18, 0x01	; 1
    144c:	31 05       	cpc	r19, r1
    144e:	09 f0       	breq	.+2      	; 0x1452 <main+0x588>
    1450:	64 c0       	rjmp	.+200    	; 0x151a <main+0x650>
    1452:	8d 81       	ldd	r24, Y+5	; 0x05
    1454:	9e 81       	ldd	r25, Y+6	; 0x06
    1456:	81 30       	cpi	r24, 0x01	; 1
    1458:	91 05       	cpc	r25, r1
    145a:	19 f0       	breq	.+6      	; 0x1462 <main+0x598>
    145c:	02 97       	sbiw	r24, 0x02	; 2
    145e:	41 f4       	brne	.+16     	; 0x1470 <main+0x5a6>
    1460:	0a c0       	rjmp	.+20     	; 0x1476 <main+0x5ac>
    1462:	00 e0       	ldi	r16, 0x00	; 0
    1464:	10 e0       	ldi	r17, 0x00	; 0
    1466:	86 2d       	mov	r24, r6
    1468:	6a e0       	ldi	r22, 0x0A	; 10
    146a:	8c d0       	rcall	.+280    	; 0x1584 <__udivmodqi4>
    146c:	99 23       	and	r25, r25
    146e:	49 f4       	brne	.+18     	; 0x1482 <main+0x5b8>
    1470:	01 e0       	ldi	r16, 0x01	; 1
    1472:	10 e0       	ldi	r17, 0x00	; 0
    1474:	06 c0       	rjmp	.+12     	; 0x1482 <main+0x5b8>
    1476:	06 2d       	mov	r16, r6
    1478:	10 e0       	ldi	r17, 0x00	; 0
    147a:	02 27       	eor	r16, r18
    147c:	13 27       	eor	r17, r19
    147e:	01 70       	andi	r16, 0x01	; 1
    1480:	10 70       	andi	r17, 0x00	; 0
    1482:	2f 81       	ldd	r18, Y+7	; 0x07
    1484:	38 85       	ldd	r19, Y+8	; 0x08
    1486:	8f 85       	ldd	r24, Y+15	; 0x0f
    1488:	98 89       	ldd	r25, Y+16	; 0x10
    148a:	ac 01       	movw	r20, r24
    148c:	24 9f       	mul	r18, r20
    148e:	c0 01       	movw	r24, r0
    1490:	25 9f       	mul	r18, r21
    1492:	90 0d       	add	r25, r0
    1494:	34 9f       	mul	r19, r20
    1496:	90 0d       	add	r25, r0
    1498:	11 24       	eor	r1, r1
    149a:	bc 01       	movw	r22, r24
    149c:	60 9f       	mul	r22, r16
    149e:	c0 01       	movw	r24, r0
    14a0:	61 9f       	mul	r22, r17
    14a2:	90 0d       	add	r25, r0
    14a4:	70 9f       	mul	r23, r16
    14a6:	90 0d       	add	r25, r0
    14a8:	11 24       	eor	r1, r1
    14aa:	64 e6       	ldi	r22, 0x64	; 100
    14ac:	70 e0       	ldi	r23, 0x00	; 0
    14ae:	76 d0       	rcall	.+236    	; 0x159c <__divmodhi4>
    14b0:	e6 2f       	mov	r30, r22
    14b2:	89 89       	ldd	r24, Y+17	; 0x11
    14b4:	9a 89       	ldd	r25, Y+18	; 0x12
    14b6:	ac 01       	movw	r20, r24
    14b8:	24 9f       	mul	r18, r20
    14ba:	c0 01       	movw	r24, r0
    14bc:	25 9f       	mul	r18, r21
    14be:	90 0d       	add	r25, r0
    14c0:	34 9f       	mul	r19, r20
    14c2:	90 0d       	add	r25, r0
    14c4:	11 24       	eor	r1, r1
    14c6:	bc 01       	movw	r22, r24
    14c8:	60 9f       	mul	r22, r16
    14ca:	c0 01       	movw	r24, r0
    14cc:	61 9f       	mul	r22, r17
    14ce:	90 0d       	add	r25, r0
    14d0:	70 9f       	mul	r23, r16
    14d2:	90 0d       	add	r25, r0
    14d4:	11 24       	eor	r1, r1
    14d6:	64 e6       	ldi	r22, 0x64	; 100
    14d8:	70 e0       	ldi	r23, 0x00	; 0
    14da:	60 d0       	rcall	.+192    	; 0x159c <__divmodhi4>
    14dc:	46 2f       	mov	r20, r22
    14de:	8d 85       	ldd	r24, Y+13	; 0x0d
    14e0:	9e 85       	ldd	r25, Y+14	; 0x0e
    14e2:	bc 01       	movw	r22, r24
    14e4:	26 9f       	mul	r18, r22
    14e6:	c0 01       	movw	r24, r0
    14e8:	27 9f       	mul	r18, r23
    14ea:	90 0d       	add	r25, r0
    14ec:	36 9f       	mul	r19, r22
    14ee:	90 0d       	add	r25, r0
    14f0:	11 24       	eor	r1, r1
    14f2:	9c 01       	movw	r18, r24
    14f4:	20 9f       	mul	r18, r16
    14f6:	c0 01       	movw	r24, r0
    14f8:	21 9f       	mul	r18, r17
    14fa:	90 0d       	add	r25, r0
    14fc:	30 9f       	mul	r19, r16
    14fe:	90 0d       	add	r25, r0
    1500:	11 24       	eor	r1, r1
    1502:	64 e6       	ldi	r22, 0x64	; 100
    1504:	70 e0       	ldi	r23, 0x00	; 0
    1506:	4a d0       	rcall	.+148    	; 0x159c <__divmodhi4>
    1508:	60 93 65 02 	sts	0x0265, r22
    150c:	e0 93 66 02 	sts	0x0266, r30
    1510:	40 93 67 02 	sts	0x0267, r20
    1514:	6a bd       	out	0x2a, r22	; 42
    1516:	e8 bd       	out	0x28, r30	; 40
    1518:	43 bd       	out	0x23, r20	; 35
    151a:	aa 20       	and	r10, r10
    151c:	39 f0       	breq	.+14     	; 0x152c <main+0x662>
    151e:	73 94       	inc	r7
    1520:	3a e0       	ldi	r19, 0x0A	; 10
    1522:	37 15       	cp	r19, r7
    1524:	20 f4       	brcc	.+8      	; 0x152e <main+0x664>
    1526:	ef eb       	ldi	r30, 0xBF	; 191
    1528:	f1 e0       	ldi	r31, 0x01	; 1
    152a:	08 c0       	rjmp	.+16     	; 0x153c <main+0x672>
    152c:	77 24       	eor	r7, r7
    152e:	ef ee       	ldi	r30, 0xEF	; 239
    1530:	f1 e0       	ldi	r31, 0x01	; 1
    1532:	23 c0       	rjmp	.+70     	; 0x157a <main+0x6b0>
    1534:	5d 9b       	sbis	0x0b, 5	; 11
    1536:	fe cf       	rjmp	.-4      	; 0x1534 <main+0x66a>
    1538:	8c b9       	out	0x0c, r24	; 12
    153a:	31 96       	adiw	r30, 0x01	; 1
    153c:	80 81       	ld	r24, Z
    153e:	88 23       	and	r24, r24
    1540:	c9 f7       	brne	.-14     	; 0x1534 <main+0x66a>
    1542:	42 e2       	ldi	r20, 0x22	; 34
    1544:	20 e7       	ldi	r18, 0x70	; 112
    1546:	31 e0       	ldi	r19, 0x01	; 1
    1548:	4a bd       	out	0x2a, r20	; 42
    154a:	18 bc       	out	0x28, r1	; 40
    154c:	13 bc       	out	0x23, r1	; 35
    154e:	80 ed       	ldi	r24, 0xD0	; 208
    1550:	97 e0       	ldi	r25, 0x07	; 7
    1552:	f9 01       	movw	r30, r18
    1554:	31 97       	sbiw	r30, 0x01	; 1
    1556:	f1 f7       	brne	.-4      	; 0x1554 <main+0x68a>
    1558:	01 97       	sbiw	r24, 0x01	; 1
    155a:	d9 f7       	brne	.-10     	; 0x1552 <main+0x688>
    155c:	1a bc       	out	0x2a, r1	; 42
    155e:	48 bd       	out	0x28, r20	; 40
    1560:	13 bc       	out	0x23, r1	; 35
    1562:	80 ed       	ldi	r24, 0xD0	; 208
    1564:	97 e0       	ldi	r25, 0x07	; 7
    1566:	f9 01       	movw	r30, r18
    1568:	31 97       	sbiw	r30, 0x01	; 1
    156a:	f1 f7       	brne	.-4      	; 0x1568 <main+0x69e>
    156c:	01 97       	sbiw	r24, 0x01	; 1
    156e:	d9 f7       	brne	.-10     	; 0x1566 <main+0x69c>
    1570:	eb cf       	rjmp	.-42     	; 0x1548 <main+0x67e>
    1572:	5d 9b       	sbis	0x0b, 5	; 11
    1574:	fe cf       	rjmp	.-4      	; 0x1572 <main+0x6a8>
    1576:	8c b9       	out	0x0c, r24	; 12
    1578:	31 96       	adiw	r30, 0x01	; 1
    157a:	80 81       	ld	r24, Z
    157c:	88 23       	and	r24, r24
    157e:	09 f4       	brne	.+2      	; 0x1582 <main+0x6b8>
    1580:	3a ce       	rjmp	.-908    	; 0x11f6 <main+0x32c>
    1582:	f7 cf       	rjmp	.-18     	; 0x1572 <main+0x6a8>

00001584 <__udivmodqi4>:
    1584:	99 1b       	sub	r25, r25
    1586:	79 e0       	ldi	r23, 0x09	; 9
    1588:	04 c0       	rjmp	.+8      	; 0x1592 <__udivmodqi4_ep>

0000158a <__udivmodqi4_loop>:
    158a:	99 1f       	adc	r25, r25
    158c:	96 17       	cp	r25, r22
    158e:	08 f0       	brcs	.+2      	; 0x1592 <__udivmodqi4_ep>
    1590:	96 1b       	sub	r25, r22

00001592 <__udivmodqi4_ep>:
    1592:	88 1f       	adc	r24, r24
    1594:	7a 95       	dec	r23
    1596:	c9 f7       	brne	.-14     	; 0x158a <__udivmodqi4_loop>
    1598:	80 95       	com	r24
    159a:	08 95       	ret

0000159c <__divmodhi4>:
    159c:	97 fb       	bst	r25, 7
    159e:	09 2e       	mov	r0, r25
    15a0:	07 26       	eor	r0, r23
    15a2:	0a d0       	rcall	.+20     	; 0x15b8 <__divmodhi4_neg1>
    15a4:	77 fd       	sbrc	r23, 7
    15a6:	04 d0       	rcall	.+8      	; 0x15b0 <__divmodhi4_neg2>
    15a8:	0c d0       	rcall	.+24     	; 0x15c2 <__udivmodhi4>
    15aa:	06 d0       	rcall	.+12     	; 0x15b8 <__divmodhi4_neg1>
    15ac:	00 20       	and	r0, r0
    15ae:	1a f4       	brpl	.+6      	; 0x15b6 <__divmodhi4_exit>

000015b0 <__divmodhi4_neg2>:
    15b0:	70 95       	com	r23
    15b2:	61 95       	neg	r22
    15b4:	7f 4f       	sbci	r23, 0xFF	; 255

000015b6 <__divmodhi4_exit>:
    15b6:	08 95       	ret

000015b8 <__divmodhi4_neg1>:
    15b8:	f6 f7       	brtc	.-4      	; 0x15b6 <__divmodhi4_exit>
    15ba:	90 95       	com	r25
    15bc:	81 95       	neg	r24
    15be:	9f 4f       	sbci	r25, 0xFF	; 255
    15c0:	08 95       	ret

000015c2 <__udivmodhi4>:
    15c2:	aa 1b       	sub	r26, r26
    15c4:	bb 1b       	sub	r27, r27
    15c6:	51 e1       	ldi	r21, 0x11	; 17
    15c8:	07 c0       	rjmp	.+14     	; 0x15d8 <__udivmodhi4_ep>

000015ca <__udivmodhi4_loop>:
    15ca:	aa 1f       	adc	r26, r26
    15cc:	bb 1f       	adc	r27, r27
    15ce:	a6 17       	cp	r26, r22
    15d0:	b7 07       	cpc	r27, r23
    15d2:	10 f0       	brcs	.+4      	; 0x15d8 <__udivmodhi4_ep>
    15d4:	a6 1b       	sub	r26, r22
    15d6:	b7 0b       	sbc	r27, r23

000015d8 <__udivmodhi4_ep>:
    15d8:	88 1f       	adc	r24, r24
    15da:	99 1f       	adc	r25, r25
    15dc:	5a 95       	dec	r21
    15de:	a9 f7       	brne	.-22     	; 0x15ca <__udivmodhi4_loop>
    15e0:	80 95       	com	r24
    15e2:	90 95       	com	r25
    15e4:	bc 01       	movw	r22, r24
    15e6:	cd 01       	movw	r24, r26
    15e8:	08 95       	ret

000015ea <_exit>:
    15ea:	f8 94       	cli

000015ec <__stop_program>:
    15ec:	ff cf       	rjmp	.-2      	; 0x15ec <__stop_program>
