
wordclock-bloader.elf:     file format elf32-avr

Sections:
Idx Name          Size      VMA       LMA       File off  Algn
  0 .text         000006a4  00007000  00007000  00000094  2**1
                  CONTENTS, ALLOC, LOAD, READONLY, CODE
  1 .data         00000092  00800060  000076a4  00000738  2**0
                  CONTENTS, ALLOC, LOAD, DATA
  2 .bss          00000045  008000f2  008000f2  000007ca  2**0
                  ALLOC

Disassembly of section .text:

00007000 <__vectors>:
    7000:	0c 94 2a 38 	jmp	0x7054	; 0x7054 <__ctors_end>
    7004:	0c 94 4a 38 	jmp	0x7094	; 0x7094 <__bad_interrupt>
    7008:	0c 94 4a 38 	jmp	0x7094	; 0x7094 <__bad_interrupt>
    700c:	0c 94 4a 38 	jmp	0x7094	; 0x7094 <__bad_interrupt>
    7010:	0c 94 4a 38 	jmp	0x7094	; 0x7094 <__bad_interrupt>
    7014:	0c 94 4a 38 	jmp	0x7094	; 0x7094 <__bad_interrupt>
    7018:	0c 94 4a 38 	jmp	0x7094	; 0x7094 <__bad_interrupt>
    701c:	0c 94 4a 38 	jmp	0x7094	; 0x7094 <__bad_interrupt>
    7020:	0c 94 4a 38 	jmp	0x7094	; 0x7094 <__bad_interrupt>
    7024:	0c 94 4a 38 	jmp	0x7094	; 0x7094 <__bad_interrupt>
    7028:	0c 94 4a 38 	jmp	0x7094	; 0x7094 <__bad_interrupt>
    702c:	0c 94 4a 38 	jmp	0x7094	; 0x7094 <__bad_interrupt>
    7030:	0c 94 4a 38 	jmp	0x7094	; 0x7094 <__bad_interrupt>
    7034:	0c 94 a2 3a 	jmp	0x7544	; 0x7544 <__vector_13>
    7038:	0c 94 cc 3a 	jmp	0x7598	; 0x7598 <__vector_14>
    703c:	0c 94 4a 38 	jmp	0x7094	; 0x7094 <__bad_interrupt>
    7040:	0c 94 4a 38 	jmp	0x7094	; 0x7094 <__bad_interrupt>
    7044:	0c 94 4a 38 	jmp	0x7094	; 0x7094 <__bad_interrupt>
    7048:	0c 94 4a 38 	jmp	0x7094	; 0x7094 <__bad_interrupt>
    704c:	0c 94 4a 38 	jmp	0x7094	; 0x7094 <__bad_interrupt>
    7050:	0c 94 4a 38 	jmp	0x7094	; 0x7094 <__bad_interrupt>

00007054 <__ctors_end>:
    7054:	11 24       	eor	r1, r1
    7056:	1f be       	out	0x3f, r1	; 63
    7058:	cf e5       	ldi	r28, 0x5F	; 95
    705a:	d8 e0       	ldi	r29, 0x08	; 8
    705c:	de bf       	out	0x3e, r29	; 62
    705e:	cd bf       	out	0x3d, r28	; 61

00007060 <__do_copy_data>:
    7060:	10 e0       	ldi	r17, 0x00	; 0
    7062:	a0 e6       	ldi	r26, 0x60	; 96
    7064:	b0 e0       	ldi	r27, 0x00	; 0
    7066:	e4 ea       	ldi	r30, 0xA4	; 164
    7068:	f6 e7       	ldi	r31, 0x76	; 118
    706a:	02 c0       	rjmp	.+4      	; 0x7070 <.do_copy_data_start>

0000706c <.do_copy_data_loop>:
    706c:	05 90       	lpm	r0, Z+
    706e:	0d 92       	st	X+, r0

00007070 <.do_copy_data_start>:
    7070:	a2 3f       	cpi	r26, 0xF2	; 242
    7072:	b1 07       	cpc	r27, r17
    7074:	d9 f7       	brne	.-10     	; 0x706c <.do_copy_data_loop>

00007076 <__do_clear_bss>:
    7076:	11 e0       	ldi	r17, 0x01	; 1
    7078:	a2 ef       	ldi	r26, 0xF2	; 242
    707a:	b0 e0       	ldi	r27, 0x00	; 0
    707c:	01 c0       	rjmp	.+2      	; 0x7080 <.do_clear_bss_start>

0000707e <.do_clear_bss_loop>:
    707e:	1d 92       	st	X+, r1

00007080 <.do_clear_bss_start>:
    7080:	a7 33       	cpi	r26, 0x37	; 55
    7082:	b1 07       	cpc	r27, r17
    7084:	e1 f7       	brne	.-8      	; 0x707e <.do_clear_bss_loop>
    7086:	0e 94 51 38 	call	0x70a2	; 0x70a2 <main>
    708a:	0c 94 50 3b 	jmp	0x76a0	; 0x76a0 <_exit>

0000708e <__jumpMain>:
    708e:	11 24       	eor	r1, r1
    7090:	1f be       	out	0x3f, r1	; 63
    7092:	07 c0       	rjmp	.+14     	; 0x70a2 <main>

00007094 <__bad_interrupt>:
    7094:	0c 94 00 38 	jmp	0x7000	; 0x7000 <__vectors>

00007098 <USART_Flush>:
    7098:	01 c0       	rjmp	.+2      	; 0x709c <USART_Flush+0x4>
    709a:	8c b1       	in	r24, 0x0c	; 12
    709c:	5f 99       	sbic	0x0b, 7	; 11
    709e:	fd cf       	rjmp	.-6      	; 0x709a <USART_Flush+0x2>
    70a0:	08 95       	ret

000070a2 <main>:
    70a2:	2f 92       	push	r2
    70a4:	3f 92       	push	r3
    70a6:	4f 92       	push	r4
    70a8:	5f 92       	push	r5
    70aa:	6f 92       	push	r6
    70ac:	7f 92       	push	r7
    70ae:	8f 92       	push	r8
    70b0:	9f 92       	push	r9
    70b2:	af 92       	push	r10
    70b4:	bf 92       	push	r11
    70b6:	cf 92       	push	r12
    70b8:	df 92       	push	r13
    70ba:	ef 92       	push	r14
    70bc:	ff 92       	push	r15
    70be:	0f 93       	push	r16
    70c0:	1f 93       	push	r17
    70c2:	df 93       	push	r29
    70c4:	cf 93       	push	r28
    70c6:	cd b7       	in	r28, 0x3d	; 61
    70c8:	de b7       	in	r29, 0x3e	; 62
    70ca:	cd 51       	subi	r28, 0x1D	; 29
    70cc:	d1 40       	sbci	r29, 0x01	; 1
    70ce:	0f b6       	in	r0, 0x3f	; 63
    70d0:	f8 94       	cli
    70d2:	de bf       	out	0x3e, r29	; 62
    70d4:	0f be       	out	0x3f, r0	; 63
    70d6:	cd bf       	out	0x3d, r28	; 61
    70d8:	87 e0       	ldi	r24, 0x07	; 7
    70da:	89 b9       	out	0x09, r24	; 9
    70dc:	88 e1       	ldi	r24, 0x18	; 24
    70de:	8a b9       	out	0x0a, r24	; 10
    70e0:	e0 e6       	ldi	r30, 0x60	; 96
    70e2:	f0 e0       	ldi	r31, 0x00	; 0
    70e4:	05 c0       	rjmp	.+10     	; 0x70f0 <main+0x4e>
    70e6:	8c b9       	out	0x0c, r24	; 12
    70e8:	5e 9b       	sbis	0x0b, 6	; 11
    70ea:	fe cf       	rjmp	.-4      	; 0x70e8 <main+0x46>
    70ec:	5e 9a       	sbi	0x0b, 6	; 11
    70ee:	31 96       	adiw	r30, 0x01	; 1
    70f0:	80 81       	ld	r24, Z
    70f2:	88 23       	and	r24, r24
    70f4:	c1 f7       	brne	.-16     	; 0x70e6 <main+0x44>
    70f6:	88 ec       	ldi	r24, 0xC8	; 200
    70f8:	90 e0       	ldi	r25, 0x00	; 0
    70fa:	20 e7       	ldi	r18, 0x70	; 112
    70fc:	31 e0       	ldi	r19, 0x01	; 1
    70fe:	f9 01       	movw	r30, r18
    7100:	31 97       	sbiw	r30, 0x01	; 1
    7102:	f1 f7       	brne	.-4      	; 0x7100 <main+0x5e>
    7104:	01 97       	sbiw	r24, 0x01	; 1
    7106:	d9 f7       	brne	.-10     	; 0x70fe <main+0x5c>
    7108:	01 c0       	rjmp	.+2      	; 0x710c <main+0x6a>
    710a:	8c b1       	in	r24, 0x0c	; 12
    710c:	5f 99       	sbic	0x0b, 7	; 11
    710e:	fd cf       	rjmp	.-6      	; 0x710a <main+0x68>
    7110:	80 e2       	ldi	r24, 0x20	; 32
    7112:	9e e4       	ldi	r25, 0x4E	; 78
    7114:	20 e7       	ldi	r18, 0x70	; 112
    7116:	31 e0       	ldi	r19, 0x01	; 1
    7118:	f9 01       	movw	r30, r18
    711a:	31 97       	sbiw	r30, 0x01	; 1
    711c:	f1 f7       	brne	.-4      	; 0x711a <main+0x78>
    711e:	01 97       	sbiw	r24, 0x01	; 1
    7120:	d9 f7       	brne	.-10     	; 0x7118 <main+0x76>
    7122:	5f 9b       	sbis	0x0b, 7	; 11
    7124:	cd c1       	rjmp	.+922    	; 0x74c0 <main+0x41e>
    7126:	8c b1       	in	r24, 0x0c	; 12
    7128:	80 37       	cpi	r24, 0x70	; 112
    712a:	09 f0       	breq	.+2      	; 0x712e <main+0x8c>
    712c:	c9 c1       	rjmp	.+914    	; 0x74c0 <main+0x41e>
    712e:	e3 e8       	ldi	r30, 0x83	; 131
    7130:	f0 e0       	ldi	r31, 0x00	; 0
    7132:	05 c0       	rjmp	.+10     	; 0x713e <main+0x9c>
    7134:	8c b9       	out	0x0c, r24	; 12
    7136:	5e 9b       	sbis	0x0b, 6	; 11
    7138:	fe cf       	rjmp	.-4      	; 0x7136 <main+0x94>
    713a:	5e 9a       	sbi	0x0b, 6	; 11
    713c:	31 96       	adiw	r30, 0x01	; 1
    713e:	80 81       	ld	r24, Z
    7140:	88 23       	and	r24, r24
    7142:	c1 f7       	brne	.-16     	; 0x7134 <main+0x92>
    7144:	88 ee       	ldi	r24, 0xE8	; 232
    7146:	93 e0       	ldi	r25, 0x03	; 3
    7148:	20 e7       	ldi	r18, 0x70	; 112
    714a:	31 e0       	ldi	r19, 0x01	; 1
    714c:	f9 01       	movw	r30, r18
    714e:	31 97       	sbiw	r30, 0x01	; 1
    7150:	f1 f7       	brne	.-4      	; 0x714e <main+0xac>
    7152:	01 97       	sbiw	r24, 0x01	; 1
    7154:	d9 f7       	brne	.-10     	; 0x714c <main+0xaa>
    7156:	01 c0       	rjmp	.+2      	; 0x715a <main+0xb8>
    7158:	8c b1       	in	r24, 0x0c	; 12
    715a:	5f 99       	sbic	0x0b, 7	; 11
    715c:	fd cf       	rjmp	.-6      	; 0x7158 <main+0xb6>
    715e:	00 e0       	ldi	r16, 0x00	; 0
    7160:	10 e0       	ldi	r17, 0x00	; 0
    7162:	ee 24       	eor	r14, r14
    7164:	ff 24       	eor	r15, r15
    7166:	60 e0       	ldi	r22, 0x00	; 0
    7168:	55 24       	eor	r5, r5
    716a:	29 e0       	ldi	r18, 0x09	; 9
    716c:	42 2e       	mov	r4, r18
    716e:	9b e0       	ldi	r25, 0x0B	; 11
    7170:	29 2e       	mov	r2, r25
    7172:	31 2c       	mov	r3, r1
    7174:	2c 0e       	add	r2, r28
    7176:	3d 1e       	adc	r3, r29
    7178:	90 e0       	ldi	r25, 0x00	; 0
    717a:	40 e0       	ldi	r20, 0x00	; 0
    717c:	50 e0       	ldi	r21, 0x00	; 0
    717e:	5f 9b       	sbis	0x0b, 7	; 11
    7180:	fe cf       	rjmp	.-4      	; 0x717e <main+0xdc>
    7182:	3c b1       	in	r19, 0x0c	; 12
    7184:	93 30       	cpi	r25, 0x03	; 3
    7186:	a9 f1       	breq	.+106    	; 0x71f2 <main+0x150>
    7188:	94 30       	cpi	r25, 0x04	; 4
    718a:	28 f4       	brcc	.+10     	; 0x7196 <main+0xf4>
    718c:	91 30       	cpi	r25, 0x01	; 1
    718e:	21 f1       	breq	.+72     	; 0x71d8 <main+0x136>
    7190:	92 30       	cpi	r25, 0x02	; 2
    7192:	50 f5       	brcc	.+84     	; 0x71e8 <main+0x146>
    7194:	08 c0       	rjmp	.+16     	; 0x71a6 <main+0x104>
    7196:	95 30       	cpi	r25, 0x05	; 5
    7198:	09 f4       	brne	.+2      	; 0x719c <main+0xfa>
    719a:	39 c0       	rjmp	.+114    	; 0x720e <main+0x16c>
    719c:	95 30       	cpi	r25, 0x05	; 5
    719e:	80 f1       	brcs	.+96     	; 0x7200 <main+0x15e>
    71a0:	96 30       	cpi	r25, 0x06	; 6
    71a2:	69 f7       	brne	.-38     	; 0x717e <main+0xdc>
    71a4:	46 c0       	rjmp	.+140    	; 0x7232 <main+0x190>
    71a6:	3b 31       	cpi	r19, 0x1B	; 27
    71a8:	19 f4       	brne	.+6      	; 0x71b0 <main+0x10e>
    71aa:	91 e0       	ldi	r25, 0x01	; 1
    71ac:	6b e1       	ldi	r22, 0x1B	; 27
    71ae:	e7 cf       	rjmp	.-50     	; 0x717e <main+0xdc>
    71b0:	32 37       	cpi	r19, 0x72	; 114
    71b2:	29 f7       	brne	.-54     	; 0x717e <main+0xdc>
    71b4:	5f 9b       	sbis	0x0b, 7	; 11
    71b6:	fe cf       	rjmp	.-4      	; 0x71b4 <main+0x112>
    71b8:	8c b1       	in	r24, 0x0c	; 12
    71ba:	82 37       	cpi	r24, 0x72	; 114
    71bc:	01 f7       	brne	.-64     	; 0x717e <main+0xdc>
    71be:	5f 9b       	sbis	0x0b, 7	; 11
    71c0:	fe cf       	rjmp	.-4      	; 0x71be <main+0x11c>
    71c2:	8c b1       	in	r24, 0x0c	; 12
    71c4:	82 37       	cpi	r24, 0x72	; 114
    71c6:	d9 f6       	brne	.-74     	; 0x717e <main+0xdc>
    71c8:	21 e1       	ldi	r18, 0x11	; 17
    71ca:	20 93 57 00 	sts	0x0057, r18
    71ce:	e8 95       	spm
    71d0:	1f 92       	push	r1
    71d2:	1f 92       	push	r1
    71d4:	08 95       	ret
    71d6:	d3 cf       	rjmp	.-90     	; 0x717e <main+0xdc>
    71d8:	31 30       	cpi	r19, 0x01	; 1
    71da:	11 f0       	breq	.+4      	; 0x71e0 <main+0x13e>
    71dc:	35 15       	cp	r19, r5
    71de:	61 f5       	brne	.+88     	; 0x7238 <main+0x196>
    71e0:	63 27       	eor	r22, r19
    71e2:	53 2e       	mov	r5, r19
    71e4:	92 e0       	ldi	r25, 0x02	; 2
    71e6:	cb cf       	rjmp	.-106    	; 0x717e <main+0xdc>
    71e8:	53 2f       	mov	r21, r19
    71ea:	40 e0       	ldi	r20, 0x00	; 0
    71ec:	63 27       	eor	r22, r19
    71ee:	93 e0       	ldi	r25, 0x03	; 3
    71f0:	c6 cf       	rjmp	.-116    	; 0x717e <main+0xdc>
    71f2:	83 2f       	mov	r24, r19
    71f4:	90 e0       	ldi	r25, 0x00	; 0
    71f6:	48 2b       	or	r20, r24
    71f8:	59 2b       	or	r21, r25
    71fa:	63 27       	eor	r22, r19
    71fc:	94 e0       	ldi	r25, 0x04	; 4
    71fe:	bf cf       	rjmp	.-130    	; 0x717e <main+0xdc>
    7200:	3e 30       	cpi	r19, 0x0E	; 14
    7202:	d1 f4       	brne	.+52     	; 0x7238 <main+0x196>
    7204:	63 27       	eor	r22, r19
    7206:	95 e0       	ldi	r25, 0x05	; 5
    7208:	ee 24       	eor	r14, r14
    720a:	ff 24       	eor	r15, r15
    720c:	b8 cf       	rjmp	.-144    	; 0x717e <main+0xdc>
    720e:	e1 e0       	ldi	r30, 0x01	; 1
    7210:	f0 e0       	ldi	r31, 0x00	; 0
    7212:	ec 0f       	add	r30, r28
    7214:	fd 1f       	adc	r31, r29
    7216:	ee 0d       	add	r30, r14
    7218:	ff 1d       	adc	r31, r15
    721a:	30 83       	st	Z, r19
    721c:	08 94       	sec
    721e:	e1 1c       	adc	r14, r1
    7220:	f1 1c       	adc	r15, r1
    7222:	63 27       	eor	r22, r19
    7224:	e4 16       	cp	r14, r20
    7226:	f5 06       	cpc	r15, r21
    7228:	09 f0       	breq	.+2      	; 0x722c <main+0x18a>
    722a:	a9 cf       	rjmp	.-174    	; 0x717e <main+0xdc>
    722c:	a7 01       	movw	r20, r14
    722e:	96 e0       	ldi	r25, 0x06	; 6
    7230:	a6 cf       	rjmp	.-180    	; 0x717e <main+0xdc>
    7232:	36 17       	cp	r19, r22
    7234:	09 f4       	brne	.+2      	; 0x7238 <main+0x196>
    7236:	51 c1       	rjmp	.+674    	; 0x74da <main+0x438>
    7238:	90 e0       	ldi	r25, 0x00	; 0
    723a:	a1 cf       	rjmp	.-190    	; 0x717e <main+0xdc>
    723c:	8d 81       	ldd	r24, Y+5	; 0x05
    723e:	80 33       	cpi	r24, 0x30	; 48
    7240:	11 f0       	breq	.+4      	; 0x7246 <main+0x1a4>
    7242:	90 e0       	ldi	r25, 0x00	; 0
    7244:	0a c0       	rjmp	.+20     	; 0x725a <main+0x1b8>
    7246:	8f 81       	ldd	r24, Y+7	; 0x07
    7248:	88 23       	and	r24, r24
    724a:	11 f4       	brne	.+4      	; 0x7250 <main+0x1ae>
    724c:	9e e1       	ldi	r25, 0x1E	; 30
    724e:	05 c0       	rjmp	.+10     	; 0x725a <main+0x1b8>
    7250:	81 30       	cpi	r24, 0x01	; 1
    7252:	11 f0       	breq	.+4      	; 0x7258 <main+0x1b6>
    7254:	92 e0       	ldi	r25, 0x02	; 2
    7256:	01 c0       	rjmp	.+2      	; 0x725a <main+0x1b8>
    7258:	95 e9       	ldi	r25, 0x95	; 149
    725a:	1a 82       	std	Y+2, r1	; 0x02
    725c:	1b 82       	std	Y+3, r1	; 0x03
    725e:	8d 81       	ldd	r24, Y+5	; 0x05
    7260:	8c 83       	std	Y+4, r24	; 0x04
    7262:	8e 81       	ldd	r24, Y+6	; 0x06
    7264:	8d 83       	std	Y+5, r24	; 0x05
    7266:	9e 83       	std	Y+6, r25	; 0x06
    7268:	1f 82       	std	Y+7, r1	; 0x07
    726a:	47 e0       	ldi	r20, 0x07	; 7
    726c:	50 e0       	ldi	r21, 0x00	; 0
    726e:	f1 c0       	rjmp	.+482    	; 0x7452 <main+0x3b0>
    7270:	1a 82       	std	Y+2, r1	; 0x02
    7272:	88 e0       	ldi	r24, 0x08	; 8
    7274:	8b 83       	std	Y+3, r24	; 0x03
    7276:	81 e4       	ldi	r24, 0x41	; 65
    7278:	8c 83       	std	Y+4, r24	; 0x04
    727a:	86 e5       	ldi	r24, 0x56	; 86
    727c:	8d 83       	std	Y+5, r24	; 0x05
    727e:	82 e5       	ldi	r24, 0x52	; 82
    7280:	8e 83       	std	Y+6, r24	; 0x06
    7282:	89 e4       	ldi	r24, 0x49	; 73
    7284:	8f 83       	std	Y+7, r24	; 0x07
    7286:	83 e5       	ldi	r24, 0x53	; 83
    7288:	88 87       	std	Y+8, r24	; 0x08
    728a:	80 e5       	ldi	r24, 0x50	; 80
    728c:	89 87       	std	Y+9, r24	; 0x09
    728e:	8f e5       	ldi	r24, 0x5F	; 95
    7290:	8a 87       	std	Y+10, r24	; 0x0a
    7292:	82 e3       	ldi	r24, 0x32	; 50
    7294:	8b 87       	std	Y+11, r24	; 0x0b
    7296:	4b e0       	ldi	r20, 0x0B	; 11
    7298:	50 e0       	ldi	r21, 0x00	; 0
    729a:	db c0       	rjmp	.+438    	; 0x7452 <main+0x3b0>
    729c:	8a 81       	ldd	r24, Y+2	; 0x02
    729e:	81 39       	cpi	r24, 0x91	; 145
    72a0:	41 f0       	breq	.+16     	; 0x72b2 <main+0x210>
    72a2:	82 39       	cpi	r24, 0x92	; 146
    72a4:	41 f0       	breq	.+16     	; 0x72b6 <main+0x214>
    72a6:	80 39       	cpi	r24, 0x90	; 144
    72a8:	11 f4       	brne	.+4      	; 0x72ae <main+0x20c>
    72aa:	8f e0       	ldi	r24, 0x0F	; 15
    72ac:	05 c0       	rjmp	.+10     	; 0x72b8 <main+0x216>
    72ae:	80 e0       	ldi	r24, 0x00	; 0
    72b0:	03 c0       	rjmp	.+6      	; 0x72b8 <main+0x216>
    72b2:	82 e0       	ldi	r24, 0x02	; 2
    72b4:	01 c0       	rjmp	.+2      	; 0x72b8 <main+0x216>
    72b6:	87 e0       	ldi	r24, 0x07	; 7
    72b8:	1a 82       	std	Y+2, r1	; 0x02
    72ba:	8b 83       	std	Y+3, r24	; 0x03
    72bc:	43 e0       	ldi	r20, 0x03	; 3
    72be:	50 e0       	ldi	r21, 0x00	; 0
    72c0:	c8 c0       	rjmp	.+400    	; 0x7452 <main+0x3b0>
    72c2:	8d 81       	ldd	r24, Y+5	; 0x05
    72c4:	88 23       	and	r24, r24
    72c6:	11 f4       	brne	.+4      	; 0x72cc <main+0x22a>
    72c8:	8e e1       	ldi	r24, 0x1E	; 30
    72ca:	28 c0       	rjmp	.+80     	; 0x731c <main+0x27a>
    72cc:	81 30       	cpi	r24, 0x01	; 1
    72ce:	11 f0       	breq	.+4      	; 0x72d4 <main+0x232>
    72d0:	82 e0       	ldi	r24, 0x02	; 2
    72d2:	24 c0       	rjmp	.+72     	; 0x731c <main+0x27a>
    72d4:	85 e9       	ldi	r24, 0x95	; 149
    72d6:	22 c0       	rjmp	.+68     	; 0x731c <main+0x27a>
    72d8:	1a 82       	std	Y+2, r1	; 0x02
    72da:	e1 e0       	ldi	r30, 0x01	; 1
    72dc:	f0 e0       	ldi	r31, 0x00	; 0
    72de:	40 92 57 00 	sts	0x0057, r4
    72e2:	84 91       	lpm	r24, Z+
    72e4:	8b 83       	std	Y+3, r24	; 0x03
    72e6:	1c 82       	std	Y+4, r1	; 0x04
    72e8:	44 e0       	ldi	r20, 0x04	; 4
    72ea:	50 e0       	ldi	r21, 0x00	; 0
    72ec:	b2 c0       	rjmp	.+356    	; 0x7452 <main+0x3b0>
    72ee:	8b 81       	ldd	r24, Y+3	; 0x03
    72f0:	80 35       	cpi	r24, 0x50	; 80
    72f2:	79 f4       	brne	.+30     	; 0x7312 <main+0x270>
    72f4:	8c 81       	ldd	r24, Y+4	; 0x04
    72f6:	88 30       	cpi	r24, 0x08	; 8
    72f8:	31 f4       	brne	.+12     	; 0x7306 <main+0x264>
    72fa:	e2 e0       	ldi	r30, 0x02	; 2
    72fc:	f0 e0       	ldi	r31, 0x00	; 0
    72fe:	40 92 57 00 	sts	0x0057, r4
    7302:	84 91       	lpm	r24, Z+
    7304:	0b c0       	rjmp	.+22     	; 0x731c <main+0x27a>
    7306:	e0 e0       	ldi	r30, 0x00	; 0
    7308:	f0 e0       	ldi	r31, 0x00	; 0
    730a:	40 92 57 00 	sts	0x0057, r4
    730e:	84 91       	lpm	r24, Z+
    7310:	05 c0       	rjmp	.+10     	; 0x731c <main+0x27a>
    7312:	e3 e0       	ldi	r30, 0x03	; 3
    7314:	f0 e0       	ldi	r31, 0x00	; 0
    7316:	40 92 57 00 	sts	0x0057, r4
    731a:	84 91       	lpm	r24, Z+
    731c:	1a 82       	std	Y+2, r1	; 0x02
    731e:	e2 cf       	rjmp	.-60     	; 0x72e4 <main+0x242>
    7320:	00 e0       	ldi	r16, 0x00	; 0
    7322:	10 e0       	ldi	r17, 0x00	; 0
    7324:	23 e0       	ldi	r18, 0x03	; 3
    7326:	f8 01       	movw	r30, r16
    7328:	20 93 57 00 	sts	0x0057, r18
    732c:	e8 95       	spm
    732e:	07 b6       	in	r0, 0x37	; 55
    7330:	00 fc       	sbrc	r0, 0
    7332:	fd cf       	rjmp	.-6      	; 0x732e <main+0x28c>
    7334:	00 58       	subi	r16, 0x80	; 128
    7336:	1f 4f       	sbci	r17, 0xFF	; 255
    7338:	80 e7       	ldi	r24, 0x70	; 112
    733a:	00 30       	cpi	r16, 0x00	; 0
    733c:	18 07       	cpc	r17, r24
    733e:	91 f7       	brne	.-28     	; 0x7324 <main+0x282>
    7340:	09 c0       	rjmp	.+18     	; 0x7354 <main+0x2b2>
    7342:	bc 80       	ldd	r11, Y+4	; 0x04
    7344:	aa 24       	eor	r10, r10
    7346:	8d 81       	ldd	r24, Y+5	; 0x05
    7348:	08 2f       	mov	r16, r24
    734a:	10 e0       	ldi	r17, 0x00	; 0
    734c:	0a 29       	or	r16, r10
    734e:	1b 29       	or	r17, r11
    7350:	00 0f       	add	r16, r16
    7352:	11 1f       	adc	r17, r17
    7354:	1a 82       	std	Y+2, r1	; 0x02
    7356:	7b c0       	rjmp	.+246    	; 0x744e <main+0x3ac>
    7358:	9a 80       	ldd	r9, Y+2	; 0x02
    735a:	88 24       	eor	r8, r8
    735c:	8b 81       	ldd	r24, Y+3	; 0x03
    735e:	68 2f       	mov	r22, r24
    7360:	70 e0       	ldi	r23, 0x00	; 0
    7362:	68 29       	or	r22, r8
    7364:	79 29       	or	r23, r9
    7366:	93 31       	cpi	r25, 0x13	; 19
    7368:	29 f5       	brne	.+74     	; 0x73b4 <main+0x312>
    736a:	a8 01       	movw	r20, r16
    736c:	d1 01       	movw	r26, r2
    736e:	8c 91       	ld	r24, X
    7370:	11 96       	adiw	r26, 0x01	; 1
    7372:	2c 91       	ld	r18, X
    7374:	11 97       	sbiw	r26, 0x01	; 1
    7376:	12 96       	adiw	r26, 0x02	; 2
    7378:	d2 2e       	mov	r13, r18
    737a:	cc 24       	eor	r12, r12
    737c:	90 e0       	ldi	r25, 0x00	; 0
    737e:	8c 29       	or	r24, r12
    7380:	9d 29       	or	r25, r13
    7382:	21 e0       	ldi	r18, 0x01	; 1
    7384:	fa 01       	movw	r30, r20
    7386:	0c 01       	movw	r0, r24
    7388:	20 93 57 00 	sts	0x0057, r18
    738c:	e8 95       	spm
    738e:	11 24       	eor	r1, r1
    7390:	4e 5f       	subi	r20, 0xFE	; 254
    7392:	5f 4f       	sbci	r21, 0xFF	; 255
    7394:	62 50       	subi	r22, 0x02	; 2
    7396:	70 40       	sbci	r23, 0x00	; 0
    7398:	51 f7       	brne	.-44     	; 0x736e <main+0x2cc>
    739a:	25 e0       	ldi	r18, 0x05	; 5
    739c:	f8 01       	movw	r30, r16
    739e:	20 93 57 00 	sts	0x0057, r18
    73a2:	e8 95       	spm
    73a4:	07 b6       	in	r0, 0x37	; 55
    73a6:	00 fc       	sbrc	r0, 0
    73a8:	fd cf       	rjmp	.-6      	; 0x73a4 <main+0x302>
    73aa:	81 e1       	ldi	r24, 0x11	; 17
    73ac:	80 93 57 00 	sts	0x0057, r24
    73b0:	e8 95       	spm
    73b2:	12 c0       	rjmp	.+36     	; 0x73d8 <main+0x336>
    73b4:	fb 01       	movw	r30, r22
    73b6:	a8 01       	movw	r20, r16
    73b8:	d1 01       	movw	r26, r2
    73ba:	4e bb       	out	0x1e, r20	; 30
    73bc:	5f bb       	out	0x1f, r21	; 31
    73be:	4f 5f       	subi	r20, 0xFF	; 255
    73c0:	5f 4f       	sbci	r21, 0xFF	; 255
    73c2:	8d 91       	ld	r24, X+
    73c4:	8d bb       	out	0x1d, r24	; 29
    73c6:	e2 9a       	sbi	0x1c, 2	; 28
    73c8:	e1 9a       	sbi	0x1c, 1	; 28
    73ca:	e1 99       	sbic	0x1c, 1	; 28
    73cc:	fe cf       	rjmp	.-4      	; 0x73ca <main+0x328>
    73ce:	31 97       	sbiw	r30, 0x01	; 1
    73d0:	a1 f7       	brne	.-24     	; 0x73ba <main+0x318>
    73d2:	a8 01       	movw	r20, r16
    73d4:	46 0f       	add	r20, r22
    73d6:	57 1f       	adc	r21, r23
    73d8:	1a 82       	std	Y+2, r1	; 0x02
    73da:	8a 01       	movw	r16, r20
    73dc:	38 c0       	rjmp	.+112    	; 0x744e <main+0x3ac>
    73de:	7a 80       	ldd	r7, Y+2	; 0x02
    73e0:	66 24       	eor	r6, r6
    73e2:	8b 81       	ldd	r24, Y+3	; 0x03
    73e4:	a8 2f       	mov	r26, r24
    73e6:	b0 e0       	ldi	r27, 0x00	; 0
    73e8:	a6 29       	or	r26, r6
    73ea:	b7 29       	or	r27, r7
    73ec:	1a 82       	std	Y+2, r1	; 0x02
    73ee:	89 81       	ldd	r24, Y+1	; 0x01
    73f0:	84 31       	cpi	r24, 0x14	; 20
    73f2:	91 f4       	brne	.+36     	; 0x7418 <main+0x376>
    73f4:	bd 01       	movw	r22, r26
    73f6:	9e 01       	movw	r18, r28
    73f8:	2d 5f       	subi	r18, 0xFD	; 253
    73fa:	3f 4f       	sbci	r19, 0xFF	; 255
    73fc:	f8 01       	movw	r30, r16
    73fe:	85 91       	lpm	r24, Z+
    7400:	94 91       	lpm	r25, Z+
    7402:	f9 01       	movw	r30, r18
    7404:	80 83       	st	Z, r24
    7406:	91 83       	std	Z+1, r25	; 0x01
    7408:	2e 5f       	subi	r18, 0xFE	; 254
    740a:	3f 4f       	sbci	r19, 0xFF	; 255
    740c:	0e 5f       	subi	r16, 0xFE	; 254
    740e:	1f 4f       	sbci	r17, 0xFF	; 255
    7410:	62 50       	subi	r22, 0x02	; 2
    7412:	70 40       	sbci	r23, 0x00	; 0
    7414:	99 f7       	brne	.-26     	; 0x73fc <main+0x35a>
    7416:	13 c0       	rjmp	.+38     	; 0x743e <main+0x39c>
    7418:	bd 01       	movw	r22, r26
    741a:	a8 01       	movw	r20, r16
    741c:	9e 01       	movw	r18, r28
    741e:	2d 5f       	subi	r18, 0xFD	; 253
    7420:	3f 4f       	sbci	r19, 0xFF	; 255
    7422:	4e bb       	out	0x1e, r20	; 30
    7424:	5f bb       	out	0x1f, r21	; 31
    7426:	4f 5f       	subi	r20, 0xFF	; 255
    7428:	5f 4f       	sbci	r21, 0xFF	; 255
    742a:	e0 9a       	sbi	0x1c, 0	; 28
    742c:	8d b3       	in	r24, 0x1d	; 29
    742e:	f9 01       	movw	r30, r18
    7430:	81 93       	st	Z+, r24
    7432:	9f 01       	movw	r18, r30
    7434:	61 50       	subi	r22, 0x01	; 1
    7436:	70 40       	sbci	r23, 0x00	; 0
    7438:	a1 f7       	brne	.-24     	; 0x7422 <main+0x380>
    743a:	0a 0f       	add	r16, r26
    743c:	1b 1f       	adc	r17, r27
    743e:	ad 01       	movw	r20, r26
    7440:	4d 5f       	subi	r20, 0xFD	; 253
    7442:	5f 4f       	sbci	r21, 0xFF	; 255
    7444:	f9 01       	movw	r30, r18
    7446:	10 82       	st	Z, r1
    7448:	04 c0       	rjmp	.+8      	; 0x7452 <main+0x3b0>
    744a:	80 ec       	ldi	r24, 0xC0	; 192
    744c:	8a 83       	std	Y+2, r24	; 0x02
    744e:	42 e0       	ldi	r20, 0x02	; 2
    7450:	50 e0       	ldi	r21, 0x00	; 0
    7452:	fb e1       	ldi	r31, 0x1B	; 27
    7454:	fc b9       	out	0x0c, r31	; 12
    7456:	5e 9b       	sbis	0x0b, 6	; 11
    7458:	fe cf       	rjmp	.-4      	; 0x7456 <main+0x3b4>
    745a:	5e 9a       	sbi	0x0b, 6	; 11
    745c:	5c b8       	out	0x0c, r5	; 12
    745e:	5e 9b       	sbis	0x0b, 6	; 11
    7460:	fe cf       	rjmp	.-4      	; 0x745e <main+0x3bc>
    7462:	5e 9a       	sbi	0x0b, 6	; 11
    7464:	35 2f       	mov	r19, r21
    7466:	5c b9       	out	0x0c, r21	; 12
    7468:	5e 9b       	sbis	0x0b, 6	; 11
    746a:	fe cf       	rjmp	.-4      	; 0x7468 <main+0x3c6>
    746c:	5e 9a       	sbi	0x0b, 6	; 11
    746e:	94 2f       	mov	r25, r20
    7470:	4c b9       	out	0x0c, r20	; 12
    7472:	5e 9b       	sbis	0x0b, 6	; 11
    7474:	fe cf       	rjmp	.-4      	; 0x7472 <main+0x3d0>
    7476:	5e 9a       	sbi	0x0b, 6	; 11
    7478:	8e e0       	ldi	r24, 0x0E	; 14
    747a:	8c b9       	out	0x0c, r24	; 12
    747c:	5e 9b       	sbis	0x0b, 6	; 11
    747e:	fe cf       	rjmp	.-4      	; 0x747c <main+0x3da>
    7480:	5e 9a       	sbi	0x0b, 6	; 11
    7482:	65 e1       	ldi	r22, 0x15	; 21
    7484:	65 25       	eor	r22, r5
    7486:	69 27       	eor	r22, r25
    7488:	63 27       	eor	r22, r19
    748a:	fe 01       	movw	r30, r28
    748c:	31 96       	adiw	r30, 0x01	; 1
    748e:	09 c0       	rjmp	.+18     	; 0x74a2 <main+0x400>
    7490:	80 81       	ld	r24, Z
    7492:	8c b9       	out	0x0c, r24	; 12
    7494:	5e 9b       	sbis	0x0b, 6	; 11
    7496:	fe cf       	rjmp	.-4      	; 0x7494 <main+0x3f2>
    7498:	31 96       	adiw	r30, 0x01	; 1
    749a:	5e 9a       	sbi	0x0b, 6	; 11
    749c:	68 27       	eor	r22, r24
    749e:	41 50       	subi	r20, 0x01	; 1
    74a0:	50 40       	sbci	r21, 0x00	; 0
    74a2:	41 15       	cp	r20, r1
    74a4:	51 05       	cpc	r21, r1
    74a6:	a1 f7       	brne	.-24     	; 0x7490 <main+0x3ee>
    74a8:	6c b9       	out	0x0c, r22	; 12
    74aa:	5e 9b       	sbis	0x0b, 6	; 11
    74ac:	fe cf       	rjmp	.-4      	; 0x74aa <main+0x408>
    74ae:	5e 9a       	sbi	0x0b, 6	; 11
    74b0:	53 94       	inc	r5
    74b2:	62 ce       	rjmp	.-828    	; 0x7178 <main+0xd6>
    74b4:	8c b9       	out	0x0c, r24	; 12
    74b6:	5e 9b       	sbis	0x0b, 6	; 11
    74b8:	fe cf       	rjmp	.-4      	; 0x74b6 <main+0x414>
    74ba:	5e 9a       	sbi	0x0b, 6	; 11
    74bc:	31 96       	adiw	r30, 0x01	; 1
    74be:	02 c0       	rjmp	.+4      	; 0x74c4 <main+0x422>
    74c0:	e4 ee       	ldi	r30, 0xE4	; 228
    74c2:	f0 e0       	ldi	r31, 0x00	; 0
    74c4:	80 81       	ld	r24, Z
    74c6:	88 23       	and	r24, r24
    74c8:	a9 f7       	brne	.-22     	; 0x74b4 <main+0x412>
    74ca:	81 e1       	ldi	r24, 0x11	; 17
    74cc:	80 93 57 00 	sts	0x0057, r24
    74d0:	e8 95       	spm
    74d2:	1f 92       	push	r1
    74d4:	1f 92       	push	r1
    74d6:	08 95       	ret
    74d8:	ff cf       	rjmp	.-2      	; 0x74d8 <main+0x436>
    74da:	99 81       	ldd	r25, Y+1	; 0x01
    74dc:	93 31       	cpi	r25, 0x13	; 19
    74de:	09 f4       	brne	.+2      	; 0x74e2 <main+0x440>
    74e0:	3b cf       	rjmp	.-394    	; 0x7358 <main+0x2b6>
    74e2:	94 31       	cpi	r25, 0x14	; 20
    74e4:	b0 f4       	brcc	.+44     	; 0x7512 <main+0x470>
    74e6:	96 30       	cpi	r25, 0x06	; 6
    74e8:	09 f4       	brne	.+2      	; 0x74ec <main+0x44a>
    74ea:	2b cf       	rjmp	.-426    	; 0x7342 <main+0x2a0>
    74ec:	97 30       	cpi	r25, 0x07	; 7
    74ee:	50 f4       	brcc	.+20     	; 0x7504 <main+0x462>
    74f0:	92 30       	cpi	r25, 0x02	; 2
    74f2:	09 f4       	brne	.+2      	; 0x74f6 <main+0x454>
    74f4:	2f cf       	rjmp	.-418    	; 0x7354 <main+0x2b2>
    74f6:	93 30       	cpi	r25, 0x03	; 3
    74f8:	09 f4       	brne	.+2      	; 0x74fc <main+0x45a>
    74fa:	d0 ce       	rjmp	.-608    	; 0x729c <main+0x1fa>
    74fc:	91 30       	cpi	r25, 0x01	; 1
    74fe:	09 f0       	breq	.+2      	; 0x7502 <main+0x460>
    7500:	a4 cf       	rjmp	.-184    	; 0x744a <main+0x3a8>
    7502:	b6 ce       	rjmp	.-660    	; 0x7270 <main+0x1ce>
    7504:	90 31       	cpi	r25, 0x10	; 16
    7506:	08 f4       	brcc	.+2      	; 0x750a <main+0x468>
    7508:	a0 cf       	rjmp	.-192    	; 0x744a <main+0x3a8>
    750a:	92 31       	cpi	r25, 0x12	; 18
    750c:	08 f4       	brcc	.+2      	; 0x7510 <main+0x46e>
    750e:	22 cf       	rjmp	.-444    	; 0x7354 <main+0x2b2>
    7510:	07 cf       	rjmp	.-498    	; 0x7320 <main+0x27e>
    7512:	98 31       	cpi	r25, 0x18	; 24
    7514:	09 f4       	brne	.+2      	; 0x7518 <main+0x476>
    7516:	eb ce       	rjmp	.-554    	; 0x72ee <main+0x24c>
    7518:	99 31       	cpi	r25, 0x19	; 25
    751a:	50 f4       	brcc	.+20     	; 0x7530 <main+0x48e>
    751c:	95 31       	cpi	r25, 0x15	; 21
    751e:	09 f4       	brne	.+2      	; 0x7522 <main+0x480>
    7520:	1b cf       	rjmp	.-458    	; 0x7358 <main+0x2b6>
    7522:	95 31       	cpi	r25, 0x15	; 21
    7524:	08 f4       	brcc	.+2      	; 0x7528 <main+0x486>
    7526:	5b cf       	rjmp	.-330    	; 0x73de <main+0x33c>
    7528:	96 31       	cpi	r25, 0x16	; 22
    752a:	09 f0       	breq	.+2      	; 0x752e <main+0x48c>
    752c:	8e cf       	rjmp	.-228    	; 0x744a <main+0x3a8>
    752e:	57 cf       	rjmp	.-338    	; 0x73de <main+0x33c>
    7530:	9b 31       	cpi	r25, 0x1B	; 27
    7532:	09 f4       	brne	.+2      	; 0x7536 <main+0x494>
    7534:	c6 ce       	rjmp	.-628    	; 0x72c2 <main+0x220>
    7536:	9d 31       	cpi	r25, 0x1D	; 29
    7538:	09 f4       	brne	.+2      	; 0x753c <main+0x49a>
    753a:	80 ce       	rjmp	.-768    	; 0x723c <main+0x19a>
    753c:	9a 31       	cpi	r25, 0x1A	; 26
    753e:	09 f0       	breq	.+2      	; 0x7542 <main+0x4a0>
    7540:	84 cf       	rjmp	.-248    	; 0x744a <main+0x3a8>
    7542:	ca ce       	rjmp	.-620    	; 0x72d8 <main+0x236>

00007544 <__vector_13>:
    7544:	1f 92       	push	r1
    7546:	0f 92       	push	r0
    7548:	0f b6       	in	r0, 0x3f	; 63
    754a:	0f 92       	push	r0
    754c:	11 24       	eor	r1, r1
    754e:	2f 93       	push	r18
    7550:	8f 93       	push	r24
    7552:	9f 93       	push	r25
    7554:	ef 93       	push	r30
    7556:	ff 93       	push	r31
    7558:	9b b1       	in	r25, 0x0b	; 11
    755a:	2c b1       	in	r18, 0x0c	; 12
    755c:	e0 91 34 01 	lds	r30, 0x0134
    7560:	ef 5f       	subi	r30, 0xFF	; 255
    7562:	ef 71       	andi	r30, 0x1F	; 31
    7564:	80 91 35 01 	lds	r24, 0x0135
    7568:	e8 17       	cp	r30, r24
    756a:	11 f4       	brne	.+4      	; 0x7570 <__vector_13+0x2c>
    756c:	82 e0       	ldi	r24, 0x02	; 2
    756e:	08 c0       	rjmp	.+16     	; 0x7580 <__vector_13+0x3c>
    7570:	89 2f       	mov	r24, r25
    7572:	88 71       	andi	r24, 0x18	; 24
    7574:	e0 93 34 01 	sts	0x0134, r30
    7578:	f0 e0       	ldi	r31, 0x00	; 0
    757a:	ee 5e       	subi	r30, 0xEE	; 238
    757c:	fe 4f       	sbci	r31, 0xFE	; 254
    757e:	20 83       	st	Z, r18
    7580:	80 93 36 01 	sts	0x0136, r24
    7584:	ff 91       	pop	r31
    7586:	ef 91       	pop	r30
    7588:	9f 91       	pop	r25
    758a:	8f 91       	pop	r24
    758c:	2f 91       	pop	r18
    758e:	0f 90       	pop	r0
    7590:	0f be       	out	0x3f, r0	; 63
    7592:	0f 90       	pop	r0
    7594:	1f 90       	pop	r1
    7596:	18 95       	reti

00007598 <__vector_14>:
    7598:	1f 92       	push	r1
    759a:	0f 92       	push	r0
    759c:	0f b6       	in	r0, 0x3f	; 63
    759e:	0f 92       	push	r0
    75a0:	11 24       	eor	r1, r1
    75a2:	8f 93       	push	r24
    75a4:	9f 93       	push	r25
    75a6:	ef 93       	push	r30
    75a8:	ff 93       	push	r31
    75aa:	90 91 32 01 	lds	r25, 0x0132
    75ae:	80 91 33 01 	lds	r24, 0x0133
    75b2:	98 17       	cp	r25, r24
    75b4:	61 f0       	breq	.+24     	; 0x75ce <__vector_14+0x36>
    75b6:	e0 91 33 01 	lds	r30, 0x0133
    75ba:	ef 5f       	subi	r30, 0xFF	; 255
    75bc:	ef 71       	andi	r30, 0x1F	; 31
    75be:	e0 93 33 01 	sts	0x0133, r30
    75c2:	f0 e0       	ldi	r31, 0x00	; 0
    75c4:	ee 50       	subi	r30, 0x0E	; 14
    75c6:	ff 4f       	sbci	r31, 0xFF	; 255
    75c8:	80 81       	ld	r24, Z
    75ca:	8c b9       	out	0x0c, r24	; 12
    75cc:	01 c0       	rjmp	.+2      	; 0x75d0 <__vector_14+0x38>
    75ce:	55 98       	cbi	0x0a, 5	; 10
    75d0:	ff 91       	pop	r31
    75d2:	ef 91       	pop	r30
    75d4:	9f 91       	pop	r25
    75d6:	8f 91       	pop	r24
    75d8:	0f 90       	pop	r0
    75da:	0f be       	out	0x3f, r0	; 63
    75dc:	0f 90       	pop	r0
    75de:	1f 90       	pop	r1
    75e0:	18 95       	reti

000075e2 <uart_init>:
    75e2:	9c 01       	movw	r18, r24
    75e4:	10 92 32 01 	sts	0x0132, r1
    75e8:	10 92 33 01 	sts	0x0133, r1
    75ec:	10 92 34 01 	sts	0x0134, r1
    75f0:	10 92 35 01 	sts	0x0135, r1
    75f4:	97 ff       	sbrs	r25, 7
    75f6:	03 c0       	rjmp	.+6      	; 0x75fe <uart_init+0x1c>
    75f8:	82 e0       	ldi	r24, 0x02	; 2
    75fa:	8b b9       	out	0x0b, r24	; 11
    75fc:	3f 77       	andi	r19, 0x7F	; 127
    75fe:	30 bd       	out	0x20, r19	; 32
    7600:	29 b9       	out	0x09, r18	; 9
    7602:	88 e9       	ldi	r24, 0x98	; 152
    7604:	8a b9       	out	0x0a, r24	; 10
    7606:	86 e8       	ldi	r24, 0x86	; 134
    7608:	80 bd       	out	0x20, r24	; 32
    760a:	08 95       	ret

0000760c <uart_getc>:
    760c:	90 91 34 01 	lds	r25, 0x0134
    7610:	80 91 35 01 	lds	r24, 0x0135
    7614:	98 17       	cp	r25, r24
    7616:	19 f4       	brne	.+6      	; 0x761e <uart_getc+0x12>
    7618:	20 e0       	ldi	r18, 0x00	; 0
    761a:	31 e0       	ldi	r19, 0x01	; 1
    761c:	12 c0       	rjmp	.+36     	; 0x7642 <uart_getc+0x36>
    761e:	e0 91 35 01 	lds	r30, 0x0135
    7622:	ef 5f       	subi	r30, 0xFF	; 255
    7624:	ef 71       	andi	r30, 0x1F	; 31
    7626:	e0 93 35 01 	sts	0x0135, r30
    762a:	f0 e0       	ldi	r31, 0x00	; 0
    762c:	ee 5e       	subi	r30, 0xEE	; 238
    762e:	fe 4f       	sbci	r31, 0xFE	; 254
    7630:	30 81       	ld	r19, Z
    7632:	20 91 36 01 	lds	r18, 0x0136
    7636:	92 2f       	mov	r25, r18
    7638:	80 e0       	ldi	r24, 0x00	; 0
    763a:	ac 01       	movw	r20, r24
    763c:	43 0f       	add	r20, r19
    763e:	51 1d       	adc	r21, r1
    7640:	9a 01       	movw	r18, r20
    7642:	c9 01       	movw	r24, r18
    7644:	08 95       	ret

00007646 <uart_putc>:
    7646:	28 2f       	mov	r18, r24
    7648:	90 91 32 01 	lds	r25, 0x0132
    764c:	9f 5f       	subi	r25, 0xFF	; 255
    764e:	9f 71       	andi	r25, 0x1F	; 31
    7650:	80 91 33 01 	lds	r24, 0x0133
    7654:	98 17       	cp	r25, r24
    7656:	e1 f3       	breq	.-8      	; 0x7650 <uart_putc+0xa>
    7658:	e9 2f       	mov	r30, r25
    765a:	f0 e0       	ldi	r31, 0x00	; 0
    765c:	ee 50       	subi	r30, 0x0E	; 14
    765e:	ff 4f       	sbci	r31, 0xFF	; 255
    7660:	20 83       	st	Z, r18
    7662:	90 93 32 01 	sts	0x0132, r25
    7666:	55 9a       	sbi	0x0a, 5	; 10
    7668:	08 95       	ret

0000766a <uart_puts>:
    766a:	cf 93       	push	r28
    766c:	df 93       	push	r29
    766e:	ec 01       	movw	r28, r24
    7670:	03 c0       	rjmp	.+6      	; 0x7678 <uart_puts+0xe>
    7672:	21 96       	adiw	r28, 0x01	; 1
    7674:	0e 94 23 3b 	call	0x7646	; 0x7646 <uart_putc>
    7678:	88 81       	ld	r24, Y
    767a:	88 23       	and	r24, r24
    767c:	d1 f7       	brne	.-12     	; 0x7672 <uart_puts+0x8>
    767e:	df 91       	pop	r29
    7680:	cf 91       	pop	r28
    7682:	08 95       	ret

00007684 <uart_puts_p>:
    7684:	cf 93       	push	r28
    7686:	df 93       	push	r29
    7688:	ec 01       	movw	r28, r24
    768a:	02 c0       	rjmp	.+4      	; 0x7690 <uart_puts_p+0xc>
    768c:	0e 94 23 3b 	call	0x7646	; 0x7646 <uart_putc>
    7690:	fe 01       	movw	r30, r28
    7692:	21 96       	adiw	r28, 0x01	; 1
    7694:	84 91       	lpm	r24, Z+
    7696:	88 23       	and	r24, r24
    7698:	c9 f7       	brne	.-14     	; 0x768c <uart_puts_p+0x8>
    769a:	df 91       	pop	r29
    769c:	cf 91       	pop	r28
    769e:	08 95       	ret

000076a0 <_exit>:
    76a0:	f8 94       	cli

000076a2 <__stop_program>:
    76a2:	ff cf       	rjmp	.-2      	; 0x76a2 <__stop_program>
