
rfid-reader.elf:     file format elf32-avr

Sections:
Idx Name          Size      VMA       LMA       File off  Algn
  0 .text         000007d2  00000000  00000000  00000094  2**1
                  CONTENTS, ALLOC, LOAD, READONLY, CODE
  1 .bss          00000013  00800060  00800060  00000866  2**0
                  ALLOC
  2 .eeprom       0000006f  00810000  00810000  00000866  2**0
                  CONTENTS, ALLOC, LOAD, DATA

Disassembly of section .text:

00000000 <__vectors>:
   0:	12 c0       	rjmp	.+36     	; 0x26 <__ctors_end>
   2:	2a c0       	rjmp	.+84     	; 0x58 <__bad_interrupt>
   4:	2a c0       	rjmp	.+84     	; 0x5a <__vector_2>
   6:	28 c0       	rjmp	.+80     	; 0x58 <__bad_interrupt>
   8:	27 c0       	rjmp	.+78     	; 0x58 <__bad_interrupt>
   a:	26 c0       	rjmp	.+76     	; 0x58 <__bad_interrupt>
   c:	25 c0       	rjmp	.+74     	; 0x58 <__bad_interrupt>
   e:	24 c0       	rjmp	.+72     	; 0x58 <__bad_interrupt>
  10:	23 c0       	rjmp	.+70     	; 0x58 <__bad_interrupt>
  12:	22 c0       	rjmp	.+68     	; 0x58 <__bad_interrupt>
  14:	21 c0       	rjmp	.+66     	; 0x58 <__bad_interrupt>
  16:	20 c0       	rjmp	.+64     	; 0x58 <__bad_interrupt>
  18:	1f c0       	rjmp	.+62     	; 0x58 <__bad_interrupt>
  1a:	1e c0       	rjmp	.+60     	; 0x58 <__bad_interrupt>
  1c:	1d c0       	rjmp	.+58     	; 0x58 <__bad_interrupt>
  1e:	1c c0       	rjmp	.+56     	; 0x58 <__bad_interrupt>
  20:	1b c0       	rjmp	.+54     	; 0x58 <__bad_interrupt>
  22:	1a c0       	rjmp	.+52     	; 0x58 <__bad_interrupt>
  24:	19 c0       	rjmp	.+50     	; 0x58 <__bad_interrupt>

00000026 <__ctors_end>:
  26:	11 24       	eor	r1, r1
  28:	1f be       	out	0x3f, r1	; 63
  2a:	cf ed       	ldi	r28, 0xDF	; 223
  2c:	cd bf       	out	0x3d, r28	; 61

0000002e <__do_copy_data>:
  2e:	10 e0       	ldi	r17, 0x00	; 0
  30:	a0 e6       	ldi	r26, 0x60	; 96
  32:	b0 e0       	ldi	r27, 0x00	; 0
  34:	e2 ed       	ldi	r30, 0xD2	; 210
  36:	f7 e0       	ldi	r31, 0x07	; 7
  38:	02 c0       	rjmp	.+4      	; 0x3e <.do_copy_data_start>

0000003a <.do_copy_data_loop>:
  3a:	05 90       	lpm	r0, Z+
  3c:	0d 92       	st	X+, r0

0000003e <.do_copy_data_start>:
  3e:	a0 36       	cpi	r26, 0x60	; 96
  40:	b1 07       	cpc	r27, r17
  42:	d9 f7       	brne	.-10     	; 0x3a <.do_copy_data_loop>

00000044 <__do_clear_bss>:
  44:	10 e0       	ldi	r17, 0x00	; 0
  46:	a0 e6       	ldi	r26, 0x60	; 96
  48:	b0 e0       	ldi	r27, 0x00	; 0
  4a:	01 c0       	rjmp	.+2      	; 0x4e <.do_clear_bss_start>

0000004c <.do_clear_bss_loop>:
  4c:	1d 92       	st	X+, r1

0000004e <.do_clear_bss_start>:
  4e:	a3 37       	cpi	r26, 0x73	; 115
  50:	b1 07       	cpc	r27, r17
  52:	e1 f7       	brne	.-8      	; 0x4c <.do_clear_bss_loop>
  54:	c0 d2       	rcall	.+1408   	; 0x5d6 <main>
  56:	bb c3       	rjmp	.+1910   	; 0x7ce <_exit>

00000058 <__bad_interrupt>:
  58:	d3 cf       	rjmp	.-90     	; 0x0 <__vectors>

0000005a <__vector_2>:
  5a:	1f 92       	push	r1
  5c:	0f 92       	push	r0
  5e:	0f b6       	in	r0, 0x3f	; 63
  60:	0f 92       	push	r0
  62:	11 24       	eor	r1, r1
  64:	2f 93       	push	r18
  66:	3f 93       	push	r19
  68:	4f 93       	push	r20
  6a:	5f 93       	push	r21
  6c:	6f 93       	push	r22
  6e:	7f 93       	push	r23
  70:	8f 93       	push	r24
  72:	9f 93       	push	r25
  74:	ef 93       	push	r30
  76:	ff 93       	push	r31
  78:	82 b7       	in	r24, 0x32	; 50
  7a:	90 91 65 00 	lds	r25, 0x0065
  7e:	89 1b       	sub	r24, r25
  80:	81 33       	cpi	r24, 0x31	; 49
  82:	08 f4       	brcc	.+2      	; 0x86 <__vector_2+0x2c>
  84:	ba c0       	rjmp	.+372    	; 0x1fa <__stack+0x11b>
  86:	82 b7       	in	r24, 0x32	; 50
  88:	80 93 65 00 	sts	0x0065, r24
  8c:	20 91 68 00 	lds	r18, 0x0068
  90:	30 91 69 00 	lds	r19, 0x0069
  94:	22 0f       	add	r18, r18
  96:	33 1f       	adc	r19, r19
  98:	30 93 69 00 	sts	0x0069, r19
  9c:	20 93 68 00 	sts	0x0068, r18
  a0:	80 91 67 00 	lds	r24, 0x0067
  a4:	8f 5f       	subi	r24, 0xFF	; 255
  a6:	80 93 67 00 	sts	0x0067, r24
  aa:	83 99       	sbic	0x10, 3	; 16
  ac:	05 c0       	rjmp	.+10     	; 0xb8 <__vector_2+0x5e>
  ae:	21 60       	ori	r18, 0x01	; 1
  b0:	30 93 69 00 	sts	0x0069, r19
  b4:	20 93 68 00 	sts	0x0068, r18
  b8:	40 91 68 00 	lds	r20, 0x0068
  bc:	50 91 69 00 	lds	r21, 0x0069
  c0:	ca 01       	movw	r24, r20
  c2:	93 70       	andi	r25, 0x03	; 3
  c4:	8f 5f       	subi	r24, 0xFF	; 255
  c6:	91 40       	sbci	r25, 0x01	; 1
  c8:	91 f4       	brne	.+36     	; 0xee <__stack+0xf>
  ca:	8f ef       	ldi	r24, 0xFF	; 255
  cc:	80 93 6a 00 	sts	0x006A, r24
  d0:	81 e0       	ldi	r24, 0x01	; 1
  d2:	80 93 67 00 	sts	0x0067, r24
  d6:	80 93 66 00 	sts	0x0066, r24
  da:	10 92 64 00 	sts	0x0064, r1
  de:	10 92 63 00 	sts	0x0063, r1
  e2:	10 92 62 00 	sts	0x0062, r1
  e6:	10 92 61 00 	sts	0x0061, r1
  ea:	10 92 60 00 	sts	0x0060, r1
  ee:	80 91 66 00 	lds	r24, 0x0066
  f2:	88 23       	and	r24, r24
  f4:	09 f4       	brne	.+2      	; 0xf8 <__stack+0x19>
  f6:	81 c0       	rjmp	.+258    	; 0x1fa <__stack+0x11b>
  f8:	30 91 67 00 	lds	r19, 0x0067
  fc:	83 2f       	mov	r24, r19
  fe:	65 e0       	ldi	r22, 0x05	; 5
 100:	3c d3       	rcall	.+1656   	; 0x77a <__udivmodqi4>
 102:	24 2f       	mov	r18, r20
 104:	21 70       	andi	r18, 0x01	; 1
 106:	33 33       	cpi	r19, 0x33	; 51
 108:	38 f5       	brcc	.+78     	; 0x158 <__stack+0x79>
 10a:	91 30       	cpi	r25, 0x01	; 1
 10c:	a9 f0       	breq	.+42     	; 0x138 <__stack+0x59>
 10e:	80 91 64 00 	lds	r24, 0x0064
 112:	82 27       	eor	r24, r18
 114:	80 93 64 00 	sts	0x0064, r24
 118:	92 30       	cpi	r25, 0x02	; 2
 11a:	31 f4       	brne	.+12     	; 0x128 <__stack+0x49>
 11c:	80 91 63 00 	lds	r24, 0x0063
 120:	82 27       	eor	r24, r18
 122:	80 93 63 00 	sts	0x0063, r24
 126:	26 c0       	rjmp	.+76     	; 0x174 <__stack+0x95>
 128:	93 30       	cpi	r25, 0x03	; 3
 12a:	31 f4       	brne	.+12     	; 0x138 <__stack+0x59>
 12c:	80 91 62 00 	lds	r24, 0x0062
 130:	82 27       	eor	r24, r18
 132:	80 93 62 00 	sts	0x0062, r24
 136:	1e c0       	rjmp	.+60     	; 0x174 <__stack+0x95>
 138:	94 30       	cpi	r25, 0x04	; 4
 13a:	31 f4       	brne	.+12     	; 0x148 <__stack+0x69>
 13c:	80 91 61 00 	lds	r24, 0x0061
 140:	82 27       	eor	r24, r18
 142:	80 93 61 00 	sts	0x0061, r24
 146:	21 c0       	rjmp	.+66     	; 0x18a <__stack+0xab>
 148:	99 23       	and	r25, r25
 14a:	31 f4       	brne	.+12     	; 0x158 <__stack+0x79>
 14c:	80 91 60 00 	lds	r24, 0x0060
 150:	82 27       	eor	r24, r18
 152:	80 93 60 00 	sts	0x0060, r24
 156:	19 c0       	rjmp	.+50     	; 0x18a <__stack+0xab>
 158:	91 30       	cpi	r25, 0x01	; 1
 15a:	61 f4       	brne	.+24     	; 0x174 <__stack+0x95>
 15c:	36 30       	cpi	r19, 0x06	; 6
 15e:	50 f0       	brcs	.+20     	; 0x174 <__stack+0x95>
 160:	34 33       	cpi	r19, 0x34	; 52
 162:	40 f4       	brcc	.+16     	; 0x174 <__stack+0x95>
 164:	80 91 64 00 	lds	r24, 0x0064
 168:	82 17       	cp	r24, r18
 16a:	11 f0       	breq	.+4      	; 0x170 <__stack+0x91>
 16c:	10 92 66 00 	sts	0x0066, r1
 170:	10 92 64 00 	sts	0x0064, r1
 174:	34 33       	cpi	r19, 0x34	; 52
 176:	49 f4       	brne	.+18     	; 0x18a <__stack+0xab>
 178:	80 91 63 00 	lds	r24, 0x0063
 17c:	82 17       	cp	r24, r18
 17e:	11 f0       	breq	.+4      	; 0x184 <__stack+0xa5>
 180:	10 92 66 00 	sts	0x0066, r1
 184:	10 92 63 00 	sts	0x0063, r1
 188:	20 c0       	rjmp	.+64     	; 0x1ca <__stack+0xeb>
 18a:	35 33       	cpi	r19, 0x35	; 53
 18c:	49 f4       	brne	.+18     	; 0x1a0 <__stack+0xc1>
 18e:	80 91 62 00 	lds	r24, 0x0062
 192:	82 17       	cp	r24, r18
 194:	11 f0       	breq	.+4      	; 0x19a <__stack+0xbb>
 196:	10 92 66 00 	sts	0x0066, r1
 19a:	10 92 62 00 	sts	0x0062, r1
 19e:	15 c0       	rjmp	.+42     	; 0x1ca <__stack+0xeb>
 1a0:	36 33       	cpi	r19, 0x36	; 54
 1a2:	49 f4       	brne	.+18     	; 0x1b6 <__stack+0xd7>
 1a4:	80 91 61 00 	lds	r24, 0x0061
 1a8:	82 17       	cp	r24, r18
 1aa:	11 f0       	breq	.+4      	; 0x1b0 <__stack+0xd1>
 1ac:	10 92 66 00 	sts	0x0066, r1
 1b0:	10 92 61 00 	sts	0x0061, r1
 1b4:	0a c0       	rjmp	.+20     	; 0x1ca <__stack+0xeb>
 1b6:	37 33       	cpi	r19, 0x37	; 55
 1b8:	41 f4       	brne	.+16     	; 0x1ca <__stack+0xeb>
 1ba:	80 91 60 00 	lds	r24, 0x0060
 1be:	82 17       	cp	r24, r18
 1c0:	11 f0       	breq	.+4      	; 0x1c6 <__stack+0xe7>
 1c2:	10 92 66 00 	sts	0x0066, r1
 1c6:	10 92 60 00 	sts	0x0060, r1
 1ca:	83 2f       	mov	r24, r19
 1cc:	90 e0       	ldi	r25, 0x00	; 0
 1ce:	87 70       	andi	r24, 0x07	; 7
 1d0:	90 70       	andi	r25, 0x00	; 0
 1d2:	89 2b       	or	r24, r25
 1d4:	91 f4       	brne	.+36     	; 0x1fa <__stack+0x11b>
 1d6:	e3 2f       	mov	r30, r19
 1d8:	e6 95       	lsr	r30
 1da:	e6 95       	lsr	r30
 1dc:	e6 95       	lsr	r30
 1de:	f0 e0       	ldi	r31, 0x00	; 0
 1e0:	e6 59       	subi	r30, 0x96	; 150
 1e2:	ff 4f       	sbci	r31, 0xFF	; 255
 1e4:	40 83       	st	Z, r20
 1e6:	38 33       	cpi	r19, 0x38	; 56
 1e8:	41 f4       	brne	.+16     	; 0x1fa <__stack+0x11b>
 1ea:	81 e0       	ldi	r24, 0x01	; 1
 1ec:	80 93 72 00 	sts	0x0072, r24
 1f0:	10 92 66 00 	sts	0x0066, r1
 1f4:	8b b7       	in	r24, 0x3b	; 59
 1f6:	8f 77       	andi	r24, 0x7F	; 127
 1f8:	8b bf       	out	0x3b, r24	; 59
 1fa:	ff 91       	pop	r31
 1fc:	ef 91       	pop	r30
 1fe:	9f 91       	pop	r25
 200:	8f 91       	pop	r24
 202:	7f 91       	pop	r23
 204:	6f 91       	pop	r22
 206:	5f 91       	pop	r21
 208:	4f 91       	pop	r20
 20a:	3f 91       	pop	r19
 20c:	2f 91       	pop	r18
 20e:	0f 90       	pop	r0
 210:	0f be       	out	0x3f, r0	; 63
 212:	0f 90       	pop	r0
 214:	1f 90       	pop	r1
 216:	18 95       	reti

00000218 <u2270_read_tag>:
 218:	0f 93       	push	r16
 21a:	1f 93       	push	r17
 21c:	df 93       	push	r29
 21e:	cf 93       	push	r28
 220:	cd b7       	in	r28, 0x3d	; 61
 222:	de b7       	in	r29, 0x3e	; 62
 224:	28 97       	sbiw	r28, 0x08	; 8
 226:	0f b6       	in	r0, 0x3f	; 63
 228:	f8 94       	cli
 22a:	de bf       	out	0x3e, r29	; 62
 22c:	0f be       	out	0x3f, r0	; 63
 22e:	cd bf       	out	0x3d, r28	; 61
 230:	8c 01       	movw	r16, r24
 232:	92 e3       	ldi	r25, 0x32	; 50
 234:	08 b6       	in	r0, 0x38	; 56
 236:	01 fe       	sbrs	r0, 1
 238:	04 c0       	rjmp	.+8      	; 0x242 <u2270_read_tag+0x2a>
 23a:	91 50       	subi	r25, 0x01	; 1
 23c:	88 b7       	in	r24, 0x38	; 56
 23e:	82 60       	ori	r24, 0x02	; 2
 240:	88 bf       	out	0x38, r24	; 56
 242:	80 91 72 00 	lds	r24, 0x0072
 246:	88 23       	and	r24, r24
 248:	11 f4       	brne	.+4      	; 0x24e <u2270_read_tag+0x36>
 24a:	99 23       	and	r25, r25
 24c:	99 f7       	brne	.-26     	; 0x234 <u2270_read_tag+0x1c>
 24e:	80 91 72 00 	lds	r24, 0x0072
 252:	88 23       	and	r24, r24
 254:	09 f4       	brne	.+2      	; 0x258 <u2270_read_tag+0x40>
 256:	84 c0       	rjmp	.+264    	; 0x360 <u2270_read_tag+0x148>
 258:	10 92 72 00 	sts	0x0072, r1
 25c:	de 01       	movw	r26, r28
 25e:	11 96       	adiw	r26, 0x01	; 1
 260:	ea e6       	ldi	r30, 0x6A	; 106
 262:	f0 e0       	ldi	r31, 0x00	; 0
 264:	88 e0       	ldi	r24, 0x08	; 8
 266:	01 90       	ld	r0, Z+
 268:	0d 92       	st	X+, r0
 26a:	81 50       	subi	r24, 0x01	; 1
 26c:	e1 f7       	brne	.-8      	; 0x266 <u2270_read_tag+0x4e>
 26e:	88 e0       	ldi	r24, 0x08	; 8
 270:	ea e6       	ldi	r30, 0x6A	; 106
 272:	f0 e0       	ldi	r31, 0x00	; 0
 274:	df 01       	movw	r26, r30
 276:	1d 92       	st	X+, r1
 278:	8a 95       	dec	r24
 27a:	e9 f7       	brne	.-6      	; 0x276 <u2270_read_tag+0x5e>
 27c:	8b b7       	in	r24, 0x3b	; 59
 27e:	80 68       	ori	r24, 0x80	; 128
 280:	8b bf       	out	0x3b, r24	; 59
 282:	8a 81       	ldd	r24, Y+2	; 0x02
 284:	28 2f       	mov	r18, r24
 286:	30 e0       	ldi	r19, 0x00	; 0
 288:	99 81       	ldd	r25, Y+1	; 0x01
 28a:	80 e0       	ldi	r24, 0x00	; 0
 28c:	82 2b       	or	r24, r18
 28e:	93 2b       	or	r25, r19
 290:	80 78       	andi	r24, 0x80	; 128
 292:	80 58       	subi	r24, 0x80	; 128
 294:	9f 4f       	sbci	r25, 0xFF	; 255
 296:	09 f0       	breq	.+2      	; 0x29a <u2270_read_tag+0x82>
 298:	63 c0       	rjmp	.+198    	; 0x360 <u2270_read_tag+0x148>
 29a:	78 85       	ldd	r23, Y+8	; 0x08
 29c:	70 fd       	sbrc	r23, 0
 29e:	60 c0       	rjmp	.+192    	; 0x360 <u2270_read_tag+0x148>
 2a0:	c9 01       	movw	r24, r18
 2a2:	88 77       	andi	r24, 0x78	; 120
 2a4:	90 70       	andi	r25, 0x00	; 0
 2a6:	88 0f       	add	r24, r24
 2a8:	99 1f       	adc	r25, r25
 2aa:	23 70       	andi	r18, 0x03	; 3
 2ac:	30 70       	andi	r19, 0x00	; 0
 2ae:	22 0f       	add	r18, r18
 2b0:	33 1f       	adc	r19, r19
 2b2:	22 0f       	add	r18, r18
 2b4:	33 1f       	adc	r19, r19
 2b6:	82 2b       	or	r24, r18
 2b8:	2b 81       	ldd	r18, Y+3	; 0x03
 2ba:	42 2f       	mov	r20, r18
 2bc:	42 95       	swap	r20
 2be:	46 95       	lsr	r20
 2c0:	46 95       	lsr	r20
 2c2:	43 70       	andi	r20, 0x03	; 3
 2c4:	84 2b       	or	r24, r20
 2c6:	f8 01       	movw	r30, r16
 2c8:	80 83       	st	Z, r24
 2ca:	30 e0       	ldi	r19, 0x00	; 0
 2cc:	2e 71       	andi	r18, 0x1E	; 30
 2ce:	30 70       	andi	r19, 0x00	; 0
 2d0:	13 e0       	ldi	r17, 0x03	; 3
 2d2:	22 0f       	add	r18, r18
 2d4:	33 1f       	adc	r19, r19
 2d6:	1a 95       	dec	r17
 2d8:	e1 f7       	brne	.-8      	; 0x2d2 <u2270_read_tag+0xba>
 2da:	6c 81       	ldd	r22, Y+4	; 0x04
 2dc:	86 2f       	mov	r24, r22
 2de:	82 95       	swap	r24
 2e0:	8f 70       	andi	r24, 0x0F	; 15
 2e2:	82 2b       	or	r24, r18
 2e4:	81 83       	std	Z+1, r24	; 0x01
 2e6:	4d 81       	ldd	r20, Y+5	; 0x05
 2e8:	50 e0       	ldi	r21, 0x00	; 0
 2ea:	9a 01       	movw	r18, r20
 2ec:	20 78       	andi	r18, 0x80	; 128
 2ee:	30 70       	andi	r19, 0x00	; 0
 2f0:	b3 e0       	ldi	r27, 0x03	; 3
 2f2:	35 95       	asr	r19
 2f4:	27 95       	ror	r18
 2f6:	ba 95       	dec	r27
 2f8:	e1 f7       	brne	.-8      	; 0x2f2 <u2270_read_tag+0xda>
 2fa:	ca 01       	movw	r24, r20
 2fc:	8c 73       	andi	r24, 0x3C	; 60
 2fe:	90 70       	andi	r25, 0x00	; 0
 300:	95 95       	asr	r25
 302:	87 95       	ror	r24
 304:	95 95       	asr	r25
 306:	87 95       	ror	r24
 308:	28 2b       	or	r18, r24
 30a:	62 95       	swap	r22
 30c:	66 0f       	add	r22, r22
 30e:	60 7e       	andi	r22, 0xE0	; 224
 310:	62 2b       	or	r22, r18
 312:	62 83       	std	Z+2, r22	; 0x02
 314:	8e 81       	ldd	r24, Y+6	; 0x06
 316:	56 95       	lsr	r21
 318:	54 2f       	mov	r21, r20
 31a:	44 27       	eor	r20, r20
 31c:	57 95       	ror	r21
 31e:	47 95       	ror	r20
 320:	28 2f       	mov	r18, r24
 322:	2f 70       	andi	r18, 0x0F	; 15
 324:	24 2b       	or	r18, r20
 326:	90 e0       	ldi	r25, 0x00	; 0
 328:	80 7e       	andi	r24, 0xE0	; 224
 32a:	90 70       	andi	r25, 0x00	; 0
 32c:	95 95       	asr	r25
 32e:	87 95       	ror	r24
 330:	28 2b       	or	r18, r24
 332:	23 83       	std	Z+3, r18	; 0x03
 334:	8f 81       	ldd	r24, Y+7	; 0x07
 336:	90 e0       	ldi	r25, 0x00	; 0
 338:	9c 01       	movw	r18, r24
 33a:	28 77       	andi	r18, 0x78	; 120
 33c:	30 70       	andi	r19, 0x00	; 0
 33e:	22 0f       	add	r18, r18
 340:	33 1f       	adc	r19, r19
 342:	83 70       	andi	r24, 0x03	; 3
 344:	90 70       	andi	r25, 0x00	; 0
 346:	88 0f       	add	r24, r24
 348:	99 1f       	adc	r25, r25
 34a:	88 0f       	add	r24, r24
 34c:	99 1f       	adc	r25, r25
 34e:	28 2b       	or	r18, r24
 350:	72 95       	swap	r23
 352:	76 95       	lsr	r23
 354:	76 95       	lsr	r23
 356:	73 70       	andi	r23, 0x03	; 3
 358:	27 2b       	or	r18, r23
 35a:	24 83       	std	Z+4, r18	; 0x04
 35c:	81 e0       	ldi	r24, 0x01	; 1
 35e:	01 c0       	rjmp	.+2      	; 0x362 <u2270_read_tag+0x14a>
 360:	80 e0       	ldi	r24, 0x00	; 0
 362:	28 96       	adiw	r28, 0x08	; 8
 364:	0f b6       	in	r0, 0x3f	; 63
 366:	f8 94       	cli
 368:	de bf       	out	0x3e, r29	; 62
 36a:	0f be       	out	0x3f, r0	; 63
 36c:	cd bf       	out	0x3d, r28	; 61
 36e:	cf 91       	pop	r28
 370:	df 91       	pop	r29
 372:	1f 91       	pop	r17
 374:	0f 91       	pop	r16
 376:	08 95       	ret

00000378 <lcd_data>:
 378:	c5 9a       	sbi	0x18, 5	; 24
 37a:	98 b3       	in	r25, 0x18	; 24
 37c:	90 7f       	andi	r25, 0xF0	; 240
 37e:	98 bb       	out	0x18, r25	; 24
 380:	28 b3       	in	r18, 0x18	; 24
 382:	98 2f       	mov	r25, r24
 384:	92 95       	swap	r25
 386:	9f 70       	andi	r25, 0x0F	; 15
 388:	92 2b       	or	r25, r18
 38a:	98 bb       	out	0x18, r25	; 24
 38c:	c4 9a       	sbi	0x18, 4	; 24
 38e:	22 e0       	ldi	r18, 0x02	; 2
 390:	92 2f       	mov	r25, r18
 392:	9a 95       	dec	r25
 394:	f1 f7       	brne	.-4      	; 0x392 <lcd_data+0x1a>
 396:	c4 98       	cbi	0x18, 4	; 24
 398:	98 b3       	in	r25, 0x18	; 24
 39a:	90 7f       	andi	r25, 0xF0	; 240
 39c:	98 bb       	out	0x18, r25	; 24
 39e:	98 b3       	in	r25, 0x18	; 24
 3a0:	8f 70       	andi	r24, 0x0F	; 15
 3a2:	98 2b       	or	r25, r24
 3a4:	98 bb       	out	0x18, r25	; 24
 3a6:	c4 9a       	sbi	0x18, 4	; 24
 3a8:	2a 95       	dec	r18
 3aa:	f1 f7       	brne	.-4      	; 0x3a8 <lcd_data+0x30>
 3ac:	c4 98       	cbi	0x18, 4	; 24
 3ae:	84 ee       	ldi	r24, 0xE4	; 228
 3b0:	91 e0       	ldi	r25, 0x01	; 1
 3b2:	01 97       	sbiw	r24, 0x01	; 1
 3b4:	f1 f7       	brne	.-4      	; 0x3b2 <lcd_data+0x3a>
 3b6:	08 95       	ret

000003b8 <lcd_command>:
 3b8:	c5 98       	cbi	0x18, 5	; 24
 3ba:	98 b3       	in	r25, 0x18	; 24
 3bc:	90 7f       	andi	r25, 0xF0	; 240
 3be:	98 bb       	out	0x18, r25	; 24
 3c0:	28 b3       	in	r18, 0x18	; 24
 3c2:	98 2f       	mov	r25, r24
 3c4:	92 95       	swap	r25
 3c6:	9f 70       	andi	r25, 0x0F	; 15
 3c8:	92 2b       	or	r25, r18
 3ca:	98 bb       	out	0x18, r25	; 24
 3cc:	c4 9a       	sbi	0x18, 4	; 24
 3ce:	22 e0       	ldi	r18, 0x02	; 2
 3d0:	92 2f       	mov	r25, r18
 3d2:	9a 95       	dec	r25
 3d4:	f1 f7       	brne	.-4      	; 0x3d2 <lcd_command+0x1a>
 3d6:	c4 98       	cbi	0x18, 4	; 24
 3d8:	98 b3       	in	r25, 0x18	; 24
 3da:	90 7f       	andi	r25, 0xF0	; 240
 3dc:	98 bb       	out	0x18, r25	; 24
 3de:	98 b3       	in	r25, 0x18	; 24
 3e0:	8f 70       	andi	r24, 0x0F	; 15
 3e2:	98 2b       	or	r25, r24
 3e4:	98 bb       	out	0x18, r25	; 24
 3e6:	c4 9a       	sbi	0x18, 4	; 24
 3e8:	2a 95       	dec	r18
 3ea:	f1 f7       	brne	.-4      	; 0x3e8 <lcd_command+0x30>
 3ec:	c4 98       	cbi	0x18, 4	; 24
 3ee:	80 e7       	ldi	r24, 0x70	; 112
 3f0:	8a 95       	dec	r24
 3f2:	f1 f7       	brne	.-4      	; 0x3f0 <lcd_command+0x38>
 3f4:	08 95       	ret

000003f6 <lcd_enable>:
 3f6:	c4 9a       	sbi	0x18, 4	; 24
 3f8:	82 e0       	ldi	r24, 0x02	; 2
 3fa:	8a 95       	dec	r24
 3fc:	f1 f7       	brne	.-4      	; 0x3fa <lcd_enable+0x4>
 3fe:	c4 98       	cbi	0x18, 4	; 24
 400:	08 95       	ret

00000402 <lcd_init>:
 402:	87 b3       	in	r24, 0x17	; 23
 404:	8f 63       	ori	r24, 0x3F	; 63
 406:	87 bb       	out	0x17, r24	; 23
 408:	80 e3       	ldi	r24, 0x30	; 48
 40a:	95 e7       	ldi	r25, 0x75	; 117
 40c:	01 97       	sbiw	r24, 0x01	; 1
 40e:	f1 f7       	brne	.-4      	; 0x40c <lcd_init+0xa>
 410:	88 b3       	in	r24, 0x18	; 24
 412:	80 7f       	andi	r24, 0xF0	; 240
 414:	88 bb       	out	0x18, r24	; 24
 416:	88 b3       	in	r24, 0x18	; 24
 418:	83 60       	ori	r24, 0x03	; 3
 41a:	88 bb       	out	0x18, r24	; 24
 41c:	c5 98       	cbi	0x18, 5	; 24
 41e:	c4 9a       	sbi	0x18, 4	; 24
 420:	92 e0       	ldi	r25, 0x02	; 2
 422:	89 2f       	mov	r24, r25
 424:	8a 95       	dec	r24
 426:	f1 f7       	brne	.-4      	; 0x424 <lcd_init+0x22>
 428:	c4 98       	cbi	0x18, 4	; 24
 42a:	e0 e1       	ldi	r30, 0x10	; 16
 42c:	f7 e2       	ldi	r31, 0x27	; 39
 42e:	31 97       	sbiw	r30, 0x01	; 1
 430:	f1 f7       	brne	.-4      	; 0x42e <lcd_init+0x2c>
 432:	c4 9a       	sbi	0x18, 4	; 24
 434:	89 2f       	mov	r24, r25
 436:	8a 95       	dec	r24
 438:	f1 f7       	brne	.-4      	; 0x436 <lcd_init+0x34>
 43a:	c4 98       	cbi	0x18, 4	; 24
 43c:	20 ed       	ldi	r18, 0xD0	; 208
 43e:	37 e0       	ldi	r19, 0x07	; 7
 440:	f9 01       	movw	r30, r18
 442:	31 97       	sbiw	r30, 0x01	; 1
 444:	f1 f7       	brne	.-4      	; 0x442 <lcd_init+0x40>
 446:	c4 9a       	sbi	0x18, 4	; 24
 448:	89 2f       	mov	r24, r25
 44a:	8a 95       	dec	r24
 44c:	f1 f7       	brne	.-4      	; 0x44a <lcd_init+0x48>
 44e:	c4 98       	cbi	0x18, 4	; 24
 450:	f9 01       	movw	r30, r18
 452:	31 97       	sbiw	r30, 0x01	; 1
 454:	f1 f7       	brne	.-4      	; 0x452 <lcd_init+0x50>
 456:	88 b3       	in	r24, 0x18	; 24
 458:	80 7f       	andi	r24, 0xF0	; 240
 45a:	88 bb       	out	0x18, r24	; 24
 45c:	c1 9a       	sbi	0x18, 1	; 24
 45e:	c4 9a       	sbi	0x18, 4	; 24
 460:	9a 95       	dec	r25
 462:	f1 f7       	brne	.-4      	; 0x460 <lcd_init+0x5e>
 464:	c4 98       	cbi	0x18, 4	; 24
 466:	c9 01       	movw	r24, r18
 468:	01 97       	sbiw	r24, 0x01	; 1
 46a:	f1 f7       	brne	.-4      	; 0x468 <lcd_init+0x66>
 46c:	88 e2       	ldi	r24, 0x28	; 40
 46e:	a4 df       	rcall	.-184    	; 0x3b8 <lcd_command>
 470:	8c e0       	ldi	r24, 0x0C	; 12
 472:	a2 df       	rcall	.-188    	; 0x3b8 <lcd_command>
 474:	86 e0       	ldi	r24, 0x06	; 6
 476:	a0 df       	rcall	.-192    	; 0x3b8 <lcd_command>
 478:	08 95       	ret

0000047a <checkKey>:
 47a:	ef 92       	push	r14
 47c:	ff 92       	push	r15
 47e:	0f 93       	push	r16
 480:	1f 93       	push	r17
 482:	cf 93       	push	r28
 484:	df 93       	push	r29
 486:	8c 01       	movw	r16, r24
 488:	fc 01       	movw	r30, r24
 48a:	e0 80       	ld	r14, Z
 48c:	ee 20       	and	r14, r14
 48e:	61 f4       	brne	.+24     	; 0x4a8 <checkKey+0x2e>
 490:	81 81       	ldd	r24, Z+1	; 0x01
 492:	88 23       	and	r24, r24
 494:	49 f4       	brne	.+18     	; 0x4a8 <checkKey+0x2e>
 496:	82 81       	ldd	r24, Z+2	; 0x02
 498:	88 23       	and	r24, r24
 49a:	31 f4       	brne	.+12     	; 0x4a8 <checkKey+0x2e>
 49c:	83 81       	ldd	r24, Z+3	; 0x03
 49e:	88 23       	and	r24, r24
 4a0:	19 f4       	brne	.+6      	; 0x4a8 <checkKey+0x2e>
 4a2:	84 81       	ldd	r24, Z+4	; 0x04
 4a4:	88 23       	and	r24, r24
 4a6:	59 f1       	breq	.+86     	; 0x4fe <checkKey+0x84>
 4a8:	c0 e0       	ldi	r28, 0x00	; 0
 4aa:	d0 e0       	ldi	r29, 0x00	; 0
 4ac:	ff 24       	eor	r15, r15
 4ae:	ce 01       	movw	r24, r28
 4b0:	70 d1       	rcall	.+736    	; 0x792 <__eerd_byte_tn2313>
 4b2:	e8 16       	cp	r14, r24
 4b4:	f9 f4       	brne	.+62     	; 0x4f4 <checkKey+0x7a>
 4b6:	ce 01       	movw	r24, r28
 4b8:	01 96       	adiw	r24, 0x01	; 1
 4ba:	6b d1       	rcall	.+726    	; 0x792 <__eerd_byte_tn2313>
 4bc:	f8 01       	movw	r30, r16
 4be:	91 81       	ldd	r25, Z+1	; 0x01
 4c0:	98 17       	cp	r25, r24
 4c2:	c1 f4       	brne	.+48     	; 0x4f4 <checkKey+0x7a>
 4c4:	ce 01       	movw	r24, r28
 4c6:	02 96       	adiw	r24, 0x02	; 2
 4c8:	64 d1       	rcall	.+712    	; 0x792 <__eerd_byte_tn2313>
 4ca:	f8 01       	movw	r30, r16
 4cc:	92 81       	ldd	r25, Z+2	; 0x02
 4ce:	98 17       	cp	r25, r24
 4d0:	89 f4       	brne	.+34     	; 0x4f4 <checkKey+0x7a>
 4d2:	ce 01       	movw	r24, r28
 4d4:	03 96       	adiw	r24, 0x03	; 3
 4d6:	5d d1       	rcall	.+698    	; 0x792 <__eerd_byte_tn2313>
 4d8:	f8 01       	movw	r30, r16
 4da:	93 81       	ldd	r25, Z+3	; 0x03
 4dc:	98 17       	cp	r25, r24
 4de:	51 f4       	brne	.+20     	; 0x4f4 <checkKey+0x7a>
 4e0:	ce 01       	movw	r24, r28
 4e2:	04 96       	adiw	r24, 0x04	; 4
 4e4:	56 d1       	rcall	.+684    	; 0x792 <__eerd_byte_tn2313>
 4e6:	f8 01       	movw	r30, r16
 4e8:	94 81       	ldd	r25, Z+4	; 0x04
 4ea:	98 17       	cp	r25, r24
 4ec:	19 f4       	brne	.+6      	; 0x4f4 <checkKey+0x7a>
 4ee:	2f 2d       	mov	r18, r15
 4f0:	30 e0       	ldi	r19, 0x00	; 0
 4f2:	07 c0       	rjmp	.+14     	; 0x502 <checkKey+0x88>
 4f4:	f3 94       	inc	r15
 4f6:	25 96       	adiw	r28, 0x05	; 5
 4f8:	f4 e1       	ldi	r31, 0x14	; 20
 4fa:	ff 16       	cp	r15, r31
 4fc:	c1 f6       	brne	.-80     	; 0x4ae <checkKey+0x34>
 4fe:	2f ef       	ldi	r18, 0xFF	; 255
 500:	3f ef       	ldi	r19, 0xFF	; 255
 502:	c9 01       	movw	r24, r18
 504:	df 91       	pop	r29
 506:	cf 91       	pop	r28
 508:	1f 91       	pop	r17
 50a:	0f 91       	pop	r16
 50c:	ff 90       	pop	r15
 50e:	ef 90       	pop	r14
 510:	08 95       	ret

00000512 <deleteKey>:
 512:	cf 93       	push	r28
 514:	df 93       	push	r29
 516:	ec 01       	movw	r28, r24
 518:	b0 df       	rcall	.-160    	; 0x47a <checkKey>
 51a:	87 ff       	sbrs	r24, 7
 51c:	03 c0       	rjmp	.+6      	; 0x524 <deleteKey+0x12>
 51e:	2f ef       	ldi	r18, 0xFF	; 255
 520:	3f ef       	ldi	r19, 0xFF	; 255
 522:	14 c0       	rjmp	.+40     	; 0x54c <deleteKey+0x3a>
 524:	18 82       	st	Y, r1
 526:	19 82       	std	Y+1, r1	; 0x01
 528:	1a 82       	std	Y+2, r1	; 0x02
 52a:	1b 82       	std	Y+3, r1	; 0x03
 52c:	1c 82       	std	Y+4, r1	; 0x04
 52e:	99 27       	eor	r25, r25
 530:	87 fd       	sbrc	r24, 7
 532:	90 95       	com	r25
 534:	65 e0       	ldi	r22, 0x05	; 5
 536:	70 e0       	ldi	r23, 0x00	; 0
 538:	0e d1       	rcall	.+540    	; 0x756 <__mulhi3>
 53a:	bc 01       	movw	r22, r24
 53c:	60 50       	subi	r22, 0x00	; 0
 53e:	70 40       	sbci	r23, 0x00	; 0
 540:	ce 01       	movw	r24, r28
 542:	45 e0       	ldi	r20, 0x05	; 5
 544:	50 e0       	ldi	r21, 0x00	; 0
 546:	2d d1       	rcall	.+602    	; 0x7a2 <__eewr_block_tn2313>
 548:	20 e0       	ldi	r18, 0x00	; 0
 54a:	30 e0       	ldi	r19, 0x00	; 0
 54c:	c9 01       	movw	r24, r18
 54e:	df 91       	pop	r29
 550:	cf 91       	pop	r28
 552:	08 95       	ret

00000554 <saveKey>:
 554:	ef 92       	push	r14
 556:	ff 92       	push	r15
 558:	0f 93       	push	r16
 55a:	1f 93       	push	r17
 55c:	cf 93       	push	r28
 55e:	df 93       	push	r29
 560:	7c 01       	movw	r14, r24
 562:	8b df       	rcall	.-234    	; 0x47a <checkKey>
 564:	87 ff       	sbrs	r24, 7
 566:	2d c0       	rjmp	.+90     	; 0x5c2 <saveKey+0x6e>
 568:	c0 e0       	ldi	r28, 0x00	; 0
 56a:	d0 e0       	ldi	r29, 0x00	; 0
 56c:	8e 01       	movw	r16, r28
 56e:	00 50       	subi	r16, 0x00	; 0
 570:	10 40       	sbci	r17, 0x00	; 0
 572:	c8 01       	movw	r24, r16
 574:	0e d1       	rcall	.+540    	; 0x792 <__eerd_byte_tn2313>
 576:	88 23       	and	r24, r24
 578:	01 f5       	brne	.+64     	; 0x5ba <saveKey+0x66>
 57a:	ce 01       	movw	r24, r28
 57c:	8f 5f       	subi	r24, 0xFF	; 255
 57e:	9f 4f       	sbci	r25, 0xFF	; 255
 580:	08 d1       	rcall	.+528    	; 0x792 <__eerd_byte_tn2313>
 582:	88 23       	and	r24, r24
 584:	d1 f4       	brne	.+52     	; 0x5ba <saveKey+0x66>
 586:	ce 01       	movw	r24, r28
 588:	8e 5f       	subi	r24, 0xFE	; 254
 58a:	9f 4f       	sbci	r25, 0xFF	; 255
 58c:	02 d1       	rcall	.+516    	; 0x792 <__eerd_byte_tn2313>
 58e:	88 23       	and	r24, r24
 590:	a1 f4       	brne	.+40     	; 0x5ba <saveKey+0x66>
 592:	ce 01       	movw	r24, r28
 594:	8d 5f       	subi	r24, 0xFD	; 253
 596:	9f 4f       	sbci	r25, 0xFF	; 255
 598:	fc d0       	rcall	.+504    	; 0x792 <__eerd_byte_tn2313>
 59a:	88 23       	and	r24, r24
 59c:	71 f4       	brne	.+28     	; 0x5ba <saveKey+0x66>
 59e:	ce 01       	movw	r24, r28
 5a0:	8c 5f       	subi	r24, 0xFC	; 252
 5a2:	9f 4f       	sbci	r25, 0xFF	; 255
 5a4:	f6 d0       	rcall	.+492    	; 0x792 <__eerd_byte_tn2313>
 5a6:	88 23       	and	r24, r24
 5a8:	41 f4       	brne	.+16     	; 0x5ba <saveKey+0x66>
 5aa:	c7 01       	movw	r24, r14
 5ac:	b8 01       	movw	r22, r16
 5ae:	45 e0       	ldi	r20, 0x05	; 5
 5b0:	50 e0       	ldi	r21, 0x00	; 0
 5b2:	f7 d0       	rcall	.+494    	; 0x7a2 <__eewr_block_tn2313>
 5b4:	21 e0       	ldi	r18, 0x01	; 1
 5b6:	30 e0       	ldi	r19, 0x00	; 0
 5b8:	06 c0       	rjmp	.+12     	; 0x5c6 <saveKey+0x72>
 5ba:	25 96       	adiw	r28, 0x05	; 5
 5bc:	c4 36       	cpi	r28, 0x64	; 100
 5be:	d1 05       	cpc	r29, r1
 5c0:	a9 f6       	brne	.-86     	; 0x56c <saveKey+0x18>
 5c2:	2f ef       	ldi	r18, 0xFF	; 255
 5c4:	3f ef       	ldi	r19, 0xFF	; 255
 5c6:	c9 01       	movw	r24, r18
 5c8:	df 91       	pop	r29
 5ca:	cf 91       	pop	r28
 5cc:	1f 91       	pop	r17
 5ce:	0f 91       	pop	r16
 5d0:	ff 90       	pop	r15
 5d2:	ef 90       	pop	r14
 5d4:	08 95       	ret

000005d6 <main>:
 5d6:	af 92       	push	r10
 5d8:	bf 92       	push	r11
 5da:	cf 92       	push	r12
 5dc:	df 92       	push	r13
 5de:	ef 92       	push	r14
 5e0:	ff 92       	push	r15
 5e2:	0f 93       	push	r16
 5e4:	1f 93       	push	r17
 5e6:	df 93       	push	r29
 5e8:	cf 93       	push	r28
 5ea:	cd b7       	in	r28, 0x3d	; 61
 5ec:	de b7       	in	r29, 0x3e	; 62
 5ee:	2a 97       	sbiw	r28, 0x0a	; 10
 5f0:	0f b6       	in	r0, 0x3f	; 63
 5f2:	f8 94       	cli
 5f4:	de bf       	out	0x3e, r29	; 62
 5f6:	0f be       	out	0x3f, r0	; 63
 5f8:	cd bf       	out	0x3d, r28	; 61
 5fa:	03 df       	rcall	.-506    	; 0x402 <lcd_init>
 5fc:	84 e0       	ldi	r24, 0x04	; 4
 5fe:	81 bb       	out	0x11, r24	; 17
 600:	82 bb       	out	0x12, r24	; 18
 602:	87 b3       	in	r24, 0x17	; 23
 604:	80 6c       	ori	r24, 0xC0	; 192
 606:	87 bb       	out	0x17, r24	; 23
 608:	84 9b       	sbis	0x10, 4	; 16
 60a:	2b c0       	rjmp	.+86     	; 0x662 <main+0x8c>
 60c:	85 9b       	sbis	0x10, 5	; 16
 60e:	29 c0       	rjmp	.+82     	; 0x662 <main+0x8c>
 610:	86 9b       	sbis	0x10, 6	; 16
 612:	27 c0       	rjmp	.+78     	; 0x662 <main+0x8c>
 614:	fe 01       	movw	r30, r28
 616:	36 96       	adiw	r30, 0x06	; 6
 618:	85 e0       	ldi	r24, 0x05	; 5
 61a:	df 01       	movw	r26, r30
 61c:	1d 92       	st	X+, r1
 61e:	8a 95       	dec	r24
 620:	e9 f7       	brne	.-6      	; 0x61c <main+0x46>
 622:	00 e0       	ldi	r16, 0x00	; 0
 624:	10 e0       	ldi	r17, 0x00	; 0
 626:	6f 01       	movw	r12, r30
 628:	30 e4       	ldi	r19, 0x40	; 64
 62a:	b3 2e       	mov	r11, r19
 62c:	28 ec       	ldi	r18, 0xC8	; 200
 62e:	e2 2e       	mov	r14, r18
 630:	f1 2c       	mov	r15, r1
 632:	c6 01       	movw	r24, r12
 634:	b8 01       	movw	r22, r16
 636:	45 e0       	ldi	r20, 0x05	; 5
 638:	50 e0       	ldi	r21, 0x00	; 0
 63a:	b3 d0       	rcall	.+358    	; 0x7a2 <__eewr_block_tn2313>
 63c:	88 b3       	in	r24, 0x18	; 24
 63e:	8b 25       	eor	r24, r11
 640:	88 bb       	out	0x18, r24	; 24
 642:	88 b3       	in	r24, 0x18	; 24
 644:	80 58       	subi	r24, 0x80	; 128
 646:	88 bb       	out	0x18, r24	; 24
 648:	84 ef       	ldi	r24, 0xF4	; 244
 64a:	91 e0       	ldi	r25, 0x01	; 1
 64c:	f7 01       	movw	r30, r14
 64e:	31 97       	sbiw	r30, 0x01	; 1
 650:	f1 f7       	brne	.-4      	; 0x64e <main+0x78>
 652:	01 97       	sbiw	r24, 0x01	; 1
 654:	d9 f7       	brne	.-10     	; 0x64c <main+0x76>
 656:	0b 5f       	subi	r16, 0xFB	; 251
 658:	1f 4f       	sbci	r17, 0xFF	; 255
 65a:	b0 e0       	ldi	r27, 0x00	; 0
 65c:	04 36       	cpi	r16, 0x64	; 100
 65e:	1b 07       	cpc	r17, r27
 660:	41 f7       	brne	.-48     	; 0x632 <main+0x5c>
 662:	83 e0       	ldi	r24, 0x03	; 3
 664:	83 bf       	out	0x33, r24	; 51
 666:	85 b7       	in	r24, 0x35	; 53
 668:	84 60       	ori	r24, 0x04	; 4
 66a:	85 bf       	out	0x35, r24	; 53
 66c:	8b b7       	in	r24, 0x3b	; 59
 66e:	80 68       	ori	r24, 0x80	; 128
 670:	8b bf       	out	0x3b, r24	; 59
 672:	78 94       	sei
 674:	7e 01       	movw	r14, r28
 676:	08 94       	sec
 678:	e1 1c       	adc	r14, r1
 67a:	f1 1c       	adc	r15, r1
 67c:	96 e0       	ldi	r25, 0x06	; 6
 67e:	a9 2e       	mov	r10, r25
 680:	b1 2c       	mov	r11, r1
 682:	ac 0e       	add	r10, r28
 684:	bd 1e       	adc	r11, r29
 686:	88 ec       	ldi	r24, 0xC8	; 200
 688:	c8 2e       	mov	r12, r24
 68a:	d1 2c       	mov	r13, r1
 68c:	80 e8       	ldi	r24, 0x80	; 128
 68e:	94 de       	rcall	.-728    	; 0x3b8 <lcd_command>
 690:	04 e6       	ldi	r16, 0x64	; 100
 692:	10 e0       	ldi	r17, 0x00	; 0
 694:	c8 01       	movw	r24, r16
 696:	7d d0       	rcall	.+250    	; 0x792 <__eerd_byte_tn2313>
 698:	6f de       	rcall	.-802    	; 0x378 <lcd_data>
 69a:	0f 5f       	subi	r16, 0xFF	; 255
 69c:	1f 4f       	sbci	r17, 0xFF	; 255
 69e:	e0 e0       	ldi	r30, 0x00	; 0
 6a0:	0e 36       	cpi	r16, 0x6E	; 110
 6a2:	1e 07       	cpc	r17, r30
 6a4:	b9 f7       	brne	.-18     	; 0x694 <main+0xbe>
 6a6:	84 9b       	sbis	0x10, 4	; 16
 6a8:	0d c0       	rjmp	.+26     	; 0x6c4 <main+0xee>
 6aa:	85 9b       	sbis	0x10, 5	; 16
 6ac:	0b c0       	rjmp	.+22     	; 0x6c4 <main+0xee>
 6ae:	86 99       	sbic	0x10, 6	; 16
 6b0:	09 c0       	rjmp	.+18     	; 0x6c4 <main+0xee>
 6b2:	c6 9a       	sbi	0x18, 6	; 24
 6b4:	88 e8       	ldi	r24, 0x88	; 136
 6b6:	93 e1       	ldi	r25, 0x13	; 19
 6b8:	f6 01       	movw	r30, r12
 6ba:	31 97       	sbiw	r30, 0x01	; 1
 6bc:	f1 f7       	brne	.-4      	; 0x6ba <main+0xe4>
 6be:	01 97       	sbiw	r24, 0x01	; 1
 6c0:	d9 f7       	brne	.-10     	; 0x6b8 <main+0xe2>
 6c2:	e4 cf       	rjmp	.-56     	; 0x68c <main+0xb6>
 6c4:	c7 01       	movw	r24, r14
 6c6:	a8 dd       	rcall	.-1200   	; 0x218 <u2270_read_tag>
 6c8:	88 23       	and	r24, r24
 6ca:	19 f4       	brne	.+6      	; 0x6d2 <main+0xfc>
 6cc:	84 ef       	ldi	r24, 0xF4	; 244
 6ce:	91 e0       	ldi	r25, 0x01	; 1
 6d0:	3a c0       	rjmp	.+116    	; 0x746 <main+0x170>
 6d2:	84 9b       	sbis	0x10, 4	; 16
 6d4:	06 c0       	rjmp	.+12     	; 0x6e2 <main+0x10c>
 6d6:	85 99       	sbic	0x10, 5	; 16
 6d8:	04 c0       	rjmp	.+8      	; 0x6e2 <main+0x10c>
 6da:	86 9b       	sbis	0x10, 6	; 16
 6dc:	02 c0       	rjmp	.+4      	; 0x6e2 <main+0x10c>
 6de:	c7 01       	movw	r24, r14
 6e0:	39 df       	rcall	.-398    	; 0x554 <saveKey>
 6e2:	84 99       	sbic	0x10, 4	; 16
 6e4:	06 c0       	rjmp	.+12     	; 0x6f2 <main+0x11c>
 6e6:	85 9b       	sbis	0x10, 5	; 16
 6e8:	04 c0       	rjmp	.+8      	; 0x6f2 <main+0x11c>
 6ea:	86 9b       	sbis	0x10, 6	; 16
 6ec:	02 c0       	rjmp	.+4      	; 0x6f2 <main+0x11c>
 6ee:	c7 01       	movw	r24, r14
 6f0:	10 df       	rcall	.-480    	; 0x512 <deleteKey>
 6f2:	c7 01       	movw	r24, r14
 6f4:	c2 de       	rcall	.-636    	; 0x47a <checkKey>
 6f6:	97 fd       	sbrc	r25, 7
 6f8:	02 c0       	rjmp	.+4      	; 0x6fe <main+0x128>
 6fa:	c6 9a       	sbi	0x18, 6	; 24
 6fc:	01 c0       	rjmp	.+2      	; 0x700 <main+0x12a>
 6fe:	c7 9a       	sbi	0x18, 7	; 24
 700:	80 e8       	ldi	r24, 0x80	; 128
 702:	5a de       	rcall	.-844    	; 0x3b8 <lcd_command>
 704:	87 01       	movw	r16, r14
 706:	d8 01       	movw	r26, r16
 708:	8c 91       	ld	r24, X
 70a:	82 95       	swap	r24
 70c:	8f 70       	andi	r24, 0x0F	; 15
 70e:	8a 30       	cpi	r24, 0x0A	; 10
 710:	10 f0       	brcs	.+4      	; 0x716 <main+0x140>
 712:	89 5c       	subi	r24, 0xC9	; 201
 714:	01 c0       	rjmp	.+2      	; 0x718 <main+0x142>
 716:	80 5d       	subi	r24, 0xD0	; 208
 718:	2f de       	rcall	.-930    	; 0x378 <lcd_data>
 71a:	f8 01       	movw	r30, r16
 71c:	80 81       	ld	r24, Z
 71e:	8f 70       	andi	r24, 0x0F	; 15
 720:	8a 30       	cpi	r24, 0x0A	; 10
 722:	10 f0       	brcs	.+4      	; 0x728 <main+0x152>
 724:	89 5c       	subi	r24, 0xC9	; 201
 726:	01 c0       	rjmp	.+2      	; 0x72a <main+0x154>
 728:	80 5d       	subi	r24, 0xD0	; 208
 72a:	26 de       	rcall	.-948    	; 0x378 <lcd_data>
 72c:	0f 5f       	subi	r16, 0xFF	; 255
 72e:	1f 4f       	sbci	r17, 0xFF	; 255
 730:	0a 15       	cp	r16, r10
 732:	1b 05       	cpc	r17, r11
 734:	41 f7       	brne	.-48     	; 0x706 <main+0x130>
 736:	84 ec       	ldi	r24, 0xC4	; 196
 738:	99 e0       	ldi	r25, 0x09	; 9
 73a:	f6 01       	movw	r30, r12
 73c:	31 97       	sbiw	r30, 0x01	; 1
 73e:	f1 f7       	brne	.-4      	; 0x73c <main+0x166>
 740:	01 97       	sbiw	r24, 0x01	; 1
 742:	d9 f7       	brne	.-10     	; 0x73a <main+0x164>
 744:	c3 cf       	rjmp	.-122    	; 0x6cc <main+0xf6>
 746:	f6 01       	movw	r30, r12
 748:	31 97       	sbiw	r30, 0x01	; 1
 74a:	f1 f7       	brne	.-4      	; 0x748 <main+0x172>
 74c:	01 97       	sbiw	r24, 0x01	; 1
 74e:	d9 f7       	brne	.-10     	; 0x746 <main+0x170>
 750:	c7 98       	cbi	0x18, 7	; 24
 752:	c6 98       	cbi	0x18, 6	; 24
 754:	9b cf       	rjmp	.-202    	; 0x68c <main+0xb6>

00000756 <__mulhi3>:
 756:	55 27       	eor	r21, r21
 758:	00 24       	eor	r0, r0

0000075a <__mulhi3_loop>:
 75a:	80 ff       	sbrs	r24, 0
 75c:	02 c0       	rjmp	.+4      	; 0x762 <__mulhi3_skip1>
 75e:	06 0e       	add	r0, r22
 760:	57 1f       	adc	r21, r23

00000762 <__mulhi3_skip1>:
 762:	66 0f       	add	r22, r22
 764:	77 1f       	adc	r23, r23
 766:	61 15       	cp	r22, r1
 768:	71 05       	cpc	r23, r1
 76a:	21 f0       	breq	.+8      	; 0x774 <__mulhi3_exit>
 76c:	96 95       	lsr	r25
 76e:	87 95       	ror	r24
 770:	00 97       	sbiw	r24, 0x00	; 0
 772:	99 f7       	brne	.-26     	; 0x75a <__mulhi3_loop>

00000774 <__mulhi3_exit>:
 774:	95 2f       	mov	r25, r21
 776:	80 2d       	mov	r24, r0
 778:	08 95       	ret

0000077a <__udivmodqi4>:
 77a:	99 1b       	sub	r25, r25
 77c:	79 e0       	ldi	r23, 0x09	; 9
 77e:	04 c0       	rjmp	.+8      	; 0x788 <__udivmodqi4_ep>

00000780 <__udivmodqi4_loop>:
 780:	99 1f       	adc	r25, r25
 782:	96 17       	cp	r25, r22
 784:	08 f0       	brcs	.+2      	; 0x788 <__udivmodqi4_ep>
 786:	96 1b       	sub	r25, r22

00000788 <__udivmodqi4_ep>:
 788:	88 1f       	adc	r24, r24
 78a:	7a 95       	dec	r23
 78c:	c9 f7       	brne	.-14     	; 0x780 <__udivmodqi4_loop>
 78e:	80 95       	com	r24
 790:	08 95       	ret

00000792 <__eerd_byte_tn2313>:
 792:	e1 99       	sbic	0x1c, 1	; 28
 794:	fe cf       	rjmp	.-4      	; 0x792 <__eerd_byte_tn2313>
 796:	1f ba       	out	0x1f, r1	; 31
 798:	8e bb       	out	0x1e, r24	; 30
 79a:	e0 9a       	sbi	0x1c, 0	; 28
 79c:	99 27       	eor	r25, r25
 79e:	8d b3       	in	r24, 0x1d	; 29
 7a0:	08 95       	ret

000007a2 <__eewr_block_tn2313>:
 7a2:	a8 2f       	mov	r26, r24
 7a4:	86 2f       	mov	r24, r22
 7a6:	02 c0       	rjmp	.+4      	; 0x7ac <__eewr_block_tn2313+0xa>
 7a8:	2d 91       	ld	r18, X+
 7aa:	04 d0       	rcall	.+8      	; 0x7b4 <__eewr_r18_tn2313>
 7ac:	41 50       	subi	r20, 0x01	; 1
 7ae:	e0 f7       	brcc	.-8      	; 0x7a8 <__eewr_block_tn2313+0x6>
 7b0:	08 95       	ret

000007b2 <__eewr_byte_tn2313>:
 7b2:	26 2f       	mov	r18, r22

000007b4 <__eewr_r18_tn2313>:
 7b4:	e1 99       	sbic	0x1c, 1	; 28
 7b6:	fe cf       	rjmp	.-4      	; 0x7b4 <__eewr_r18_tn2313>
 7b8:	1c ba       	out	0x1c, r1	; 28
 7ba:	1f ba       	out	0x1f, r1	; 31
 7bc:	8e bb       	out	0x1e, r24	; 30
 7be:	2d bb       	out	0x1d, r18	; 29
 7c0:	0f b6       	in	r0, 0x3f	; 63
 7c2:	f8 94       	cli
 7c4:	e2 9a       	sbi	0x1c, 2	; 28
 7c6:	e1 9a       	sbi	0x1c, 1	; 28
 7c8:	0f be       	out	0x3f, r0	; 63
 7ca:	01 96       	adiw	r24, 0x01	; 1
 7cc:	08 95       	ret

000007ce <_exit>:
 7ce:	f8 94       	cli

000007d0 <__stop_program>:
 7d0:	ff cf       	rjmp	.-2      	; 0x7d0 <__stop_program>
